 xrRender_R2

 Timestamp is 5ba676c5 (Sat Sep 22 20:07:17 2018)

 Preferred load address is 10000000

 Start         Length     Name                   Class
 0001:00000000 000001acH .text$di                CODE
 0001:000001b0 000cc180H .text$mn                CODE
 0001:000cc330 00000f65H .text$x                 CODE
 0001:000cd2a0 000009adH .text$yd                CODE
 0002:00000000 00000a50H .idata$5                DATA
 0002:00000a50 00000004H .CRT$XCA                DATA
 0002:00000a54 00000058H .CRT$XCU                DATA
 0002:00000aac 00000004H .CRT$XCZ                DATA
 0002:00000ab0 00000004H .CRT$XIA                DATA
 0002:00000ab4 00000004H .CRT$XIAA               DATA
 0002:00000ab8 00000004H .CRT$XIC                DATA
 0002:00000abc 00000004H .CRT$XIZ                DATA
 0002:00000ac0 00007258H .rdata                  DATA
 0002:00007d18 0000005cH .rdata$debug            DATA
 0002:00007d74 00002024H .rdata$r                DATA
 0002:00009da0 000003e0H .rdata$sxdata           DATA
 0002:0000a180 00000004H .rtc$IAA                DATA
 0002:0000a184 00000004H .rtc$IZZ                DATA
 0002:0000a188 00000004H .rtc$TAA                DATA
 0002:0000a18c 00000004H .rtc$TZZ                DATA
 0002:0000a190 000055f4H .xdata$x                DATA
 0002:0000f790 000000adH .edata                  DATA
 0002:0000f840 000000b4H .idata$2                DATA
 0002:0000f8f4 00000014H .idata$3                DATA
 0002:0000f908 00000a50H .idata$4                DATA
 0002:00010358 00006796H .idata$6                DATA
 0003:00000000 000018a0H .data                   DATA
 0003:000018a0 00000d24H .data$r                 DATA
 0003:000025d0 00010620H .bss                    DATA
 0004:00000000 00000058H .rsrc$01                DATA
 0004:00000060 00000180H .rsrc$02                DATA

  Address         Publics by Value              Rva+Base       Lib:Object

 0000:00000000       ___guard_fids_count        00000000     <absolute>
 0000:00000000       ___guard_fids_table        00000000     <absolute>
 0000:00000000       ___guard_flags             00000000     <absolute>
 0000:00000000       __except_list              00000000     <absolute>
 0000:000000f8       ___safe_se_handler_count   000000f8     <absolute>
 0000:00009876       __ldused                   00009876     <absolute>
 0000:00009876       __fltused                  00009876     <absolute>
 0000:00000000       ___ImageBase               10000000     <linker-defined>
 0001:000001b0       ?increment_stats@stats_manager@@QAEXIW4enum_stats_buffer_type@@W4_D3DPOOL@@@Z 100011b0 f   stats_manager.obj
 0001:00000250       ?increment_stats@stats_manager@@AAEXIW4enum_stats_buffer_type@@W4_D3DPOOL@@PAX@Z 10001250 f   stats_manager.obj
 0001:00000320       ?increment_stats_rtarget@stats_manager@@QAEXPAUIDirect3DTexture9@@@Z 10001320 f   stats_manager.obj
 0001:00000370       ?increment_stats_vb@stats_manager@@QAEXPAUIDirect3DVertexBuffer9@@@Z 10001370 f   stats_manager.obj
 0001:000003b0       ?increment_stats_ib@stats_manager@@QAEXPAUIDirect3DIndexBuffer9@@@Z 100013b0 f   stats_manager.obj
 0001:000003f0       ?decrement_stats_rtarget@stats_manager@@QAEXPAUIDirect3DTexture9@@@Z 100013f0 f   stats_manager.obj
 0001:00000460       ?decrement_stats_vb@stats_manager@@QAEXPAUIDirect3DVertexBuffer9@@@Z 10001460 f   stats_manager.obj
 0001:000004c0       ?decrement_stats_ib@stats_manager@@QAEXPAUIDirect3DIndexBuffer9@@@Z 100014c0 f   stats_manager.obj
 0001:00000520       ?decrement_stats@stats_manager@@QAEXIW4enum_stats_buffer_type@@W4_D3DPOOL@@@Z 10001520 f   stats_manager.obj
 0001:000005c0       ?decrement_stats@stats_manager@@AAEXIW4enum_stats_buffer_type@@W4_D3DPOOL@@PAX@Z 100015c0 f   stats_manager.obj
 0001:000005f0       ??1stats_manager@@QAE@XZ   100015f0 f   stats_manager.obj
 0001:00000600       ?get_format_pixel_size@@YAIW4_D3DFORMAT@@@Z 10001600 f   stats_manager.obj
 0001:000006b0       ??0ColorMapManager@@QAE@XZ 100016b0 f   ColorMapManager.obj
 0001:00000780       ??0?$xr_map@Vshared_str@@V?$resptr_core@VCTexture@@Uresptrcode_texture@@@@Ustr_pred@ColorMapManager@@V?$xalloc@U?$pair@Vshared_str@@V?$resptr_core@VCTexture@@Uresptrcode_texture@@@@@std@@@@@@QAE@XZ 10001780 f i ColorMapManager.obj
 0001:000007a0       ??1?$xr_map@Vshared_str@@V?$resptr_core@VCTexture@@Uresptrcode_texture@@@@Ustr_pred@ColorMapManager@@V?$xalloc@U?$pair@Vshared_str@@V?$resptr_core@VCTexture@@Uresptrcode_texture@@@@@std@@@@@@QAE@XZ 100017a0 f i ColorMapManager.obj
 0001:000007d0       ??1?$map@Vshared_str@@V?$resptr_core@VCTexture@@Uresptrcode_texture@@@@Ustr_pred@ColorMapManager@@V?$xalloc@U?$pair@Vshared_str@@V?$resptr_core@VCTexture@@Uresptrcode_texture@@@@@std@@@@@std@@QAE@XZ 100017d0 f i ColorMapManager.obj
 0001:00000800       ?SetTextures@ColorMapManager@@QAEXABVshared_str@@0@Z 10001800 f   ColorMapManager.obj
 0001:00000820       ?UpdateTexture@ColorMapManager@@AAEXABVshared_str@@H@Z 10001820 f   ColorMapManager.obj
 0001:00000980       ??1?$pair@Vshared_str@@V?$resptr_core@VCTexture@@Uresptrcode_texture@@@@@std@@QAE@XZ 10001980 f i ColorMapManager.obj
 0001:000009b0       ??0?$resptr_core@VCTexture@@Uresptrcode_texture@@@@QAE@XZ 100019b0 f i ColorMapManager.obj
 0001:000009c0       ??0?$resptr_core@VCTexture@@Uresptrcode_texture@@@@QAE@PAVCTexture@@_N@Z 100019c0 f i ColorMapManager.obj
 0001:000009d0       ??0?$resptr_core@VCTexture@@Uresptrcode_texture@@@@QAE@ABV0@@Z 100019d0 f i ColorMapManager.obj
 0001:000009f0       ??C?$resptr_core@VCTexture@@Uresptrcode_texture@@@@QBEPAVCTexture@@XZ 100019f0 f i ColorMapManager.obj
 0001:00000a00       ??0?$map@Vshared_str@@V?$resptr_core@VCTexture@@Uresptrcode_texture@@@@Ustr_pred@ColorMapManager@@V?$xalloc@U?$pair@Vshared_str@@V?$resptr_core@VCTexture@@Uresptrcode_texture@@@@@std@@@@@std@@QAE@XZ 10001a00 f i ColorMapManager.obj
 0001:00000a20       ??1?$_Tree@V?$_Tmap_traits@Vshared_str@@V?$resptr_core@VCTexture@@Uresptrcode_texture@@@@Ustr_pred@ColorMapManager@@V?$xalloc@U?$pair@Vshared_str@@V?$resptr_core@VCTexture@@Uresptrcode_texture@@@@@std@@@@$0A@@std@@@std@@QAE@XZ 10001a20 f i ColorMapManager.obj
 0001:00000a50       ?end@?$_Tree@V?$_Tmap_traits@Vshared_str@@V?$resptr_core@VCTexture@@Uresptrcode_texture@@@@Ustr_pred@ColorMapManager@@V?$xalloc@U?$pair@Vshared_str@@V?$resptr_core@VCTexture@@Uresptrcode_texture@@@@@std@@@@$0A@@std@@@std@@QAE?AV?$_Tree_iterator@V?$_Tree_val@U?$_Tree_simple_types@U?$pair@$$CBVshared_str@@V?$resptr_core@VCTexture@@Uresptrcode_texture@@@@@std@@@std@@@std@@@2@XZ 10001a50 f i ColorMapManager.obj
 0001:00000a60       ?find@?$_Tree@V?$_Tmap_traits@Vshared_str@@V?$resptr_core@VCTexture@@Uresptrcode_texture@@@@Ustr_pred@ColorMapManager@@V?$xalloc@U?$pair@Vshared_str@@V?$resptr_core@VCTexture@@Uresptrcode_texture@@@@@std@@@@$0A@@std@@@std@@QAE?AV?$_Tree_iterator@V?$_Tree_val@U?$_Tree_simple_types@U?$pair@$$CBVshared_str@@V?$resptr_core@VCTexture@@Uresptrcode_texture@@@@@std@@@std@@@std@@@2@ABVshared_str@@@Z 10001a60 f i ColorMapManager.obj
 0001:00000ab0       ??C?$_Tree_iterator@V?$_Tree_val@U?$_Tree_simple_types@U?$pair@$$CBVshared_str@@V?$resptr_core@VCTexture@@Uresptrcode_texture@@@@@std@@@std@@@std@@@std@@QBEPAU?$pair@$$CBVshared_str@@V?$resptr_core@VCTexture@@Uresptrcode_texture@@@@@1@XZ 10001ab0 f i ColorMapManager.obj
 0001:00000ac0       ??9?$_Tree_const_iterator@V?$_Tree_val@U?$_Tree_simple_types@U?$pair@$$CBVshared_str@@V?$resptr_core@VCTexture@@Uresptrcode_texture@@@@@std@@@std@@@std@@@std@@QBE_NABV01@@Z 10001ac0 f i ColorMapManager.obj
 0001:00000ad0       ??1?$_Tree_comp@$0A@V?$_Tmap_traits@Vshared_str@@V?$resptr_core@VCTexture@@Uresptrcode_texture@@@@Ustr_pred@ColorMapManager@@V?$xalloc@U?$pair@Vshared_str@@V?$resptr_core@VCTexture@@Uresptrcode_texture@@@@@std@@@@$0A@@std@@@std@@QAE@XZ 10001ad0 f i ColorMapManager.obj
 0001:00000af0       ??1?$_Tree_buy@U?$pair@$$CBVshared_str@@V?$resptr_core@VCTexture@@Uresptrcode_texture@@@@@std@@V?$xalloc@U?$pair@Vshared_str@@V?$resptr_core@VCTexture@@Uresptrcode_texture@@@@@std@@@@@std@@QAE@XZ 10001af0 f i ColorMapManager.obj
 0001:00000b10       ??0?$_Tree@V?$_Tmap_traits@Vshared_str@@V?$resptr_core@VCTexture@@Uresptrcode_texture@@@@Ustr_pred@ColorMapManager@@V?$xalloc@U?$pair@Vshared_str@@V?$resptr_core@VCTexture@@Uresptrcode_texture@@@@@std@@@@$0A@@std@@@std@@QAE@ABUstr_pred@ColorMapManager@@ABV?$xalloc@U?$pair@Vshared_str@@V?$resptr_core@VCTexture@@Uresptrcode_texture@@@@@std@@@@@Z 10001b10 f i ColorMapManager.obj
 0001:00000b30       ?lower_bound@?$_Tree@V?$_Tmap_traits@Vshared_str@@V?$resptr_core@VCTexture@@Uresptrcode_texture@@@@Ustr_pred@ColorMapManager@@V?$xalloc@U?$pair@Vshared_str@@V?$resptr_core@VCTexture@@Uresptrcode_texture@@@@@std@@@@$0A@@std@@@std@@QAE?AV?$_Tree_iterator@V?$_Tree_val@U?$_Tree_simple_types@U?$pair@$$CBVshared_str@@V?$resptr_core@VCTexture@@Uresptrcode_texture@@@@@std@@@std@@@std@@@2@ABVshared_str@@@Z 10001b30 f i ColorMapManager.obj
 0001:00000b60       ?_Tidy@?$_Tree@V?$_Tmap_traits@Vshared_str@@V?$resptr_core@VCTexture@@Uresptrcode_texture@@@@Ustr_pred@ColorMapManager@@V?$xalloc@U?$pair@Vshared_str@@V?$resptr_core@VCTexture@@Uresptrcode_texture@@@@@std@@@@$0A@@std@@@std@@IAEXXZ 10001b60 f i ColorMapManager.obj
 0001:00000b80       ?_Key@?$_Tree@V?$_Tmap_traits@Vshared_str@@V?$resptr_core@VCTexture@@Uresptrcode_texture@@@@Ustr_pred@ColorMapManager@@V?$xalloc@U?$pair@Vshared_str@@V?$resptr_core@VCTexture@@Uresptrcode_texture@@@@@std@@@@$0A@@std@@@std@@IBEABVshared_str@@PAU?$_Tree_node@U?$pair@$$CBVshared_str@@V?$resptr_core@VCTexture@@Uresptrcode_texture@@@@@std@@PAX@2@@Z 10001b80 f i ColorMapManager.obj
 0001:00000b90       ?_Getcomp@?$_Tree_comp@$0A@V?$_Tmap_traits@Vshared_str@@V?$resptr_core@VCTexture@@Uresptrcode_texture@@@@Ustr_pred@ColorMapManager@@V?$xalloc@U?$pair@Vshared_str@@V?$resptr_core@VCTexture@@Uresptrcode_texture@@@@@std@@@@$0A@@std@@@std@@QBE?AUstr_pred@ColorMapManager@@XZ 10001b90 f i ColorMapManager.obj
 0001:00000ba0       ??0?$xalloc@U?$pair@Vshared_str@@V?$resptr_core@VCTexture@@Uresptrcode_texture@@@@@std@@@@QAE@XZ 10001ba0 f i ColorMapManager.obj
 0001:00000bb0       ??1?$_Tree_alloc@$0A@U?$_Tree_base_types@U?$pair@$$CBVshared_str@@V?$resptr_core@VCTexture@@Uresptrcode_texture@@@@@std@@V?$xalloc@U?$pair@Vshared_str@@V?$resptr_core@VCTexture@@Uresptrcode_texture@@@@@std@@@@@std@@@std@@QAE@XZ 10001bb0 f i ColorMapManager.obj
 0001:00000bd0       ?pointer_to@?$pointer_traits@PAU?$pair@$$CBVshared_str@@V?$resptr_core@VCTexture@@Uresptrcode_texture@@@@@std@@@std@@SAPAU?$pair@$$CBVshared_str@@V?$resptr_core@VCTexture@@Uresptrcode_texture@@@@@2@AAU32@@Z 10001bd0 f i ColorMapManager.obj
 0001:00000be0       ??0?$_Tree_iterator@V?$_Tree_val@U?$_Tree_simple_types@U?$pair@$$CBVshared_str@@V?$resptr_core@VCTexture@@Uresptrcode_texture@@@@@std@@@std@@@std@@@std@@QAE@PAU?$_Tree_node@U?$pair@$$CBVshared_str@@V?$resptr_core@VCTexture@@Uresptrcode_texture@@@@@std@@PAX@1@PBV?$_Tree_val@U?$_Tree_simple_types@U?$pair@$$CBVshared_str@@V?$resptr_core@VCTexture@@Uresptrcode_texture@@@@@std@@@std@@@1@@Z 10001be0 f i ColorMapManager.obj
 0001:00000bf0       ??D?$_Tree_iterator@V?$_Tree_val@U?$_Tree_simple_types@U?$pair@$$CBVshared_str@@V?$resptr_core@VCTexture@@Uresptrcode_texture@@@@@std@@@std@@@std@@@std@@QBEAAU?$pair@$$CBVshared_str@@V?$resptr_core@VCTexture@@Uresptrcode_texture@@@@@1@XZ 10001bf0 f i ColorMapManager.obj
 0001:00000c00       ??8?$_Tree_const_iterator@V?$_Tree_val@U?$_Tree_simple_types@U?$pair@$$CBVshared_str@@V?$resptr_core@VCTexture@@Uresptrcode_texture@@@@@std@@@std@@@std@@@std@@QBE_NABV01@@Z 10001c00 f i ColorMapManager.obj
 0001:00000c10       ?_Mynode@?$_Tree_unchecked_const_iterator@V?$_Tree_val@U?$_Tree_simple_types@U?$pair@$$CBVshared_str@@V?$resptr_core@VCTexture@@Uresptrcode_texture@@@@@std@@@std@@@std@@U_Iterator_base0@2@@std@@QBEPAU?$_Tree_node@U?$pair@$$CBVshared_str@@V?$resptr_core@VCTexture@@Uresptrcode_texture@@@@@std@@PAX@2@XZ 10001c10 f i ColorMapManager.obj
 0001:00000c20       ?begin@?$_Tree@V?$_Tmap_traits@Vshared_str@@V?$resptr_core@VCTexture@@Uresptrcode_texture@@@@Ustr_pred@ColorMapManager@@V?$xalloc@U?$pair@Vshared_str@@V?$resptr_core@VCTexture@@Uresptrcode_texture@@@@@std@@@@$0A@@std@@@std@@QAE?AV?$_Tree_iterator@V?$_Tree_val@U?$_Tree_simple_types@U?$pair@$$CBVshared_str@@V?$resptr_core@VCTexture@@Uresptrcode_texture@@@@@std@@@std@@@std@@@2@XZ 10001c20 f i ColorMapManager.obj
 0001:00000c30       ?erase@?$_Tree@V?$_Tmap_traits@Vshared_str@@V?$resptr_core@VCTexture@@Uresptrcode_texture@@@@Ustr_pred@ColorMapManager@@V?$xalloc@U?$pair@Vshared_str@@V?$resptr_core@VCTexture@@Uresptrcode_texture@@@@@std@@@@$0A@@std@@@std@@QAE?AV?$_Tree_iterator@V?$_Tree_val@U?$_Tree_simple_types@U?$pair@$$CBVshared_str@@V?$resptr_core@VCTexture@@Uresptrcode_texture@@@@@std@@@std@@@std@@@2@V?$_Tree_const_iterator@V?$_Tree_val@U?$_Tree_simple_types@U?$pair@$$CBVshared_str@@V?$resptr_core@VCTexture@@Uresptrcode_texture@@@@@std@@@std@@@std@@@2@0@Z 10001c30 f i ColorMapManager.obj
 0001:00000cf0       ?_Lbound@?$_Tree@V?$_Tmap_traits@Vshared_str@@V?$resptr_core@VCTexture@@Uresptrcode_texture@@@@Ustr_pred@ColorMapManager@@V?$xalloc@U?$pair@Vshared_str@@V?$resptr_core@VCTexture@@Uresptrcode_texture@@@@@std@@@@$0A@@std@@@std@@IAEPAU?$_Tree_node@U?$pair@$$CBVshared_str@@V?$resptr_core@VCTexture@@Uresptrcode_texture@@@@@std@@PAX@2@ABVshared_str@@@Z 10001cf0 f i ColorMapManager.obj
 0001:00000d20       ?_Kfn@?$_Tree@V?$_Tmap_traits@Vshared_str@@V?$resptr_core@VCTexture@@Uresptrcode_texture@@@@Ustr_pred@ColorMapManager@@V?$xalloc@U?$pair@Vshared_str@@V?$resptr_core@VCTexture@@Uresptrcode_texture@@@@@std@@@@$0A@@std@@@std@@IBEABVshared_str@@ABU?$pair@$$CBVshared_str@@V?$resptr_core@VCTexture@@Uresptrcode_texture@@@@@2@@Z 10001d20 f i ColorMapManager.obj
 0001:00000d30       ??0?$_Tree_comp@$0A@V?$_Tmap_traits@Vshared_str@@V?$resptr_core@VCTexture@@Uresptrcode_texture@@@@Ustr_pred@ColorMapManager@@V?$xalloc@U?$pair@Vshared_str@@V?$resptr_core@VCTexture@@Uresptrcode_texture@@@@@std@@@@$0A@@std@@@std@@QAE@ABUstr_pred@ColorMapManager@@ABV?$xalloc@U?$pair@Vshared_str@@V?$resptr_core@VCTexture@@Uresptrcode_texture@@@@@std@@@@@Z 10001d30 f i ColorMapManager.obj
 0001:00000d50       ?_Freeheadnode@?$_Tree_alloc@$0A@U?$_Tree_base_types@U?$pair@$$CBVshared_str@@V?$resptr_core@VCTexture@@Uresptrcode_texture@@@@@std@@V?$xalloc@U?$pair@Vshared_str@@V?$resptr_core@VCTexture@@Uresptrcode_texture@@@@@std@@@@@std@@@std@@QAEXPAU?$_Tree_node@U?$pair@$$CBVshared_str@@V?$resptr_core@VCTexture@@Uresptrcode_texture@@@@@std@@PAX@2@@Z 10001d50 f i ColorMapManager.obj
 0001:00000d70       ?_Myval@?$_Tree_val@U?$_Tree_simple_types@U?$pair@$$CBVshared_str@@V?$resptr_core@VCTexture@@Uresptrcode_texture@@@@@std@@@std@@@std@@SAAAU?$pair@$$CBVshared_str@@V?$resptr_core@VCTexture@@Uresptrcode_texture@@@@@2@PAU?$_Tree_node@U?$pair@$$CBVshared_str@@V?$resptr_core@VCTexture@@Uresptrcode_texture@@@@@std@@PAX@2@@Z 10001d70 f i ColorMapManager.obj
 0001:00000d80       ??0?$_Tree_const_iterator@V?$_Tree_val@U?$_Tree_simple_types@U?$pair@$$CBVshared_str@@V?$resptr_core@VCTexture@@Uresptrcode_texture@@@@@std@@@std@@@std@@@std@@QAE@PAU?$_Tree_node@U?$pair@$$CBVshared_str@@V?$resptr_core@VCTexture@@Uresptrcode_texture@@@@@std@@PAX@1@PBV?$_Tree_val@U?$_Tree_simple_types@U?$pair@$$CBVshared_str@@V?$resptr_core@VCTexture@@Uresptrcode_texture@@@@@std@@@std@@@1@@Z 10001d80 f i ColorMapManager.obj
 0001:00000d90       ??D?$_Tree_const_iterator@V?$_Tree_val@U?$_Tree_simple_types@U?$pair@$$CBVshared_str@@V?$resptr_core@VCTexture@@Uresptrcode_texture@@@@@std@@@std@@@std@@@std@@QBEABU?$pair@$$CBVshared_str@@V?$resptr_core@VCTexture@@Uresptrcode_texture@@@@@1@XZ 10001d90 f i ColorMapManager.obj
 0001:00000da0       ?erase@?$_Tree@V?$_Tmap_traits@Vshared_str@@V?$resptr_core@VCTexture@@Uresptrcode_texture@@@@Ustr_pred@ColorMapManager@@V?$xalloc@U?$pair@Vshared_str@@V?$resptr_core@VCTexture@@Uresptrcode_texture@@@@@std@@@@$0A@@std@@@std@@QAE?AV?$_Tree_iterator@V?$_Tree_val@U?$_Tree_simple_types@U?$pair@$$CBVshared_str@@V?$resptr_core@VCTexture@@Uresptrcode_texture@@@@@std@@@std@@@std@@@2@V?$_Tree_const_iterator@V?$_Tree_val@U?$_Tree_simple_types@U?$pair@$$CBVshared_str@@V?$resptr_core@VCTexture@@Uresptrcode_texture@@@@@std@@@std@@@std@@@2@@Z 10001da0 f i ColorMapManager.obj
 0001:00001010       ?clear@?$_Tree@V?$_Tmap_traits@Vshared_str@@V?$resptr_core@VCTexture@@Uresptrcode_texture@@@@Ustr_pred@ColorMapManager@@V?$xalloc@U?$pair@Vshared_str@@V?$resptr_core@VCTexture@@Uresptrcode_texture@@@@@std@@@@$0A@@std@@@std@@QAEXXZ 10002010 f i ColorMapManager.obj
 0001:00001040       ?_Lmost@?$_Tree@V?$_Tmap_traits@Vshared_str@@V?$resptr_core@VCTexture@@Uresptrcode_texture@@@@Ustr_pred@ColorMapManager@@V?$xalloc@U?$pair@Vshared_str@@V?$resptr_core@VCTexture@@Uresptrcode_texture@@@@@std@@@@$0A@@std@@@std@@IBEAAPAU?$_Tree_node@U?$pair@$$CBVshared_str@@V?$resptr_core@VCTexture@@Uresptrcode_texture@@@@@std@@PAX@2@XZ 10002040 f i ColorMapManager.obj
 0001:00001050       ?_Root@?$_Tree@V?$_Tmap_traits@Vshared_str@@V?$resptr_core@VCTexture@@Uresptrcode_texture@@@@Ustr_pred@ColorMapManager@@V?$xalloc@U?$pair@Vshared_str@@V?$resptr_core@VCTexture@@Uresptrcode_texture@@@@@std@@@@$0A@@std@@@std@@IBEAAPAU?$_Tree_node@U?$pair@$$CBVshared_str@@V?$resptr_core@VCTexture@@Uresptrcode_texture@@@@@std@@PAX@2@XZ 10002050 f i ColorMapManager.obj
 0001:00001060       ??0?$_Tree_buy@U?$pair@$$CBVshared_str@@V?$resptr_core@VCTexture@@Uresptrcode_texture@@@@@std@@V?$xalloc@U?$pair@Vshared_str@@V?$resptr_core@VCTexture@@Uresptrcode_texture@@@@@std@@@@@std@@QAE@ABV?$xalloc@U?$pair@Vshared_str@@V?$resptr_core@VCTexture@@Uresptrcode_texture@@@@@std@@@@@Z 10002060 f i ColorMapManager.obj
 0001:00001080       ?_Getal@?$_Tree_alloc@$0A@U?$_Tree_base_types@U?$pair@$$CBVshared_str@@V?$resptr_core@VCTexture@@Uresptrcode_texture@@@@@std@@V?$xalloc@U?$pair@Vshared_str@@V?$resptr_core@VCTexture@@Uresptrcode_texture@@@@@std@@@@@std@@@std@@QBE?AU?$_Wrap_alloc@V?$xalloc@U?$_Tree_node@U?$pair@$$CBVshared_str@@V?$resptr_core@VCTexture@@Uresptrcode_texture@@@@@std@@PAX@std@@@@@2@XZ 10002080 f i ColorMapManager.obj
 0001:00001090       ?deallocate@?$_Wrap_alloc@V?$xalloc@U?$_Tree_node@U?$pair@$$CBVshared_str@@V?$resptr_core@VCTexture@@Uresptrcode_texture@@@@@std@@PAX@std@@@@@std@@QAEXPAU?$_Tree_node@U?$pair@$$CBVshared_str@@V?$resptr_core@VCTexture@@Uresptrcode_texture@@@@@std@@PAX@2@I@Z 10002090 f i ColorMapManager.obj
 0001:000010b0       ?_Isnil@?$_Tree_val@U?$_Tree_simple_types@U?$pair@$$CBVshared_str@@V?$resptr_core@VCTexture@@Uresptrcode_texture@@@@@std@@@std@@@std@@SAAADPAU?$_Tree_node@U?$pair@$$CBVshared_str@@V?$resptr_core@VCTexture@@Uresptrcode_texture@@@@@std@@PAX@2@@Z 100020b0 f i ColorMapManager.obj
 0001:000010c0       ?_Left@?$_Tree_val@U?$_Tree_simple_types@U?$pair@$$CBVshared_str@@V?$resptr_core@VCTexture@@Uresptrcode_texture@@@@@std@@@std@@@std@@SAAAPAU?$_Tree_node@U?$pair@$$CBVshared_str@@V?$resptr_core@VCTexture@@Uresptrcode_texture@@@@@std@@PAX@2@PAU32@@Z 100020c0 f i ColorMapManager.obj
 0001:000010d0       ?_Parent@?$_Tree_val@U?$_Tree_simple_types@U?$pair@$$CBVshared_str@@V?$resptr_core@VCTexture@@Uresptrcode_texture@@@@@std@@@std@@@std@@SAAAPAU?$_Tree_node@U?$pair@$$CBVshared_str@@V?$resptr_core@VCTexture@@Uresptrcode_texture@@@@@std@@PAX@2@PAU32@@Z 100020d0 f i ColorMapManager.obj
 0001:000010e0       ?_Right@?$_Tree_val@U?$_Tree_simple_types@U?$pair@$$CBVshared_str@@V?$resptr_core@VCTexture@@Uresptrcode_texture@@@@@std@@@std@@@std@@SAAAPAU?$_Tree_node@U?$pair@$$CBVshared_str@@V?$resptr_core@VCTexture@@Uresptrcode_texture@@@@@std@@PAX@2@PAU32@@Z 100020e0 f i ColorMapManager.obj
 0001:000010f0       ??E?$_Tree_const_iterator@V?$_Tree_val@U?$_Tree_simple_types@U?$pair@$$CBVshared_str@@V?$resptr_core@VCTexture@@Uresptrcode_texture@@@@@std@@@std@@@std@@@std@@QAE?AV01@H@Z 100020f0 f i ColorMapManager.obj
 0001:00001110       ??0?$_Tree_unchecked_const_iterator@V?$_Tree_val@U?$_Tree_simple_types@U?$pair@$$CBVshared_str@@V?$resptr_core@VCTexture@@Uresptrcode_texture@@@@@std@@@std@@@std@@U_Iterator_base0@2@@std@@QAE@PAU?$_Tree_node@U?$pair@$$CBVshared_str@@V?$resptr_core@VCTexture@@Uresptrcode_texture@@@@@std@@PAX@1@PBV?$_Tree_val@U?$_Tree_simple_types@U?$pair@$$CBVshared_str@@V?$resptr_core@VCTexture@@Uresptrcode_texture@@@@@std@@@std@@@1@@Z 10002110 f i ColorMapManager.obj
 0001:00001120       ?_Erase@?$_Tree@V?$_Tmap_traits@Vshared_str@@V?$resptr_core@VCTexture@@Uresptrcode_texture@@@@Ustr_pred@ColorMapManager@@V?$xalloc@U?$pair@Vshared_str@@V?$resptr_core@VCTexture@@Uresptrcode_texture@@@@@std@@@@$0A@@std@@@std@@IAEXPAU?$_Tree_node@U?$pair@$$CBVshared_str@@V?$resptr_core@VCTexture@@Uresptrcode_texture@@@@@std@@PAX@2@@Z 10002120 f i ColorMapManager.obj
 0001:00001190       ?_Lrotate@?$_Tree@V?$_Tmap_traits@Vshared_str@@V?$resptr_core@VCTexture@@Uresptrcode_texture@@@@Ustr_pred@ColorMapManager@@V?$xalloc@U?$pair@Vshared_str@@V?$resptr_core@VCTexture@@Uresptrcode_texture@@@@@std@@@@$0A@@std@@@std@@IAEXPAU?$_Tree_node@U?$pair@$$CBVshared_str@@V?$resptr_core@VCTexture@@Uresptrcode_texture@@@@@std@@PAX@2@@Z 10002190 f i ColorMapManager.obj
 0001:000011e0       ?_Rmost@?$_Tree@V?$_Tmap_traits@Vshared_str@@V?$resptr_core@VCTexture@@Uresptrcode_texture@@@@Ustr_pred@ColorMapManager@@V?$xalloc@U?$pair@Vshared_str@@V?$resptr_core@VCTexture@@Uresptrcode_texture@@@@@std@@@@$0A@@std@@@std@@IBEAAPAU?$_Tree_node@U?$pair@$$CBVshared_str@@V?$resptr_core@VCTexture@@Uresptrcode_texture@@@@@std@@PAX@2@XZ 100021e0 f i ColorMapManager.obj
 0001:000011f0       ?_Rrotate@?$_Tree@V?$_Tmap_traits@Vshared_str@@V?$resptr_core@VCTexture@@Uresptrcode_texture@@@@Ustr_pred@ColorMapManager@@V?$xalloc@U?$pair@Vshared_str@@V?$resptr_core@VCTexture@@Uresptrcode_texture@@@@@std@@@@$0A@@std@@@std@@IAEXPAU?$_Tree_node@U?$pair@$$CBVshared_str@@V?$resptr_core@VCTexture@@Uresptrcode_texture@@@@@std@@PAX@2@@Z 100021f0 f i ColorMapManager.obj
 0001:00001250       ??0?$_Tree_alloc@$0A@U?$_Tree_base_types@U?$pair@$$CBVshared_str@@V?$resptr_core@VCTexture@@Uresptrcode_texture@@@@@std@@V?$xalloc@U?$pair@Vshared_str@@V?$resptr_core@VCTexture@@Uresptrcode_texture@@@@@std@@@@@std@@@std@@QAE@ABV?$xalloc@U?$pair@Vshared_str@@V?$resptr_core@VCTexture@@Uresptrcode_texture@@@@@std@@@@@Z 10002250 f i ColorMapManager.obj
 0001:00001270       ??0?$_Wrap_alloc@V?$xalloc@U?$_Tree_node@U?$pair@$$CBVshared_str@@V?$resptr_core@VCTexture@@Uresptrcode_texture@@@@@std@@PAX@std@@@@@std@@QAE@XZ 10002270 f i ColorMapManager.obj
 0001:00001280       ?deallocate@?$xalloc@U?$_Tree_node@U?$pair@$$CBVshared_str@@V?$resptr_core@VCTexture@@Uresptrcode_texture@@@@@std@@PAX@std@@@@QBEXPAU?$_Tree_node@U?$pair@$$CBVshared_str@@V?$resptr_core@VCTexture@@Uresptrcode_texture@@@@@std@@PAX@std@@I@Z 10002280 f i ColorMapManager.obj
 0001:000012a0       ?_Color@?$_Tree_val@U?$_Tree_simple_types@U?$pair@$$CBVshared_str@@V?$resptr_core@VCTexture@@Uresptrcode_texture@@@@@std@@@std@@@std@@SAAADPAU?$_Tree_node@U?$pair@$$CBVshared_str@@V?$resptr_core@VCTexture@@Uresptrcode_texture@@@@@std@@PAX@2@@Z 100022a0 f i ColorMapManager.obj
 0001:000012b0       ?_Max@?$_Tree_val@U?$_Tree_simple_types@U?$pair@$$CBVshared_str@@V?$resptr_core@VCTexture@@Uresptrcode_texture@@@@@std@@@std@@@std@@SAPAU?$_Tree_node@U?$pair@$$CBVshared_str@@V?$resptr_core@VCTexture@@Uresptrcode_texture@@@@@std@@PAX@2@PAU32@@Z 100022b0 f i ColorMapManager.obj
 0001:000012d0       ?_Min@?$_Tree_val@U?$_Tree_simple_types@U?$pair@$$CBVshared_str@@V?$resptr_core@VCTexture@@Uresptrcode_texture@@@@@std@@@std@@@std@@SAPAU?$_Tree_node@U?$pair@$$CBVshared_str@@V?$resptr_core@VCTexture@@Uresptrcode_texture@@@@@std@@PAX@2@PAU32@@Z 100022d0 f i ColorMapManager.obj
 0001:000012f0       ??E?$_Tree_const_iterator@V?$_Tree_val@U?$_Tree_simple_types@U?$pair@$$CBVshared_str@@V?$resptr_core@VCTexture@@Uresptrcode_texture@@@@@std@@@std@@@std@@@std@@QAEAAV01@XZ 100022f0 f i ColorMapManager.obj
 0001:00001300       ?_Buyheadnode@?$_Tree_alloc@$0A@U?$_Tree_base_types@U?$pair@$$CBVshared_str@@V?$resptr_core@VCTexture@@Uresptrcode_texture@@@@@std@@V?$xalloc@U?$pair@Vshared_str@@V?$resptr_core@VCTexture@@Uresptrcode_texture@@@@@std@@@@@std@@@std@@QAEPAU?$_Tree_node@U?$pair@$$CBVshared_str@@V?$resptr_core@VCTexture@@Uresptrcode_texture@@@@@std@@PAX@2@XZ 10002300 f i ColorMapManager.obj
 0001:00001390       ??0?$xalloc@U?$_Tree_node@U?$pair@$$CBVshared_str@@V?$resptr_core@VCTexture@@Uresptrcode_texture@@@@@std@@PAX@std@@@@QAE@XZ 10002390 f i ColorMapManager.obj
 0001:000013a0       ??0?$_Tree_val@U?$_Tree_simple_types@U?$pair@$$CBVshared_str@@V?$resptr_core@VCTexture@@Uresptrcode_texture@@@@@std@@@std@@@std@@QAE@XZ 100023a0 f i ColorMapManager.obj
 0001:000013b0       ??E?$_Tree_unchecked_const_iterator@V?$_Tree_val@U?$_Tree_simple_types@U?$pair@$$CBVshared_str@@V?$resptr_core@VCTexture@@Uresptrcode_texture@@@@@std@@@std@@@std@@U_Iterator_base0@2@@std@@QAEAAV01@XZ 100023b0 f i ColorMapManager.obj
 0001:00001400       ?allocate@?$_Wrap_alloc@V?$xalloc@U?$_Tree_node@U?$pair@$$CBVshared_str@@V?$resptr_core@VCTexture@@Uresptrcode_texture@@@@@std@@PAX@std@@@@@std@@QAEPAU?$_Tree_node@U?$pair@$$CBVshared_str@@V?$resptr_core@VCTexture@@Uresptrcode_texture@@@@@std@@PAX@2@I@Z 10002400 f i ColorMapManager.obj
 0001:00001420       ?allocate@?$xalloc@U?$_Tree_node@U?$pair@$$CBVshared_str@@V?$resptr_core@VCTexture@@Uresptrcode_texture@@@@@std@@PAX@std@@@@QBEPAU?$_Tree_node@U?$pair@$$CBVshared_str@@V?$resptr_core@VCTexture@@Uresptrcode_texture@@@@@std@@PAX@std@@IPBX@Z 10002420 f i ColorMapManager.obj
 0001:00001440       ??$mk_pair@Vshared_str@@V?$resptr_core@VCTexture@@Uresptrcode_texture@@@@@@YA?AU?$pair@Vshared_str@@V?$resptr_core@VCTexture@@Uresptrcode_texture@@@@@std@@Vshared_str@@V?$resptr_core@VCTexture@@Uresptrcode_texture@@@@@Z 10002440 f i ColorMapManager.obj
 0001:000014b0       ??$insert@U?$pair@Vshared_str@@V?$resptr_core@VCTexture@@Uresptrcode_texture@@@@@std@@@?$_Tree@V?$_Tmap_traits@Vshared_str@@V?$resptr_core@VCTexture@@Uresptrcode_texture@@@@Ustr_pred@ColorMapManager@@V?$xalloc@U?$pair@Vshared_str@@V?$resptr_core@VCTexture@@Uresptrcode_texture@@@@@std@@@@$0A@@std@@@std@@QAE?AU?$pair@V?$_Tree_iterator@V?$_Tree_val@U?$_Tree_simple_types@U?$pair@$$CBVshared_str@@V?$resptr_core@VCTexture@@Uresptrcode_texture@@@@@std@@@std@@@std@@@std@@_N@1@$$QAU?$pair@Vshared_str@@V?$resptr_core@VCTexture@@Uresptrcode_texture@@@@@1@@Z 100024b0 f i ColorMapManager.obj
 0001:000014e0       ??$addressof@U?$pair@$$CBVshared_str@@V?$resptr_core@VCTexture@@Uresptrcode_texture@@@@@std@@@std@@YAPAU?$pair@$$CBVshared_str@@V?$resptr_core@VCTexture@@Uresptrcode_texture@@@@@0@AAU10@@Z 100024e0 f i ColorMapManager.obj
 0001:000014f0       ??$_Kfn@$$CBVshared_str@@V?$resptr_core@VCTexture@@Uresptrcode_texture@@@@@?$_Tmap_traits@Vshared_str@@V?$resptr_core@VCTexture@@Uresptrcode_texture@@@@Ustr_pred@ColorMapManager@@V?$xalloc@U?$pair@Vshared_str@@V?$resptr_core@VCTexture@@Uresptrcode_texture@@@@@std@@@@$0A@@std@@SAABVshared_str@@ABU?$pair@$$CBVshared_str@@V?$resptr_core@VCTexture@@Uresptrcode_texture@@@@@1@@Z 100024f0 f i ColorMapManager.obj
 0001:00001500       ??$addressof@PAU?$_Tree_node@U?$pair@$$CBVshared_str@@V?$resptr_core@VCTexture@@Uresptrcode_texture@@@@@std@@PAX@std@@@std@@YAPAPAU?$_Tree_node@U?$pair@$$CBVshared_str@@V?$resptr_core@VCTexture@@Uresptrcode_texture@@@@@std@@PAX@0@AAPAU10@@Z 10002500 f i ColorMapManager.obj
 0001:00001510       ??$destroy@PAU?$_Tree_node@U?$pair@$$CBVshared_str@@V?$resptr_core@VCTexture@@Uresptrcode_texture@@@@@std@@PAX@std@@@?$_Wrap_alloc@V?$xalloc@U?$_Tree_node@U?$pair@$$CBVshared_str@@V?$resptr_core@VCTexture@@Uresptrcode_texture@@@@@std@@PAX@std@@@@@std@@QAEXPAPAU?$_Tree_node@U?$pair@$$CBVshared_str@@V?$resptr_core@VCTexture@@Uresptrcode_texture@@@@@std@@PAX@1@@Z 10002510 f i ColorMapManager.obj
 0001:00001520       ??$destroy@U?$pair@$$CBVshared_str@@V?$resptr_core@VCTexture@@Uresptrcode_texture@@@@@std@@@?$_Wrap_alloc@V?$xalloc@U?$_Tree_node@U?$pair@$$CBVshared_str@@V?$resptr_core@VCTexture@@Uresptrcode_texture@@@@@std@@PAX@std@@@@@std@@QAEXPAU?$pair@$$CBVshared_str@@V?$resptr_core@VCTexture@@Uresptrcode_texture@@@@@1@@Z 10002520 f i ColorMapManager.obj
 0001:00001550       ??$xr_free@U?$_Tree_node@U?$pair@$$CBVshared_str@@V?$resptr_core@VCTexture@@Uresptrcode_texture@@@@@std@@PAX@std@@@@YAXAAPAU?$_Tree_node@U?$pair@$$CBVshared_str@@V?$resptr_core@VCTexture@@Uresptrcode_texture@@@@@std@@PAX@std@@@Z 10002550 f i ColorMapManager.obj
 0001:00001570       ??$construct@PAU?$_Tree_node@U?$pair@$$CBVshared_str@@V?$resptr_core@VCTexture@@Uresptrcode_texture@@@@@std@@PAX@std@@AAPAU12@@?$_Wrap_alloc@V?$xalloc@U?$_Tree_node@U?$pair@$$CBVshared_str@@V?$resptr_core@VCTexture@@Uresptrcode_texture@@@@@std@@PAX@std@@@@@std@@QAEXPAPAU?$_Tree_node@U?$pair@$$CBVshared_str@@V?$resptr_core@VCTexture@@Uresptrcode_texture@@@@@std@@PAX@1@AAPAU21@@Z 10002570 f i ColorMapManager.obj
 0001:00001590       ??$xr_alloc@U?$_Tree_node@U?$pair@$$CBVshared_str@@V?$resptr_core@VCTexture@@Uresptrcode_texture@@@@@std@@PAX@std@@@@YAPAU?$_Tree_node@U?$pair@$$CBVshared_str@@V?$resptr_core@VCTexture@@Uresptrcode_texture@@@@@std@@PAX@std@@I@Z 10002590 f i ColorMapManager.obj
 0001:000015a0       ??$?0AAVshared_str@@AAV?$resptr_core@VCTexture@@Uresptrcode_texture@@@@X@?$pair@Vshared_str@@V?$resptr_core@VCTexture@@Uresptrcode_texture@@@@@std@@QAE@AAVshared_str@@AAV?$resptr_core@VCTexture@@Uresptrcode_texture@@@@@Z 100025a0 f i ColorMapManager.obj
 0001:000015e0       ??$forward@U?$pair@Vshared_str@@V?$resptr_core@VCTexture@@Uresptrcode_texture@@@@@std@@@std@@YA$$QAU?$pair@Vshared_str@@V?$resptr_core@VCTexture@@Uresptrcode_texture@@@@@0@AAU10@@Z 100025e0 f i ColorMapManager.obj
 0001:000015f0       ??$_Buynode@U?$pair@Vshared_str@@V?$resptr_core@VCTexture@@Uresptrcode_texture@@@@@std@@@?$_Tree_buy@U?$pair@$$CBVshared_str@@V?$resptr_core@VCTexture@@Uresptrcode_texture@@@@@std@@V?$xalloc@U?$pair@Vshared_str@@V?$resptr_core@VCTexture@@Uresptrcode_texture@@@@@std@@@@@std@@QAEPAU?$_Tree_node@U?$pair@$$CBVshared_str@@V?$resptr_core@VCTexture@@Uresptrcode_texture@@@@@std@@PAX@1@$$QAU?$pair@Vshared_str@@V?$resptr_core@VCTexture@@Uresptrcode_texture@@@@@1@@Z 100025f0 f i ColorMapManager.obj
 0001:00001670       ??$_Insert_nohint@AAU?$pair@$$CBVshared_str@@V?$resptr_core@VCTexture@@Uresptrcode_texture@@@@@std@@PAU?$_Tree_node@U?$pair@$$CBVshared_str@@V?$resptr_core@VCTexture@@Uresptrcode_texture@@@@@std@@PAX@2@@?$_Tree@V?$_Tmap_traits@Vshared_str@@V?$resptr_core@VCTexture@@Uresptrcode_texture@@@@Ustr_pred@ColorMapManager@@V?$xalloc@U?$pair@Vshared_str@@V?$resptr_core@VCTexture@@Uresptrcode_texture@@@@@std@@@@$0A@@std@@@std@@IAE?AU?$pair@V?$_Tree_iterator@V?$_Tree_val@U?$_Tree_simple_types@U?$pair@$$CBVshared_str@@V?$resptr_core@VCTexture@@Uresptrcode_texture@@@@@std@@@std@@@std@@@std@@_N@1@_NAAU?$pair@$$CBVshared_str@@V?$resptr_core@VCTexture@@Uresptrcode_texture@@@@@1@PAU?$_Tree_node@U?$pair@$$CBVshared_str@@V?$resptr_core@VCTexture@@Uresptrcode_texture@@@@@std@@PAX@1@@Z 10002670 f i ColorMapManager.obj
 0001:00001780       ??$destroy@PAU?$_Tree_node@U?$pair@$$CBVshared_str@@V?$resptr_core@VCTexture@@Uresptrcode_texture@@@@@std@@PAX@std@@@?$allocator_traits@V?$xalloc@U?$_Tree_node@U?$pair@$$CBVshared_str@@V?$resptr_core@VCTexture@@Uresptrcode_texture@@@@@std@@PAX@std@@@@@std@@SAXAAV?$xalloc@U?$_Tree_node@U?$pair@$$CBVshared_str@@V?$resptr_core@VCTexture@@Uresptrcode_texture@@@@@std@@PAX@std@@@@PAPAU?$_Tree_node@U?$pair@$$CBVshared_str@@V?$resptr_core@VCTexture@@Uresptrcode_texture@@@@@std@@PAX@1@@Z 10002780 f i ColorMapManager.obj
 0001:00001790       ??$destroy@U?$pair@$$CBVshared_str@@V?$resptr_core@VCTexture@@Uresptrcode_texture@@@@@std@@@?$allocator_traits@V?$xalloc@U?$_Tree_node@U?$pair@$$CBVshared_str@@V?$resptr_core@VCTexture@@Uresptrcode_texture@@@@@std@@PAX@std@@@@@std@@SAXAAV?$xalloc@U?$_Tree_node@U?$pair@$$CBVshared_str@@V?$resptr_core@VCTexture@@Uresptrcode_texture@@@@@std@@PAX@std@@@@PAU?$pair@$$CBVshared_str@@V?$resptr_core@VCTexture@@Uresptrcode_texture@@@@@1@@Z 10002790 f i ColorMapManager.obj
 0001:000017c0       ??$forward@AAPAU?$_Tree_node@U?$pair@$$CBVshared_str@@V?$resptr_core@VCTexture@@Uresptrcode_texture@@@@@std@@PAX@std@@@std@@YAAAPAU?$_Tree_node@U?$pair@$$CBVshared_str@@V?$resptr_core@VCTexture@@Uresptrcode_texture@@@@@std@@PAX@0@AAPAU10@@Z 100027c0 f i ColorMapManager.obj
 0001:000017d0       ??$construct@PAU?$_Tree_node@U?$pair@$$CBVshared_str@@V?$resptr_core@VCTexture@@Uresptrcode_texture@@@@@std@@PAX@std@@AAPAU12@@?$allocator_traits@V?$xalloc@U?$_Tree_node@U?$pair@$$CBVshared_str@@V?$resptr_core@VCTexture@@Uresptrcode_texture@@@@@std@@PAX@std@@@@@std@@SAXAAV?$xalloc@U?$_Tree_node@U?$pair@$$CBVshared_str@@V?$resptr_core@VCTexture@@Uresptrcode_texture@@@@@std@@PAX@std@@@@PAPAU?$_Tree_node@U?$pair@$$CBVshared_str@@V?$resptr_core@VCTexture@@Uresptrcode_texture@@@@@std@@PAX@1@AAPAU31@@Z 100027d0 f i ColorMapManager.obj
 0001:000017e0       ?_Destroy_if_not_nil@?$_Tree@V?$_Tmap_traits@Vshared_str@@V?$resptr_core@VCTexture@@Uresptrcode_texture@@@@Ustr_pred@ColorMapManager@@V?$xalloc@U?$pair@Vshared_str@@V?$resptr_core@VCTexture@@Uresptrcode_texture@@@@@std@@@@$0A@@std@@@std@@IAEXPAU?$_Tree_node@U?$pair@$$CBVshared_str@@V?$resptr_core@VCTexture@@Uresptrcode_texture@@@@@std@@PAX@2@@Z 100027e0 f i ColorMapManager.obj
 0001:00001820       ?_Buynode0@?$_Tree_buy@U?$pair@$$CBVshared_str@@V?$resptr_core@VCTexture@@Uresptrcode_texture@@@@@std@@V?$xalloc@U?$pair@Vshared_str@@V?$resptr_core@VCTexture@@Uresptrcode_texture@@@@@std@@@@@std@@QAEPAU?$_Tree_node@U?$pair@$$CBVshared_str@@V?$resptr_core@VCTexture@@Uresptrcode_texture@@@@@std@@PAX@2@XZ 10002820 f i ColorMapManager.obj
 0001:000018c0       ?_Freenode0@?$_Tree_buy@U?$pair@$$CBVshared_str@@V?$resptr_core@VCTexture@@Uresptrcode_texture@@@@@std@@V?$xalloc@U?$pair@Vshared_str@@V?$resptr_core@VCTexture@@Uresptrcode_texture@@@@@std@@@@@std@@QAEXPAU?$_Tree_node@U?$pair@$$CBVshared_str@@V?$resptr_core@VCTexture@@Uresptrcode_texture@@@@@std@@PAX@2@@Z 100028c0 f i ColorMapManager.obj
 0001:000018e0       ??F?$_Tree_iterator@V?$_Tree_val@U?$_Tree_simple_types@U?$pair@$$CBVshared_str@@V?$resptr_core@VCTexture@@Uresptrcode_texture@@@@@std@@@std@@@std@@@std@@QAEAAV01@XZ 100028e0 f i ColorMapManager.obj
 0001:000018f0       ??F?$_Tree_const_iterator@V?$_Tree_val@U?$_Tree_simple_types@U?$pair@$$CBVshared_str@@V?$resptr_core@VCTexture@@Uresptrcode_texture@@@@@std@@@std@@@std@@@std@@QAEAAV01@XZ 100028f0 f i ColorMapManager.obj
 0001:00001900       ??F?$_Tree_unchecked_const_iterator@V?$_Tree_val@U?$_Tree_simple_types@U?$pair@$$CBVshared_str@@V?$resptr_core@VCTexture@@Uresptrcode_texture@@@@@std@@@std@@@std@@U_Iterator_base0@2@@std@@QAEAAV01@XZ 10002900 f i ColorMapManager.obj
 0001:00001960       ??$forward@AAV?$resptr_core@VCTexture@@Uresptrcode_texture@@@@@std@@YAAAV?$resptr_core@VCTexture@@Uresptrcode_texture@@@@AAV1@@Z 10002960 f i ColorMapManager.obj
 0001:00001970       ??$construct@U?$pair@$$CBVshared_str@@V?$resptr_core@VCTexture@@Uresptrcode_texture@@@@@std@@U?$pair@Vshared_str@@V?$resptr_core@VCTexture@@Uresptrcode_texture@@@@@2@@?$_Wrap_alloc@V?$xalloc@U?$_Tree_node@U?$pair@$$CBVshared_str@@V?$resptr_core@VCTexture@@Uresptrcode_texture@@@@@std@@PAX@std@@@@@std@@QAEXPAU?$pair@$$CBVshared_str@@V?$resptr_core@VCTexture@@Uresptrcode_texture@@@@@1@$$QAU?$pair@Vshared_str@@V?$resptr_core@VCTexture@@Uresptrcode_texture@@@@@1@@Z 10002970 f i ColorMapManager.obj
 0001:000019c0       ??$forward@AAU?$pair@$$CBVshared_str@@V?$resptr_core@VCTexture@@Uresptrcode_texture@@@@@std@@@std@@YAAAU?$pair@$$CBVshared_str@@V?$resptr_core@VCTexture@@Uresptrcode_texture@@@@@0@AAU10@@Z 100029c0 f i ColorMapManager.obj
 0001:000019d0       ??$_Insert_at@AAU?$pair@$$CBVshared_str@@V?$resptr_core@VCTexture@@Uresptrcode_texture@@@@@std@@PAU?$_Tree_node@U?$pair@$$CBVshared_str@@V?$resptr_core@VCTexture@@Uresptrcode_texture@@@@@std@@PAX@2@@?$_Tree@V?$_Tmap_traits@Vshared_str@@V?$resptr_core@VCTexture@@Uresptrcode_texture@@@@Ustr_pred@ColorMapManager@@V?$xalloc@U?$pair@Vshared_str@@V?$resptr_core@VCTexture@@Uresptrcode_texture@@@@@std@@@@$0A@@std@@@std@@IAE?AV?$_Tree_iterator@V?$_Tree_val@U?$_Tree_simple_types@U?$pair@$$CBVshared_str@@V?$resptr_core@VCTexture@@Uresptrcode_texture@@@@@std@@@std@@@std@@@1@_NPAU?$_Tree_node@U?$pair@$$CBVshared_str@@V?$resptr_core@VCTexture@@Uresptrcode_texture@@@@@std@@PAX@1@AAU?$pair@$$CBVshared_str@@V?$resptr_core@VCTexture@@Uresptrcode_texture@@@@@1@1@Z 100029d0 f i ColorMapManager.obj
 0001:00001c10       ??$?0V?$_Tree_iterator@V?$_Tree_val@U?$_Tree_simple_types@U?$pair@$$CBVshared_str@@V?$resptr_core@VCTexture@@Uresptrcode_texture@@@@@std@@@std@@@std@@@std@@_NX@?$pair@V?$_Tree_iterator@V?$_Tree_val@U?$_Tree_simple_types@U?$pair@$$CBVshared_str@@V?$resptr_core@VCTexture@@Uresptrcode_texture@@@@@std@@@std@@@std@@@std@@_N@std@@QAE@$$QAV?$_Tree_iterator@V?$_Tree_val@U?$_Tree_simple_types@U?$pair@$$CBVshared_str@@V?$resptr_core@VCTexture@@Uresptrcode_texture@@@@@std@@@std@@@std@@@1@$$QA_N@Z 10002c10 f i ColorMapManager.obj
 0001:00001c30       ??$?0AAV?$_Tree_iterator@V?$_Tree_val@U?$_Tree_simple_types@U?$pair@$$CBVshared_str@@V?$resptr_core@VCTexture@@Uresptrcode_texture@@@@@std@@@std@@@std@@@std@@_NX@?$pair@V?$_Tree_iterator@V?$_Tree_val@U?$_Tree_simple_types@U?$pair@$$CBVshared_str@@V?$resptr_core@VCTexture@@Uresptrcode_texture@@@@@std@@@std@@@std@@@std@@_N@std@@QAE@AAV?$_Tree_iterator@V?$_Tree_val@U?$_Tree_simple_types@U?$pair@$$CBVshared_str@@V?$resptr_core@VCTexture@@Uresptrcode_texture@@@@@std@@@std@@@std@@@1@$$QA_N@Z 10002c30 f i ColorMapManager.obj
 0001:00001c50       ??$_Fn@V?$xalloc@U?$_Tree_node@U?$pair@$$CBVshared_str@@V?$resptr_core@VCTexture@@Uresptrcode_texture@@@@@std@@PAX@std@@@@PAU?$_Tree_node@U?$pair@$$CBVshared_str@@V?$resptr_core@VCTexture@@Uresptrcode_texture@@@@@std@@PAX@std@@@_Alloc_destroy@std@@SAXU_Wrap_int@1@AAV?$xalloc@U?$_Tree_node@U?$pair@$$CBVshared_str@@V?$resptr_core@VCTexture@@Uresptrcode_texture@@@@@std@@PAX@std@@@@PAPAU?$_Tree_node@U?$pair@$$CBVshared_str@@V?$resptr_core@VCTexture@@Uresptrcode_texture@@@@@std@@PAX@1@@Z 10002c50 f i ColorMapManager.obj
 0001:00001c60       ??$_Fn@V?$xalloc@U?$_Tree_node@U?$pair@$$CBVshared_str@@V?$resptr_core@VCTexture@@Uresptrcode_texture@@@@@std@@PAX@std@@@@U?$pair@$$CBVshared_str@@V?$resptr_core@VCTexture@@Uresptrcode_texture@@@@@std@@@_Alloc_destroy@std@@SAXU_Wrap_int@1@AAV?$xalloc@U?$_Tree_node@U?$pair@$$CBVshared_str@@V?$resptr_core@VCTexture@@Uresptrcode_texture@@@@@std@@PAX@std@@@@PAU?$pair@$$CBVshared_str@@V?$resptr_core@VCTexture@@Uresptrcode_texture@@@@@1@@Z 10002c60 f i ColorMapManager.obj
 0001:00001c90       ??$_Fn@V?$xalloc@U?$_Tree_node@U?$pair@$$CBVshared_str@@V?$resptr_core@VCTexture@@Uresptrcode_texture@@@@@std@@PAX@std@@@@PAU?$_Tree_node@U?$pair@$$CBVshared_str@@V?$resptr_core@VCTexture@@Uresptrcode_texture@@@@@std@@PAX@std@@AAPAU23@@_Alloc_construct@std@@SAXU_Wrap_int@1@AAV?$xalloc@U?$_Tree_node@U?$pair@$$CBVshared_str@@V?$resptr_core@VCTexture@@Uresptrcode_texture@@@@@std@@PAX@std@@@@PAPAU?$_Tree_node@U?$pair@$$CBVshared_str@@V?$resptr_core@VCTexture@@Uresptrcode_texture@@@@@std@@PAX@1@AAPAU41@@Z 10002c90 f i ColorMapManager.obj
 0001:00001ca0       ??_G?$pair@$$CBVshared_str@@V?$resptr_core@VCTexture@@Uresptrcode_texture@@@@@std@@QAEPAXI@Z 10002ca0 f i ColorMapManager.obj
 0001:00001cd0       ??1?$pair@$$CBVshared_str@@V?$resptr_core@VCTexture@@Uresptrcode_texture@@@@@std@@QAE@XZ 10002cd0 f i ColorMapManager.obj
 0001:00001d00       ?max_size@?$_Tree@V?$_Tmap_traits@Vshared_str@@V?$resptr_core@VCTexture@@Uresptrcode_texture@@@@Ustr_pred@ColorMapManager@@V?$xalloc@U?$pair@Vshared_str@@V?$resptr_core@VCTexture@@Uresptrcode_texture@@@@@std@@@@$0A@@std@@@std@@QBEIXZ 10002d00 f i ColorMapManager.obj
 0001:00001d10       ?max_size@?$_Wrap_alloc@V?$xalloc@U?$_Tree_node@U?$pair@$$CBVshared_str@@V?$resptr_core@VCTexture@@Uresptrcode_texture@@@@@std@@PAX@std@@@@@std@@QBEIXZ 10002d10 f i ColorMapManager.obj
 0001:00001d20       ?max_size@?$allocator_traits@V?$xalloc@U?$_Tree_node@U?$pair@$$CBVshared_str@@V?$resptr_core@VCTexture@@Uresptrcode_texture@@@@@std@@PAX@std@@@@@std@@SAIABV?$xalloc@U?$_Tree_node@U?$pair@$$CBVshared_str@@V?$resptr_core@VCTexture@@Uresptrcode_texture@@@@@std@@PAX@std@@@@@Z 10002d20 f i ColorMapManager.obj
 0001:00001d30       ??$construct@U?$pair@$$CBVshared_str@@V?$resptr_core@VCTexture@@Uresptrcode_texture@@@@@std@@U?$pair@Vshared_str@@V?$resptr_core@VCTexture@@Uresptrcode_texture@@@@@2@@?$allocator_traits@V?$xalloc@U?$_Tree_node@U?$pair@$$CBVshared_str@@V?$resptr_core@VCTexture@@Uresptrcode_texture@@@@@std@@PAX@std@@@@@std@@SAXAAV?$xalloc@U?$_Tree_node@U?$pair@$$CBVshared_str@@V?$resptr_core@VCTexture@@Uresptrcode_texture@@@@@std@@PAX@std@@@@PAU?$pair@$$CBVshared_str@@V?$resptr_core@VCTexture@@Uresptrcode_texture@@@@@1@$$QAU?$pair@Vshared_str@@V?$resptr_core@VCTexture@@Uresptrcode_texture@@@@@1@@Z 10002d30 f i ColorMapManager.obj
 0001:00001d70       ??$_Buynode_if_nil@AAU?$pair@$$CBVshared_str@@V?$resptr_core@VCTexture@@Uresptrcode_texture@@@@@std@@@?$_Tree@V?$_Tmap_traits@Vshared_str@@V?$resptr_core@VCTexture@@Uresptrcode_texture@@@@Ustr_pred@ColorMapManager@@V?$xalloc@U?$pair@Vshared_str@@V?$resptr_core@VCTexture@@Uresptrcode_texture@@@@@std@@@@$0A@@std@@@std@@IAEPAU?$_Tree_node@U?$pair@$$CBVshared_str@@V?$resptr_core@VCTexture@@Uresptrcode_texture@@@@@std@@PAX@1@PAU21@AAU?$pair@$$CBVshared_str@@V?$resptr_core@VCTexture@@Uresptrcode_texture@@@@@1@@Z 10002d70 f i ColorMapManager.obj
 0001:00001d80       ??$forward@V?$_Tree_iterator@V?$_Tree_val@U?$_Tree_simple_types@U?$pair@$$CBVshared_str@@V?$resptr_core@VCTexture@@Uresptrcode_texture@@@@@std@@@std@@@std@@@std@@@std@@YA$$QAV?$_Tree_iterator@V?$_Tree_val@U?$_Tree_simple_types@U?$pair@$$CBVshared_str@@V?$resptr_core@VCTexture@@Uresptrcode_texture@@@@@std@@@std@@@std@@@0@AAV10@@Z 10002d80 f i ColorMapManager.obj
 0001:00001d90       ??$forward@_N@std@@YA$$QA_NAA_N@Z 10002d90 f i ColorMapManager.obj
 0001:00001da0       ??$forward@AAV?$_Tree_iterator@V?$_Tree_val@U?$_Tree_simple_types@U?$pair@$$CBVshared_str@@V?$resptr_core@VCTexture@@Uresptrcode_texture@@@@@std@@@std@@@std@@@std@@@std@@YAAAV?$_Tree_iterator@V?$_Tree_val@U?$_Tree_simple_types@U?$pair@$$CBVshared_str@@V?$resptr_core@VCTexture@@Uresptrcode_texture@@@@@std@@@std@@@std@@@0@AAV10@@Z 10002da0 f i ColorMapManager.obj
 0001:00001db0       ??$_Fn@V?$xalloc@U?$_Tree_node@U?$pair@$$CBVshared_str@@V?$resptr_core@VCTexture@@Uresptrcode_texture@@@@@std@@PAX@std@@@@@_Alloc_max_size@std@@SAIHABV?$xalloc@U?$_Tree_node@U?$pair@$$CBVshared_str@@V?$resptr_core@VCTexture@@Uresptrcode_texture@@@@@std@@PAX@std@@@@@Z 10002db0 f i ColorMapManager.obj
 0001:00001dc0       ?max_size@?$xalloc@U?$_Tree_node@U?$pair@$$CBVshared_str@@V?$resptr_core@VCTexture@@Uresptrcode_texture@@@@@std@@PAX@std@@@@QBEIXZ 10002dc0 f i ColorMapManager.obj
 0001:00001dd0       ??$_Fn@V?$xalloc@U?$_Tree_node@U?$pair@$$CBVshared_str@@V?$resptr_core@VCTexture@@Uresptrcode_texture@@@@@std@@PAX@std@@@@U?$pair@$$CBVshared_str@@V?$resptr_core@VCTexture@@Uresptrcode_texture@@@@@std@@U?$pair@Vshared_str@@V?$resptr_core@VCTexture@@Uresptrcode_texture@@@@@3@@_Alloc_construct@std@@SAXU_Wrap_int@1@AAV?$xalloc@U?$_Tree_node@U?$pair@$$CBVshared_str@@V?$resptr_core@VCTexture@@Uresptrcode_texture@@@@@std@@PAX@std@@@@PAU?$pair@$$CBVshared_str@@V?$resptr_core@VCTexture@@Uresptrcode_texture@@@@@1@$$QAU?$pair@Vshared_str@@V?$resptr_core@VCTexture@@Uresptrcode_texture@@@@@1@@Z 10002dd0 f i ColorMapManager.obj
 0001:00001e10       ??$?0Vshared_str@@V?$resptr_core@VCTexture@@Uresptrcode_texture@@@@X@?$pair@$$CBVshared_str@@V?$resptr_core@VCTexture@@Uresptrcode_texture@@@@@std@@QAE@$$QAU?$pair@Vshared_str@@V?$resptr_core@VCTexture@@Uresptrcode_texture@@@@@1@@Z 10002e10 f i ColorMapManager.obj
 0001:00001e50       ??$forward@Vshared_str@@@std@@YA$$QAVshared_str@@AAV1@@Z 10002e50 f i ColorMapManager.obj
 0001:00001e60       ??$forward@V?$resptr_core@VCTexture@@Uresptrcode_texture@@@@@std@@YA$$QAV?$resptr_core@VCTexture@@Uresptrcode_texture@@@@AAV1@@Z 10002e60 f i ColorMapManager.obj
 0001:00001e70       ??$xr_free@X@@YAXAAPAX@Z   10002e70 f i ColorMapManager.obj
 0001:00001e90       ??3@YAXPAX@Z               10002e90 f i ColorMapManager.obj
 0001:00001eb0       ??2@YAPAXIPAX@Z            10002eb0 f i ColorMapManager.obj
 0001:00001ec0       ??0_Wrap_int@std@@QAE@H@Z  10002ec0 f i ColorMapManager.obj
 0001:00001ed0       ??$forward@AAVshared_str@@@std@@YAAAVshared_str@@AAV1@@Z 10002ed0 f i ColorMapManager.obj
 0001:00001ee0       ?_Adopt@_Iterator_base0@std@@QAEXPBX@Z 10002ee0 f i ColorMapManager.obj
 0001:00001ef0       ??$_Move@AAD@std@@YA$$QADAAD@Z 10002ef0 f i ColorMapManager.obj
 0001:00001f00       ??$swap@D@std@@YAXAAD0@Z   10002f00 f i ColorMapManager.obj
 0001:00001f10       ??M@YA_NABVshared_str@@0@Z 10002f10 f i ColorMapManager.obj
 0001:00001f20       ??Rstr_pred@ColorMapManager@@QBE_NABVshared_str@@0@Z 10002f20 f i ColorMapManager.obj
 0001:00001f40       ??0shared_str@@QAE@ABV0@@Z 10002f40 f i ColorMapManager.obj
 0001:00001f80       ?c_str@shared_str@@QBEPBDXZ 10002f80 f i ColorMapManager.obj
 0001:00001f90       ?size@shared_str@@QBEIXZ   10002f90 f i ColorMapManager.obj
 0001:00001fa0       ?_set@shared_str@@QAEXABV1@@Z 10002fa0 f i ColorMapManager.obj
 0001:00001fd0       ??4shared_str@@QAEAAV0@ABV0@@Z 10002fd0 f i ColorMapManager.obj
 0001:00002000       ?_get@shared_str@@QBEPBUstr_value@@XZ 10003000 f i ColorMapManager.obj
 0001:00002010       ??8@YA_NABVshared_str@@0@Z 10003010 f i ColorMapManager.obj
 0001:00002020       ??4?$resptr_core@VCTexture@@Uresptrcode_texture@@@@QAEAAV0@ABV0@@Z 10003020 f i ColorMapManager.obj
 0001:00002040       ??0shared_str@@QAE@XZ      10003040 f i ColorMapManager.obj
 0001:00002050       ?_dec@shared_str@@IAEXXZ   10003050 f i ColorMapManager.obj
 0001:00002070       ??1shared_str@@QAE@XZ      10003070 f i ColorMapManager.obj
 0001:00002090       ??_I@YGXPAXIHP6EX0@Z@Z     10003090 f i ColorMapManager.obj
 0001:000020c0       ??_H@YGXPAXIHP6EPAX0@Z@Z   100030c0 f i ColorMapManager.obj
 0001:000020f0       ??1?$resptr_core@VCTexture@@Uresptrcode_texture@@@@QAE@XZ 100030f0 f i ColorMapManager.obj
 0001:00002100       ?Copy@dxUIShader@@UAEXAAVIUIShader@@@Z 10003100 f   dxUIShader.obj
 0001:00002130       ??4dxUIShader@@QAEAAV0@ABV0@@Z 10003130 f i dxUIShader.obj
 0001:00002160       ??4IUIShader@@QAEAAV0@ABV0@@Z 10003160 f i dxUIShader.obj
 0001:00002170       ?create@dxUIShader@@UAEXPBD0@Z 10003170 f   dxUIShader.obj
 0001:00002190       ?destroy@dxUIShader@@UAEXXZ 10003190 f   dxUIShader.obj
 0001:000021b0       ??4?$resptr_core@UShader@@Uresptrcode_shader@@@@QAEAAV0@ABV0@@Z 100031b0 f i dxUIShader.obj
 0001:000021d0       ??1IWallMarkArray@@UAE@XZ  100031d0 f i dxWallMarkArray.obj
 0001:000021e0       ??_GIWallMarkArray@@UAEPAXI@Z 100031e0 f i dxWallMarkArray.obj
 0001:000021e0       ??_EIWallMarkArray@@UAEPAXI@Z 100031e0 f i * CIL library *:* CIL module *
 0001:00002210       ?Copy@dxWallMarkArray@@UAEXAAVIWallMarkArray@@@Z 10003210 f   dxWallMarkArray.obj
 0001:00002220       ??4dxWallMarkArray@@QAEAAV0@ABV0@@Z 10003220 f i dxWallMarkArray.obj
 0001:00002240       ??4IWallMarkArray@@QAEAAV0@ABV0@@Z 10003240 f i dxWallMarkArray.obj
 0001:00002250       ??4?$xr_vector@V?$resptr_core@UShader@@Uresptrcode_shader@@@@V?$xalloc@V?$resptr_core@UShader@@Uresptrcode_shader@@@@@@@@QAEAAV0@ABV0@@Z 10003250 f i dxWallMarkArray.obj
 0001:00002270       ??1dxWallMarkArray@@UAE@XZ 10003270 f   dxWallMarkArray.obj
 0001:000022f0       ??_EdxWallMarkArray@@UAEPAXI@Z 100032f0 f i * CIL library *:* CIL module *
 0001:000022f0       ??_GdxWallMarkArray@@UAEPAXI@Z 100032f0 f i dxWallMarkArray.obj
 0001:00002320       ??1?$xr_vector@V?$resptr_core@UShader@@Uresptrcode_shader@@@@V?$xalloc@V?$resptr_core@UShader@@Uresptrcode_shader@@@@@@@@QAE@XZ 10003320 f i dxWallMarkArray.obj
 0001:00002330       ?AppendMark@dxWallMarkArray@@UAEXPBD@Z 10003330 f   dxWallMarkArray.obj
 0001:00002370       ?clear@dxWallMarkArray@@UAEXXZ 10003370 f   dxWallMarkArray.obj
 0001:000023b0       ?empty@dxWallMarkArray@@UAE_NXZ 100033b0 f   dxWallMarkArray.obj
 0001:000023c0       ?GenerateWallmark@dxWallMarkArray@@UAE?AV?$FactoryPtr@VIUIShader@@@@XZ 100033c0 f   dxWallMarkArray.obj
 0001:00002420       ?dxGenerateWallmark@dxWallMarkArray@@QAEPAV?$resptr_core@UShader@@Uresptrcode_shader@@@@XZ 10003420 f   dxWallMarkArray.obj
 0001:00002450       ??0?$FactoryPtr@VIUIShader@@@@QAE@XZ 10003450 f i dxWallMarkArray.obj
 0001:00002470       ??1?$FactoryPtr@VIUIShader@@@@QAE@XZ 10003470 f i dxWallMarkArray.obj
 0001:00002490       ??0?$FactoryPtr@VIUIShader@@@@QAE@ABV0@@Z 10003490 f i dxWallMarkArray.obj
 0001:000024c0       ??D?$FactoryPtr@VIUIShader@@@@QBEAAVIUIShader@@XZ 100034c0 f i dxWallMarkArray.obj
 0001:000024d0       ?size@?$xr_vector@V?$resptr_core@UShader@@Uresptrcode_shader@@@@V?$xalloc@V?$resptr_core@UShader@@Uresptrcode_shader@@@@@@@@QBEIXZ 100034d0 f i dxWallMarkArray.obj
 0001:000024e0       ?clear@?$xr_vector@V?$resptr_core@UShader@@Uresptrcode_shader@@@@V?$xalloc@V?$resptr_core@UShader@@Uresptrcode_shader@@@@@@@@QAEXXZ 100034e0 f i dxWallMarkArray.obj
 0001:00002520       ??A?$xr_vector@V?$resptr_core@UShader@@Uresptrcode_shader@@@@V?$xalloc@V?$resptr_core@UShader@@Uresptrcode_shader@@@@@@@@QAEAAV?$resptr_core@UShader@@Uresptrcode_shader@@@@I@Z 10003520 f i dxWallMarkArray.obj
 0001:00002530       ??1?$vector@V?$resptr_core@UShader@@Uresptrcode_shader@@@@V?$xalloc@V?$resptr_core@UShader@@Uresptrcode_shader@@@@@@@std@@QAE@XZ 10003530 f i dxWallMarkArray.obj
 0001:00002540       ??4?$vector@V?$resptr_core@UShader@@Uresptrcode_shader@@@@V?$xalloc@V?$resptr_core@UShader@@Uresptrcode_shader@@@@@@@std@@QAEAAV01@ABV01@@Z 10003540 f i dxWallMarkArray.obj
 0001:00002690       ?begin@?$vector@V?$resptr_core@UShader@@Uresptrcode_shader@@@@V?$xalloc@V?$resptr_core@UShader@@Uresptrcode_shader@@@@@@@std@@QAE?AV?$_Vector_iterator@V?$_Vector_val@U?$_Simple_types@V?$resptr_core@UShader@@Uresptrcode_shader@@@@@std@@@std@@@2@XZ 10003690 f i dxWallMarkArray.obj
 0001:000026a0       ?end@?$vector@V?$resptr_core@UShader@@Uresptrcode_shader@@@@V?$xalloc@V?$resptr_core@UShader@@Uresptrcode_shader@@@@@@@std@@QAE?AV?$_Vector_iterator@V?$_Vector_val@U?$_Simple_types@V?$resptr_core@UShader@@Uresptrcode_shader@@@@@std@@@std@@@2@XZ 100036a0 f i dxWallMarkArray.obj
 0001:000026b0       ?empty@?$vector@V?$resptr_core@UShader@@Uresptrcode_shader@@@@V?$xalloc@V?$resptr_core@UShader@@Uresptrcode_shader@@@@@@@std@@QBE_NXZ 100036b0 f i dxWallMarkArray.obj
 0001:000026c0       ?push_back@?$vector@V?$resptr_core@UShader@@Uresptrcode_shader@@@@V?$xalloc@V?$resptr_core@UShader@@Uresptrcode_shader@@@@@@@std@@QAEXABV?$resptr_core@UShader@@Uresptrcode_shader@@@@@Z 100036c0 f i dxWallMarkArray.obj
 0001:00002720       ??C?$_Vector_iterator@V?$_Vector_val@U?$_Simple_types@V?$resptr_core@UShader@@Uresptrcode_shader@@@@@std@@@std@@@std@@QBEPAV?$resptr_core@UShader@@Uresptrcode_shader@@@@XZ 10003720 f i dxWallMarkArray.obj
 0001:00002730       ??E?$_Vector_iterator@V?$_Vector_val@U?$_Simple_types@V?$resptr_core@UShader@@Uresptrcode_shader@@@@@std@@@std@@@std@@QAEAAV01@XZ 10003730 f i dxWallMarkArray.obj
 0001:00002740       ??9?$_Vector_const_iterator@V?$_Vector_val@U?$_Simple_types@V?$resptr_core@UShader@@Uresptrcode_shader@@@@@std@@@std@@@std@@QBE_NABV01@@Z 10003740 f i dxWallMarkArray.obj
 0001:00002750       ?clear_and_free@?$xr_vector@V?$resptr_core@UShader@@Uresptrcode_shader@@@@V?$xalloc@V?$resptr_core@UShader@@Uresptrcode_shader@@@@@@@@QAEXXZ 10003750 f i dxWallMarkArray.obj
 0001:00002790       ?capacity@?$vector@V?$resptr_core@UShader@@Uresptrcode_shader@@@@V?$xalloc@V?$resptr_core@UShader@@Uresptrcode_shader@@@@@@@std@@QBEIXZ 10003790 f i dxWallMarkArray.obj
 0001:000027a0       ?size@?$vector@V?$resptr_core@UShader@@Uresptrcode_shader@@@@V?$xalloc@V?$resptr_core@UShader@@Uresptrcode_shader@@@@@@@std@@QBEIXZ 100037a0 f i dxWallMarkArray.obj
 0001:000027b0       ?clear@?$vector@V?$resptr_core@UShader@@Uresptrcode_shader@@@@V?$xalloc@V?$resptr_core@UShader@@Uresptrcode_shader@@@@@@@std@@QAEXXZ 100037b0 f i dxWallMarkArray.obj
 0001:000027f0       ?_Buy@?$vector@V?$resptr_core@UShader@@Uresptrcode_shader@@@@V?$xalloc@V?$resptr_core@UShader@@Uresptrcode_shader@@@@@@@std@@IAE_NI@Z 100037f0 f i dxWallMarkArray.obj
 0001:00002850       ?_Destroy@?$vector@V?$resptr_core@UShader@@Uresptrcode_shader@@@@V?$xalloc@V?$resptr_core@UShader@@Uresptrcode_shader@@@@@@@std@@IAEXPAV?$resptr_core@UShader@@Uresptrcode_shader@@@@0@Z 10003850 f i dxWallMarkArray.obj
 0001:00002880       ?_Inside@?$vector@V?$resptr_core@UShader@@Uresptrcode_shader@@@@V?$xalloc@V?$resptr_core@UShader@@Uresptrcode_shader@@@@@@@std@@IBE_NPBV?$resptr_core@UShader@@Uresptrcode_shader@@@@@Z 10003880 f i dxWallMarkArray.obj
 0001:000028a0       ?_Reserve@?$vector@V?$resptr_core@UShader@@Uresptrcode_shader@@@@V?$xalloc@V?$resptr_core@UShader@@Uresptrcode_shader@@@@@@@std@@IAEXI@Z 100038a0 f i dxWallMarkArray.obj
 0001:00002920       ?_Tidy@?$vector@V?$resptr_core@UShader@@Uresptrcode_shader@@@@V?$xalloc@V?$resptr_core@UShader@@Uresptrcode_shader@@@@@@@std@@IAEXXZ 10003920 f i dxWallMarkArray.obj
 0001:00002970       ?_Orphan_range@?$vector@V?$resptr_core@UShader@@Uresptrcode_shader@@@@V?$xalloc@V?$resptr_core@UShader@@Uresptrcode_shader@@@@@@@std@@IBEXPAV?$resptr_core@UShader@@Uresptrcode_shader@@@@0@Z 10003970 f i dxWallMarkArray.obj
 0001:00002980       ?_Change_alloc@?$_Vector_alloc@$0A@U?$_Vec_base_types@V?$resptr_core@UShader@@Uresptrcode_shader@@@@V?$xalloc@V?$resptr_core@UShader@@Uresptrcode_shader@@@@@@@std@@@std@@QAEXABU?$_Wrap_alloc@V?$xalloc@V?$resptr_core@UShader@@Uresptrcode_shader@@@@@@@2@@Z 10003980 f i dxWallMarkArray.obj
 0001:00002990       ?_Getal@?$_Vector_alloc@$0A@U?$_Vec_base_types@V?$resptr_core@UShader@@Uresptrcode_shader@@@@V?$xalloc@V?$resptr_core@UShader@@Uresptrcode_shader@@@@@@@std@@@std@@QBE?AU?$_Wrap_alloc@V?$xalloc@V?$resptr_core@UShader@@Uresptrcode_shader@@@@@@@2@XZ 10003990 f i dxWallMarkArray.obj
 0001:000029a0       ?deallocate@?$_Wrap_alloc@V?$xalloc@V?$resptr_core@UShader@@Uresptrcode_shader@@@@@@@std@@QAEXPAV?$resptr_core@UShader@@Uresptrcode_shader@@@@I@Z 100039a0 f i dxWallMarkArray.obj
 0001:000029c0       ?pointer_to@?$pointer_traits@PAV?$resptr_core@UShader@@Uresptrcode_shader@@@@@std@@SAPAV?$resptr_core@UShader@@Uresptrcode_shader@@@@AAV3@@Z 100039c0 f i dxWallMarkArray.obj
 0001:000029d0       ??0?$_Vector_iterator@V?$_Vector_val@U?$_Simple_types@V?$resptr_core@UShader@@Uresptrcode_shader@@@@@std@@@std@@@std@@QAE@PAV?$resptr_core@UShader@@Uresptrcode_shader@@@@PBU_Container_base0@1@@Z 100039d0 f i dxWallMarkArray.obj
 0001:000029e0       ??D?$_Vector_iterator@V?$_Vector_val@U?$_Simple_types@V?$resptr_core@UShader@@Uresptrcode_shader@@@@@std@@@std@@@std@@QBEAAV?$resptr_core@UShader@@Uresptrcode_shader@@@@XZ 100039e0 f i dxWallMarkArray.obj
 0001:000029f0       ??H?$_Vector_iterator@V?$_Vector_val@U?$_Simple_types@V?$resptr_core@UShader@@Uresptrcode_shader@@@@@std@@@std@@@std@@QBE?AV01@H@Z 100039f0 f i dxWallMarkArray.obj
 0001:00002a10       ??E?$_Vector_const_iterator@V?$_Vector_val@U?$_Simple_types@V?$resptr_core@UShader@@Uresptrcode_shader@@@@@std@@@std@@@std@@QAEAAV01@XZ 10003a10 f i dxWallMarkArray.obj
 0001:00002a20       ??8?$_Vector_const_iterator@V?$_Vector_val@U?$_Simple_types@V?$resptr_core@UShader@@Uresptrcode_shader@@@@@std@@@std@@@std@@QBE_NABV01@@Z 10003a20 f i dxWallMarkArray.obj
 0001:00002a30       ?_Unused_capacity@?$vector@V?$resptr_core@UShader@@Uresptrcode_shader@@@@V?$xalloc@V?$resptr_core@UShader@@Uresptrcode_shader@@@@@@@std@@QBEIXZ 10003a30 f i dxWallMarkArray.obj
 0001:00002a40       ?max_size@?$vector@V?$resptr_core@UShader@@Uresptrcode_shader@@@@V?$xalloc@V?$resptr_core@UShader@@Uresptrcode_shader@@@@@@@std@@QBEIXZ 10003a40 f i dxWallMarkArray.obj
 0001:00002a50       ?_Grow_to@?$vector@V?$resptr_core@UShader@@Uresptrcode_shader@@@@V?$xalloc@V?$resptr_core@UShader@@Uresptrcode_shader@@@@@@@std@@IBEII@Z 10003a50 f i dxWallMarkArray.obj
 0001:00002a90       ?_Reallocate@?$vector@V?$resptr_core@UShader@@Uresptrcode_shader@@@@V?$xalloc@V?$resptr_core@UShader@@Uresptrcode_shader@@@@@@@std@@IAEXI@Z 10003a90 f i dxWallMarkArray.obj
 0001:00002b70       ?_Xlen@?$vector@V?$resptr_core@UShader@@Uresptrcode_shader@@@@V?$xalloc@V?$resptr_core@UShader@@Uresptrcode_shader@@@@@@@std@@IBEXXZ 10003b70 f i dxWallMarkArray.obj
 0001:00002b80       ?deallocate@?$xalloc@V?$resptr_core@UShader@@Uresptrcode_shader@@@@@@QBEXPAV?$resptr_core@UShader@@Uresptrcode_shader@@@@I@Z 10003b80 f i dxWallMarkArray.obj
 0001:00002ba0       ??0?$_Wrap_alloc@V?$xalloc@V?$resptr_core@UShader@@Uresptrcode_shader@@@@@@@std@@QAE@XZ 10003ba0 f i dxWallMarkArray.obj
 0001:00002bb0       ?allocate@?$_Wrap_alloc@V?$xalloc@V?$resptr_core@UShader@@Uresptrcode_shader@@@@@@@std@@QAEPAV?$resptr_core@UShader@@Uresptrcode_shader@@@@I@Z 10003bb0 f i dxWallMarkArray.obj
 0001:00002bd0       ??Y?$_Vector_iterator@V?$_Vector_val@U?$_Simple_types@V?$resptr_core@UShader@@Uresptrcode_shader@@@@@std@@@std@@@std@@QAEAAV01@H@Z 10003bd0 f i dxWallMarkArray.obj
 0001:00002be0       ??0?$_Vector_const_iterator@V?$_Vector_val@U?$_Simple_types@V?$resptr_core@UShader@@Uresptrcode_shader@@@@@std@@@std@@@std@@QAE@PAV?$resptr_core@UShader@@Uresptrcode_shader@@@@PBU_Container_base0@1@@Z 10003be0 f i dxWallMarkArray.obj
 0001:00002bf0       ??D?$_Vector_const_iterator@V?$_Vector_val@U?$_Simple_types@V?$resptr_core@UShader@@Uresptrcode_shader@@@@@std@@@std@@@std@@QBEABV?$resptr_core@UShader@@Uresptrcode_shader@@@@XZ 10003bf0 f i dxWallMarkArray.obj
 0001:00002c00       ?_Compat@?$_Vector_const_iterator@V?$_Vector_val@U?$_Simple_types@V?$resptr_core@UShader@@Uresptrcode_shader@@@@@std@@@std@@@std@@QBEXABV12@@Z 10003c00 f i dxWallMarkArray.obj
 0001:00002c10       ??0?$xalloc@V?$resptr_core@UShader@@Uresptrcode_shader@@@@@@QAE@XZ 10003c10 f i dxWallMarkArray.obj
 0001:00002c20       ?allocate@?$xalloc@V?$resptr_core@UShader@@Uresptrcode_shader@@@@@@QBEPAV?$resptr_core@UShader@@Uresptrcode_shader@@@@IPBX@Z 10003c20 f i dxWallMarkArray.obj
 0001:00002c40       ?max_size@?$_Wrap_alloc@V?$xalloc@V?$resptr_core@UShader@@Uresptrcode_shader@@@@@@@std@@QBEIXZ 10003c40 f i dxWallMarkArray.obj
 0001:00002c50       ??Y?$_Vector_const_iterator@V?$_Vector_val@U?$_Simple_types@V?$resptr_core@UShader@@Uresptrcode_shader@@@@@std@@@std@@@std@@QAEAAV01@H@Z 10003c50 f i dxWallMarkArray.obj
 0001:00002c60       ?max_size@?$allocator_traits@V?$xalloc@V?$resptr_core@UShader@@Uresptrcode_shader@@@@@@@std@@SAIABV?$xalloc@V?$resptr_core@UShader@@Uresptrcode_shader@@@@@@@Z 10003c60 f i dxWallMarkArray.obj
 0001:00002c70       ??$?9V?$xalloc@V?$resptr_core@UShader@@Uresptrcode_shader@@@@@@V0@@std@@YA_NABU?$_Wrap_alloc@V?$xalloc@V?$resptr_core@UShader@@Uresptrcode_shader@@@@@@@0@0@Z 10003c70 f i dxWallMarkArray.obj
 0001:00002c80       ??$_Copy_impl@PAV?$resptr_core@UShader@@Uresptrcode_shader@@@@PAV1@@std@@YAPAV?$resptr_core@UShader@@Uresptrcode_shader@@@@PAV1@00@Z 10003c80 f i dxWallMarkArray.obj
 0001:00002ca0       ??$_Ucopy@PAV?$resptr_core@UShader@@Uresptrcode_shader@@@@@?$vector@V?$resptr_core@UShader@@Uresptrcode_shader@@@@V?$xalloc@V?$resptr_core@UShader@@Uresptrcode_shader@@@@@@@std@@IAEPAV?$resptr_core@UShader@@Uresptrcode_shader@@@@PAV2@00@Z 10003ca0 f i dxWallMarkArray.obj
 0001:00002cc0       ??$addressof@$$CBV?$resptr_core@UShader@@Uresptrcode_shader@@@@@std@@YAPBV?$resptr_core@UShader@@Uresptrcode_shader@@@@ABV1@@Z 10003cc0 f i dxWallMarkArray.obj
 0001:00002cd0       ??$construct@V?$resptr_core@UShader@@Uresptrcode_shader@@@@AAV1@@?$_Wrap_alloc@V?$xalloc@V?$resptr_core@UShader@@Uresptrcode_shader@@@@@@@std@@QAEXPAV?$resptr_core@UShader@@Uresptrcode_shader@@@@AAV2@@Z 10003cd0 f i dxWallMarkArray.obj
 0001:00002cf0       ??$construct@V?$resptr_core@UShader@@Uresptrcode_shader@@@@ABV1@@?$_Wrap_alloc@V?$xalloc@V?$resptr_core@UShader@@Uresptrcode_shader@@@@@@@std@@QAEXPAV?$resptr_core@UShader@@Uresptrcode_shader@@@@ABV2@@Z 10003cf0 f i dxWallMarkArray.obj
 0001:00002d10       ??$_Destroy_range@U?$_Wrap_alloc@V?$xalloc@V?$resptr_core@UShader@@Uresptrcode_shader@@@@@@@std@@@std@@YAXPAV?$resptr_core@UShader@@Uresptrcode_shader@@@@0AAU?$_Wrap_alloc@V?$xalloc@V?$resptr_core@UShader@@Uresptrcode_shader@@@@@@@0@@Z 10003d10 f i dxWallMarkArray.obj
 0001:00002d40       ??$addressof@V?$resptr_core@UShader@@Uresptrcode_shader@@@@@std@@YAPAV?$resptr_core@UShader@@Uresptrcode_shader@@@@AAV1@@Z 10003d40 f i dxWallMarkArray.obj
 0001:00002d50       ??$_Umove@PAV?$resptr_core@UShader@@Uresptrcode_shader@@@@@?$vector@V?$resptr_core@UShader@@Uresptrcode_shader@@@@V?$xalloc@V?$resptr_core@UShader@@Uresptrcode_shader@@@@@@@std@@IAEPAV?$resptr_core@UShader@@Uresptrcode_shader@@@@PAV2@00@Z 10003d50 f i dxWallMarkArray.obj
 0001:00002d70       ??$xr_free@V?$resptr_core@UShader@@Uresptrcode_shader@@@@@@YAXAAPAV?$resptr_core@UShader@@Uresptrcode_shader@@@@@Z 10003d70 f i dxWallMarkArray.obj
 0001:00002d90       ??$xr_alloc@V?$resptr_core@UShader@@Uresptrcode_shader@@@@@@YAPAV?$resptr_core@UShader@@Uresptrcode_shader@@@@I@Z 10003d90 f i dxWallMarkArray.obj
 0001:00002db0       ??$_Fn@V?$xalloc@V?$resptr_core@UShader@@Uresptrcode_shader@@@@@@@_Alloc_max_size@std@@SAIHABV?$xalloc@V?$resptr_core@UShader@@Uresptrcode_shader@@@@@@@Z 10003db0 f i dxWallMarkArray.obj
 0001:00002dc0       ?max_size@?$xalloc@V?$resptr_core@UShader@@Uresptrcode_shader@@@@@@QBEIXZ 10003dc0 f i dxWallMarkArray.obj
 0001:00002dd0       ??$?8V?$xalloc@V?$resptr_core@UShader@@Uresptrcode_shader@@@@@@V0@@std@@YA_NABU?$_Wrap_alloc@V?$xalloc@V?$resptr_core@UShader@@Uresptrcode_shader@@@@@@@0@0@Z 10003dd0 f i dxWallMarkArray.obj
 0001:00002de0       ??$_Ptr_cat@V?$resptr_core@UShader@@Uresptrcode_shader@@@@V1@@std@@YA?AU_Nonscalar_ptr_iterator_tag@0@PAV?$resptr_core@UShader@@Uresptrcode_shader@@@@0@Z 10003de0 f i dxWallMarkArray.obj
 0001:00002df0       ??$_Copy_impl@PAV?$resptr_core@UShader@@Uresptrcode_shader@@@@PAV1@@std@@YAPAV?$resptr_core@UShader@@Uresptrcode_shader@@@@PAV1@00U_Nonscalar_ptr_iterator_tag@0@@Z 10003df0 f i dxWallMarkArray.obj
 0001:00002e30       ??$_Uninitialized_copy@PAV?$resptr_core@UShader@@Uresptrcode_shader@@@@PAV1@U?$_Wrap_alloc@V?$xalloc@V?$resptr_core@UShader@@Uresptrcode_shader@@@@@@@std@@@std@@YAPAV?$resptr_core@UShader@@Uresptrcode_shader@@@@PAV1@00AAU?$_Wrap_alloc@V?$xalloc@V?$resptr_core@UShader@@Uresptrcode_shader@@@@@@@0@@Z 10003e30 f i dxWallMarkArray.obj
 0001:00002e50       ??$forward@AAV?$resptr_core@UShader@@Uresptrcode_shader@@@@@std@@YAAAV?$resptr_core@UShader@@Uresptrcode_shader@@@@AAV1@@Z 10003e50 f i dxWallMarkArray.obj
 0001:00002e60       ??$construct@V?$resptr_core@UShader@@Uresptrcode_shader@@@@AAV1@@?$allocator_traits@V?$xalloc@V?$resptr_core@UShader@@Uresptrcode_shader@@@@@@@std@@SAXAAV?$xalloc@V?$resptr_core@UShader@@Uresptrcode_shader@@@@@@PAV?$resptr_core@UShader@@Uresptrcode_shader@@@@AAV3@@Z 10003e60 f i dxWallMarkArray.obj
 0001:00002e80       ??$forward@ABV?$resptr_core@UShader@@Uresptrcode_shader@@@@@std@@YAABV?$resptr_core@UShader@@Uresptrcode_shader@@@@ABV1@@Z 10003e80 f i dxWallMarkArray.obj
 0001:00002e90       ??$construct@V?$resptr_core@UShader@@Uresptrcode_shader@@@@ABV1@@?$allocator_traits@V?$xalloc@V?$resptr_core@UShader@@Uresptrcode_shader@@@@@@@std@@SAXAAV?$xalloc@V?$resptr_core@UShader@@Uresptrcode_shader@@@@@@PAV?$resptr_core@UShader@@Uresptrcode_shader@@@@ABV3@@Z 10003e90 f i dxWallMarkArray.obj
 0001:00002eb0       ??$_Destroy_range@U?$_Wrap_alloc@V?$xalloc@V?$resptr_core@UShader@@Uresptrcode_shader@@@@@@@std@@@std@@YAXPAV?$resptr_core@UShader@@Uresptrcode_shader@@@@0AAU?$_Wrap_alloc@V?$xalloc@V?$resptr_core@UShader@@Uresptrcode_shader@@@@@@@0@U_Nonscalar_ptr_iterator_tag@0@@Z 10003eb0 f i dxWallMarkArray.obj
 0001:00002ee0       ??$_Uninitialized_move@PAV?$resptr_core@UShader@@Uresptrcode_shader@@@@PAV1@U?$_Wrap_alloc@V?$xalloc@V?$resptr_core@UShader@@Uresptrcode_shader@@@@@@@std@@@std@@YAPAV?$resptr_core@UShader@@Uresptrcode_shader@@@@PAV1@00AAU?$_Wrap_alloc@V?$xalloc@V?$resptr_core@UShader@@Uresptrcode_shader@@@@@@@0@@Z 10003ee0 f i dxWallMarkArray.obj
 0001:00002f00       ??0?$xalloc@V?$resptr_core@UShader@@Uresptrcode_shader@@@@@@QAE@ABV0@@Z 10003f00 f i dxWallMarkArray.obj
 0001:00002f10       ??$?8V?$resptr_core@UShader@@Uresptrcode_shader@@@@V0@@@YA_NABV?$xalloc@V?$resptr_core@UShader@@Uresptrcode_shader@@@@@@0@Z 10003f10 f i dxWallMarkArray.obj
 0001:00002f20       ??$_Unchecked@PAV?$resptr_core@UShader@@Uresptrcode_shader@@@@@std@@YAPAV?$resptr_core@UShader@@Uresptrcode_shader@@@@PAV1@@Z 10003f20 f i dxWallMarkArray.obj
 0001:00002f30       ??$_Uninit_copy@PAV?$resptr_core@UShader@@Uresptrcode_shader@@@@PAV1@U?$_Wrap_alloc@V?$xalloc@V?$resptr_core@UShader@@Uresptrcode_shader@@@@@@@std@@@std@@YAPAV?$resptr_core@UShader@@Uresptrcode_shader@@@@PAV1@00AAU?$_Wrap_alloc@V?$xalloc@V?$resptr_core@UShader@@Uresptrcode_shader@@@@@@@0@@Z 10003f30 f i dxWallMarkArray.obj
 0001:00002f50       ??$_Rechecked@PAV?$resptr_core@UShader@@Uresptrcode_shader@@@@PAV1@@std@@YAAAPAV?$resptr_core@UShader@@Uresptrcode_shader@@@@AAPAV1@PAV1@@Z 10003f50 f i dxWallMarkArray.obj
 0001:00002f60       ??$_Fn@V?$xalloc@V?$resptr_core@UShader@@Uresptrcode_shader@@@@@@V?$resptr_core@UShader@@Uresptrcode_shader@@@@AAV2@@_Alloc_construct@std@@SAXHAAV?$xalloc@V?$resptr_core@UShader@@Uresptrcode_shader@@@@@@PAV?$resptr_core@UShader@@Uresptrcode_shader@@@@AAV3@@Z 10003f60 f i dxWallMarkArray.obj
 0001:00002f80       ??$_Fn@V?$xalloc@V?$resptr_core@UShader@@Uresptrcode_shader@@@@@@V?$resptr_core@UShader@@Uresptrcode_shader@@@@ABV2@@_Alloc_construct@std@@SAXHAAV?$xalloc@V?$resptr_core@UShader@@Uresptrcode_shader@@@@@@PAV?$resptr_core@UShader@@Uresptrcode_shader@@@@ABV3@@Z 10003f80 f i dxWallMarkArray.obj
 0001:00002fa0       ??$destroy@V?$resptr_core@UShader@@Uresptrcode_shader@@@@@?$_Wrap_alloc@V?$xalloc@V?$resptr_core@UShader@@Uresptrcode_shader@@@@@@@std@@QAEXPAV?$resptr_core@UShader@@Uresptrcode_shader@@@@@Z 10003fa0 f i dxWallMarkArray.obj
 0001:00002fb0       ??$_Uninit_move@PAV?$resptr_core@UShader@@Uresptrcode_shader@@@@PAV1@U?$_Wrap_alloc@V?$xalloc@V?$resptr_core@UShader@@Uresptrcode_shader@@@@@@@std@@@std@@YAPAV?$resptr_core@UShader@@Uresptrcode_shader@@@@PAV1@00AAU?$_Wrap_alloc@V?$xalloc@V?$resptr_core@UShader@@Uresptrcode_shader@@@@@@@0@@Z 10003fb0 f i dxWallMarkArray.obj
 0001:00002fd0       ?construct@?$xalloc@V?$resptr_core@UShader@@Uresptrcode_shader@@@@@@QAEXPAV?$resptr_core@UShader@@Uresptrcode_shader@@@@ABV2@@Z 10003fd0 f i dxWallMarkArray.obj
 0001:00002ff0       ??$_Uninit_copy@PAV?$resptr_core@UShader@@Uresptrcode_shader@@@@PAV1@V?$xalloc@V?$resptr_core@UShader@@Uresptrcode_shader@@@@@@@std@@YAPAV?$resptr_core@UShader@@Uresptrcode_shader@@@@PAV1@00AAU?$_Wrap_alloc@V?$xalloc@V?$resptr_core@UShader@@Uresptrcode_shader@@@@@@@0@U_Nonscalar_ptr_iterator_tag@0@@Z 10003ff0 f i dxWallMarkArray.obj
 0001:00003080       ??$destroy@V?$resptr_core@UShader@@Uresptrcode_shader@@@@@?$allocator_traits@V?$xalloc@V?$resptr_core@UShader@@Uresptrcode_shader@@@@@@@std@@SAXAAV?$xalloc@V?$resptr_core@UShader@@Uresptrcode_shader@@@@@@PAV?$resptr_core@UShader@@Uresptrcode_shader@@@@@Z 10004080 f i dxWallMarkArray.obj
 0001:00003090       ??$_Val_type@PAV?$resptr_core@UShader@@Uresptrcode_shader@@@@@std@@YAPAV?$resptr_core@UShader@@Uresptrcode_shader@@@@PAV1@@Z 10004090 f i dxWallMarkArray.obj
 0001:000030a0       ??$_Uninit_move@PAV?$resptr_core@UShader@@Uresptrcode_shader@@@@PAV1@V?$xalloc@V?$resptr_core@UShader@@Uresptrcode_shader@@@@@@V1@@std@@YAPAV?$resptr_core@UShader@@Uresptrcode_shader@@@@PAV1@00AAU?$_Wrap_alloc@V?$xalloc@V?$resptr_core@UShader@@Uresptrcode_shader@@@@@@@0@0U_Nonscalar_ptr_iterator_tag@0@@Z 100040a0 f i dxWallMarkArray.obj
 0001:00003130       ??$_Construct@V?$resptr_core@UShader@@Uresptrcode_shader@@@@ABV1@@std@@YAXPAV?$resptr_core@UShader@@Uresptrcode_shader@@@@ABV1@@Z 10004130 f i dxWallMarkArray.obj
 0001:00003140       ??0?$resptr_core@UShader@@Uresptrcode_shader@@@@QAE@ABV0@@Z 10004140 f i dxWallMarkArray.obj
 0001:00003160       ??$_Fn@V?$xalloc@V?$resptr_core@UShader@@Uresptrcode_shader@@@@@@V?$resptr_core@UShader@@Uresptrcode_shader@@@@@_Alloc_destroy@std@@SAXHAAV?$xalloc@V?$resptr_core@UShader@@Uresptrcode_shader@@@@@@PAV?$resptr_core@UShader@@Uresptrcode_shader@@@@@Z 10004160 f i dxWallMarkArray.obj
 0001:00003170       ??$construct@V?$resptr_core@UShader@@Uresptrcode_shader@@@@V1@@?$_Wrap_alloc@V?$xalloc@V?$resptr_core@UShader@@Uresptrcode_shader@@@@@@@std@@QAEXPAV?$resptr_core@UShader@@Uresptrcode_shader@@@@$$QAV2@@Z 10004170 f i dxWallMarkArray.obj
 0001:00003190       ?destroy@?$xalloc@V?$resptr_core@UShader@@Uresptrcode_shader@@@@@@QAEXPAV?$resptr_core@UShader@@Uresptrcode_shader@@@@@Z 10004190 f i dxWallMarkArray.obj
 0001:000031a0       ??$forward@V?$resptr_core@UShader@@Uresptrcode_shader@@@@@std@@YA$$QAV?$resptr_core@UShader@@Uresptrcode_shader@@@@AAV1@@Z 100041a0 f i dxWallMarkArray.obj
 0001:000031b0       ??$construct@V?$resptr_core@UShader@@Uresptrcode_shader@@@@V1@@?$allocator_traits@V?$xalloc@V?$resptr_core@UShader@@Uresptrcode_shader@@@@@@@std@@SAXAAV?$xalloc@V?$resptr_core@UShader@@Uresptrcode_shader@@@@@@PAV?$resptr_core@UShader@@Uresptrcode_shader@@@@$$QAV3@@Z 100041b0 f i dxWallMarkArray.obj
 0001:000031d0       ??$_Destroy@V?$resptr_core@UShader@@Uresptrcode_shader@@@@@std@@YAXPAV?$resptr_core@UShader@@Uresptrcode_shader@@@@@Z 100041d0 f i dxWallMarkArray.obj
 0001:000031e0       ??_G?$resptr_core@UShader@@Uresptrcode_shader@@@@QAEPAXI@Z 100041e0 f i dxWallMarkArray.obj
 0001:000031f0       ??$_Fn@V?$xalloc@V?$resptr_core@UShader@@Uresptrcode_shader@@@@@@V?$resptr_core@UShader@@Uresptrcode_shader@@@@V2@@_Alloc_construct@std@@SAXHAAV?$xalloc@V?$resptr_core@UShader@@Uresptrcode_shader@@@@@@PAV?$resptr_core@UShader@@Uresptrcode_shader@@@@$$QAV3@@Z 100041f0 f i dxWallMarkArray.obj
 0001:00003210       ?DestroyObject@?$FactoryPtr@VIUIShader@@@@AAEXXZ 10004210 f i dxWallMarkArray.obj
 0001:00003230       ?CreateObject@?$FactoryPtr@VIUIShader@@@@AAEXXZ 10004230 f i dxWallMarkArray.obj
 0001:00003250       ?randI@CRandom@@QAEHXZ     10004250 f i dxWallMarkArray.obj
 0001:00003270       ?randI@CRandom@@QAEHH@Z    10004270 f i dxWallMarkArray.obj
 0001:00003280       ?randI@CRandom@@QAEHHH@Z   10004280 f i dxWallMarkArray.obj
 0001:000032a0       ??0?$resptr_core@UShader@@Uresptrcode_shader@@@@QAE@XZ 100042a0 f i dxWallMarkArray.obj
 0001:000032b0       ??1?$resptr_core@UShader@@Uresptrcode_shader@@@@QAE@XZ 100042b0 f i dxWallMarkArray.obj
 0001:000032c0       ?fix_texture_name@@YAXPAD@Z 100042c0 f   Texture.obj
 0001:00003320       ?get_texture_load_lod@@YAHPBD@Z 10004320 f   Texture.obj
 0001:000033b0       ?calc_texture_size@@YAIHII@Z 100043b0 f   Texture.obj
 0001:000034c0       ?Reduce@@YAXAAH000@Z       100044c0 f i Texture.obj
 0001:00003520       ?TW_Save@@YAXPAUIDirect3DTexture9@@PBD11@Z 10004520 f   Texture.obj
 0001:00003620       ?TW_LoadTextureFromTexture@@YAPAUIDirect3DTexture9@@PAU1@AAW4_D3DFORMAT@@HAAI2@Z 10004620 f   Texture.obj
 0001:00003850       ?it_gloss_rev_base@@YAIII@Z 10004850 f i Texture.obj
 0001:00003890       ?it_difference@@YAIIII@Z   10004890 f i Texture.obj
 0001:00003920       ?it_height_rev_base@@YAIII@Z 10004920 f i Texture.obj
 0001:00003970       ?texture_load@CRender@@UAEPAUIDirect3DBaseTexture9@@PBDAAI@Z 10004970 f   Texture.obj
 0001:00004540       ?begin@?$vector@UItem@CInifile@@V?$xalloc@UItem@CInifile@@@@@std@@QAE?AV?$_Vector_iterator@V?$_Vector_val@U?$_Simple_types@UItem@CInifile@@@std@@@std@@@2@XZ 10005540 f i Texture.obj
 0001:00004550       ?end@?$vector@UItem@CInifile@@V?$xalloc@UItem@CInifile@@@@@std@@QAE?AV?$_Vector_iterator@V?$_Vector_val@U?$_Simple_types@UItem@CInifile@@@std@@@std@@@2@XZ 10005550 f i Texture.obj
 0001:00004560       ??C?$_Vector_const_iterator@V?$_Vector_val@U?$_Simple_types@UItem@CInifile@@@std@@@std@@@std@@QBEPBUItem@CInifile@@XZ 10005560 f i Texture.obj
 0001:00004570       ??E?$_Vector_const_iterator@V?$_Vector_val@U?$_Simple_types@UItem@CInifile@@@std@@@std@@@std@@QAEAAV01@XZ 10005570 f i Texture.obj
 0001:00004580       ??9?$_Vector_const_iterator@V?$_Vector_val@U?$_Simple_types@UItem@CInifile@@@std@@@std@@@std@@QBE_NABV01@@Z 10005580 f i Texture.obj
 0001:00004590       ??D?$_Vector_const_iterator@V?$_Vector_val@U?$_Simple_types@UItem@CInifile@@@std@@@std@@@std@@QBEABUItem@CInifile@@XZ 10005590 f i Texture.obj
 0001:000045a0       ??8?$_Vector_const_iterator@V?$_Vector_val@U?$_Simple_types@UItem@CInifile@@@std@@@std@@@std@@QBE_NABV01@@Z 100055a0 f i Texture.obj
 0001:000045b0       ??0?$_Vector_iterator@V?$_Vector_val@U?$_Simple_types@UItem@CInifile@@@std@@@std@@@std@@QAE@PAUItem@CInifile@@PBU_Container_base0@1@@Z 100055b0 f i Texture.obj
 0001:000045c0       ?pointer_to@?$pointer_traits@PBUItem@CInifile@@@std@@SAPBUItem@CInifile@@ABU34@@Z 100055c0 f i Texture.obj
 0001:000045d0       ??0?$_Vector_const_iterator@V?$_Vector_val@U?$_Simple_types@UItem@CInifile@@@std@@@std@@@std@@QAE@PAUItem@CInifile@@PBU_Container_base0@1@@Z 100055d0 f i Texture.obj
 0001:000045e0       ?_Compat@?$_Vector_const_iterator@V?$_Vector_val@U?$_Simple_types@UItem@CInifile@@@std@@@std@@@std@@QBEXABV12@@Z 100055e0 f i Texture.obj
 0001:000045f0       ??$strcpy_s@$0CAI@@@YAHAAY0CAI@DPBD@Z 100055f0 f i Texture.obj
 0001:00004610       ??$TW_Iterate_1OP@P6AIII@Z@@YAXPAUIDirect3DTexture9@@0Q6AIII@Z@Z 10005610 f i Texture.obj
 0001:00004740       ??$TW_Iterate_2OP@P6AIIII@Z@@YAXPAUIDirect3DTexture9@@00Q6AIIII@Z@Z 10005740 f i Texture.obj
 0001:000048e0       ??$addressof@$$CBUItem@CInifile@@@std@@YAPBUItem@CInifile@@ABU12@@Z 100058e0 f i Texture.obj
 0001:000048f0       ?xr_strcmp@@YAHPBD0@Z      100058f0 f i Texture.obj
 0001:00004920       ?strstr@@YAPADPADPBD@Z     10005920 f i Texture.obj
 0001:00004930       ?color_get_A@@YAII@Z       10005930 f i Texture.obj
 0001:00004940       ?color_get_B@@YAII@Z       10005940 f i Texture.obj
 0001:00004950       ?color_get_G@@YAII@Z       10005950 f i Texture.obj
 0001:00004960       ?color_get_R@@YAII@Z       10005960 f i Texture.obj
 0001:00004970       ?color_argb@@YAIIIII@Z     10005970 f i Texture.obj
 0001:000049a0       ?color_rgba@@YAIIIII@Z     100059a0 f i Texture.obj
 0001:000049d0       ?xr_strlen@@YAIPBD@Z       100059d0 f i Texture.obj
 0001:000049e0       ?iFloor@@YAHM@Z            100059e0 f i Texture.obj
 0001:00004a40       ?strext@@YAPADPBD@Z        10005a40 f i Texture.obj
 0001:00004a50       ?getComment@CBlender_accum_direct_cascade@@UAEPBDXZ 10005a50 f i blender_light_direct_cascade.obj
 0001:00004a60       ?canBeDetailed@CBlender_accum_direct_cascade@@UAEHXZ 10005a60 f i blender_light_direct_cascade.obj
 0001:00004a70       ?canBeLMAPped@CBlender_accum_direct_cascade@@UAEHXZ 10005a70 f i blender_light_direct_cascade.obj
 0001:00004a80       ??0CBlender_accum_direct_cascade@@QAE@XZ 10005a80 f   blender_light_direct_cascade.obj
 0001:00004ab0       ??_GCBlender_accum_direct_cascade@@UAEPAXI@Z 10005ab0 f i blender_light_direct_cascade.obj
 0001:00004ab0       ??_ECBlender_accum_direct_cascade@@UAEPAXI@Z 10005ab0 f i * CIL library *:* CIL module *
 0001:00004ae0       ??1CBlender_accum_direct_cascade@@UAE@XZ 10005ae0 f   blender_light_direct_cascade.obj
 0001:00004af0       ?Compile@CBlender_accum_direct_cascade@@UAEXAAVCBlender_Compile@@@Z 10005af0 f   blender_light_direct_cascade.obj
 0001:00004d00       ?jitter@@YAXAAVCBlender_Compile@@@Z 10005d00 f i blender_light_direct_cascade.obj
 0001:00004d90       ?getComment@CBlender_reflections@@UAEPBDXZ 10005d90 f i blender_reflections.obj
 0001:00004da0       ?canBeDetailed@CBlender_reflections@@UAEHXZ 10005da0 f i blender_reflections.obj
 0001:00004db0       ?canBeLMAPped@CBlender_reflections@@UAEHXZ 10005db0 f i blender_reflections.obj
 0001:00004dc0       ??0CBlender_reflections@@QAE@XZ 10005dc0 f   blender_reflections.obj
 0001:00004df0       ??_GCBlender_reflections@@UAEPAXI@Z 10005df0 f i blender_reflections.obj
 0001:00004df0       ??_ECBlender_reflections@@UAEPAXI@Z 10005df0 f i * CIL library *:* CIL module *
 0001:00004e20       ??1CBlender_reflections@@UAE@XZ 10005e20 f   blender_reflections.obj
 0001:00004e30       ?Compile@CBlender_reflections@@UAEXAAVCBlender_Compile@@@Z 10005e30 f   blender_reflections.obj
 0001:00004f50       ?getComment@CBlender_SSAO@@UAEPBDXZ 10005f50 f i blender_ssao.obj
 0001:00004f60       ?canBeDetailed@CBlender_SSAO@@UAEHXZ 10005f60 f i blender_ssao.obj
 0001:00004f70       ?canBeLMAPped@CBlender_SSAO@@UAEHXZ 10005f70 f i blender_ssao.obj
 0001:00004f80       ??0CBlender_SSAO@@QAE@XZ   10005f80 f   blender_ssao.obj
 0001:00004fb0       ??_ECBlender_SSAO@@UAEPAXI@Z 10005fb0 f i * CIL library *:* CIL module *
 0001:00004fb0       ??_GCBlender_SSAO@@UAEPAXI@Z 10005fb0 f i blender_ssao.obj
 0001:00004fe0       ??1CBlender_SSAO@@UAE@XZ   10005fe0 f   blender_ssao.obj
 0001:00004ff0       ?Compile@CBlender_SSAO@@UAEXAAVCBlender_Compile@@@Z 10005ff0 f   blender_ssao.obj
 0001:000050c0       ?phase_ssao@CRenderTarget@@QAEXXZ 100060c0 f   r2_rendertarget_phase_ssao.obj
 0001:000058b0       ?phase_downsamp@CRenderTarget@@QAEXXZ 100068b0 f   r2_rendertarget_phase_ssao.obj
 0001:00005d80       ?invert@?$_matrix@M@@QAEAAU1@ABU1@@Z 10006d80 f i r2_rendertarget_phase_ssao.obj
 0001:00005fd0       ??C?$resptr_core@UShader@@Uresptrcode_shader@@@@QBEPAUShader@@XZ 10006fd0 f i r2_rendertarget_phase_ssao.obj
 0001:00005fe0       ??C?$resptr_core@USGeometry@@Uresptrcode_geom@@@@QBEPAUSGeometry@@XZ 10006fe0 f i r2_rendertarget_phase_ssao.obj
 0001:00005ff0       ??0?$resptr_core@VCRT@@Uresptrcode_crt@@@@QAE@PAVCRT@@_N@Z 10006ff0 f i r2_rendertarget_phase_ssao.obj
 0001:00006000       ??1?$resptr_core@VCRT@@Uresptrcode_crt@@@@QAE@XZ 10007000 f i r2_rendertarget_phase_ssao.obj
 0001:00006010       ?set@R_constant_array@@QAEXPAUR_constant@@AAUR_constant_load@@ABU?$_matrix@M@@@Z 10007010 f i r2_rendertarget_phase_ssao.obj
 0001:000061f0       ?set@?$_vector4@M@@QAEAAU1@ABU1@@Z 100071f0 f i r2_rendertarget_phase_ssao.obj
 0001:00006210       ??A?$svector@U?$_vector4@M@@$0BAA@@@QAEAAU?$_vector4@M@@I@Z 10007210 f i r2_rendertarget_phase_ssao.obj
 0001:00006220       ?access@?$R_constant_cache@U?$_vector4@M@@$0BAA@@@QAEPAU?$_vector4@M@@I@Z 10007220 f i r2_rendertarget_phase_ssao.obj
 0001:00006230       ?dirty@?$R_constant_cache@U?$_vector4@M@@$0BAA@@@QAEXII@Z 10007230 f i r2_rendertarget_phase_ssao.obj
 0001:00006260       ?set@R_constant_array@@QAEXPAUR_constant@@AAUR_constant_load@@ABU?$_vector4@M@@@Z 10007260 f i r2_rendertarget_phase_ssao.obj
 0001:000062b0       ??_GR_constant@@QAEPAXI@Z  100072b0 f i r2_rendertarget_phase_ssao.obj
 0001:000062c0       ??R?$xr_special_free@$0A@UR_constant@@@@QAEXAAPAUR_constant@@@Z 100072c0 f i r2_rendertarget_phase_ssao.obj
 0001:000062e0       ??$xr_delete@UR_constant@@@@YAXAAPAUR_constant@@@Z 100072e0 f i r2_rendertarget_phase_ssao.obj
 0001:00006310       ?_dec@?$resptr_base@UR_constant@@@@IAEXXZ 10007310 f i r2_rendertarget_phase_ssao.obj
 0001:00006350       ??1?$resptr_core@UR_constant@@V?$resptr_base@UR_constant@@@@@@QAE@XZ 10007350 f i r2_rendertarget_phase_ssao.obj
 0001:00006390       ?_get@?$resptr_base@USDeclaration@@@@QBEPAUSDeclaration@@XZ 10007390 f i r2_rendertarget_phase_ssao.obj
 0001:000063a0       ??D?$resptr_core@USGeometry@@Uresptrcode_geom@@@@QBEAAUSGeometry@@XZ 100073a0 f i r2_rendertarget_phase_ssao.obj
 0001:000063b0       ??D?$resptr_core@UR_constant@@V?$resptr_base@UR_constant@@@@@@QBEAAUR_constant@@XZ 100073b0 f i r2_rendertarget_phase_ssao.obj
 0001:000063c0       ?set@?$_vector4@M@@QAEAAU1@MMMM@Z 100073c0 f i r2_rendertarget_phase_ssao.obj
 0001:000063e0       ?set@TL@FVF@@QAEXMMMMIMM@Z 100073e0 f i r2_rendertarget_phase_ssao.obj
 0001:00006420       ??$deg2rad@M@implement@@YAMM@Z 10007420 f i r2_rendertarget_phase_ssao.obj
 0001:00006440       ?deg2rad@@YAMM@Z           10007440 f i r2_rendertarget_phase_ssao.obj
 0001:00006460       _tanf                      10007460 f i r2_rendertarget_phase_ssao.obj
 0001:00006470       ?tan@@YAMM@Z               10007470 f i r2_rendertarget_phase_ssao.obj
 0001:00006480       ?set@?$_vector2@M@@QAEAAU1@MM@Z 10007480 f i r2_rendertarget_phase_ssao.obj
 0001:00006490       ?phase_wet_reflections@CRenderTarget@@QAEXXZ 10007490 f   r2_rendertarget_phase_wet_reflections.obj
 0001:00006500       ?phase_wet_rain@CRenderTarget@@QAEXXZ 10007500 f   r2_rendertarget_phase_wet_reflections.obj
 0001:00006570       ?test@?$_flags@I@@QBEHI@Z  10007570 f i r2_rendertarget_phase_wet_reflections.obj
 0001:00006580       _hypot                     10007580 f i stdafx.obj
 0001:000065b0       ?length@?$char_traits@D@std@@SAIPBD@Z 100075b0 f i stdafx.obj
 0001:000065d0       ?copy@?$char_traits@D@std@@SAPADPADPBDI@Z 100075d0 f i stdafx.obj
 0001:000065f0       ?move@?$char_traits@D@std@@SAPADPADPBDI@Z 100075f0 f i stdafx.obj
 0001:00006610       ?assign@?$char_traits@D@std@@SAXAADABD@Z 10007610 f i stdafx.obj
 0001:00006620       ??0_Ignore@std@@QAE@XZ     10007620 f i stdafx.obj
 0001:00006630       ??0error_category@std@@QAE@XZ 10007630 f i stdafx.obj
 0001:00006640       ??1error_category@std@@UAE@XZ 10007640 f i stdafx.obj
 0001:00006650       ??8error_category@std@@QBE_NABV01@@Z 10007650 f i stdafx.obj
 0001:00006660       ??_Eerror_category@std@@UAEPAXI@Z 10007660 f i * CIL library *:* CIL module *
 0001:00006660       ??_Gerror_category@std@@UAEPAXI@Z 10007660 f i stdafx.obj
 0001:00006690       ?value@error_code@std@@QBEHXZ 10007690 f i stdafx.obj
 0001:000066a0       ?category@error_code@std@@QBEABVerror_category@2@XZ 100076a0 f i stdafx.obj
 0001:000066b0       ??0error_condition@std@@QAE@HABVerror_category@1@@Z 100076b0 f i stdafx.obj
 0001:000066d0       ?value@error_condition@std@@QBEHXZ 100076d0 f i stdafx.obj
 0001:000066e0       ?category@error_condition@std@@QBEABVerror_category@2@XZ 100076e0 f i stdafx.obj
 0001:000066f0       ??8error_condition@std@@QBE_NABV01@@Z 100076f0 f i stdafx.obj
 0001:00006710       ?default_error_condition@error_category@std@@UBE?AVerror_condition@2@H@Z 10007710 f i stdafx.obj
 0001:00006720       ?equivalent@error_category@std@@UBE_NHABVerror_condition@2@@Z 10007720 f i stdafx.obj
 0001:00006760       ?equivalent@error_category@std@@UBE_NABVerror_code@2@H@Z 10007760 f i stdafx.obj
 0001:00006780       ??0_Generic_error_category@std@@QAE@XZ 10007780 f i stdafx.obj
 0001:00006790       ?name@_Generic_error_category@std@@UBEPBDXZ 10007790 f i stdafx.obj
 0001:000067a0       ?message@_Generic_error_category@std@@UBE?AV?$basic_string@DU?$char_traits@D@std@@V?$allocator@D@2@@2@H@Z 100077a0 f i stdafx.obj
 0001:00006810       ??_G_Generic_error_category@std@@UAEPAXI@Z 10007810 f i stdafx.obj
 0001:00006810       ??_E_Generic_error_category@std@@UAEPAXI@Z 10007810 f i * CIL library *:* CIL module *
 0001:00006840       ??1_Generic_error_category@std@@UAE@XZ 10007840 f i stdafx.obj
 0001:00006850       ??0_Iostream_error_category@std@@QAE@XZ 10007850 f i stdafx.obj
 0001:00006860       ?name@_Iostream_error_category@std@@UBEPBDXZ 10007860 f i stdafx.obj
 0001:00006870       ?message@_Iostream_error_category@std@@UBE?AV?$basic_string@DU?$char_traits@D@std@@V?$allocator@D@2@@2@H@Z 10007870 f i stdafx.obj
 0001:000068b0       ??_E_Iostream_error_category@std@@UAEPAXI@Z 100078b0 f i * CIL library *:* CIL module *
 0001:000068b0       ??_G_Iostream_error_category@std@@UAEPAXI@Z 100078b0 f i stdafx.obj
 0001:000068e0       ??1_Iostream_error_category@std@@UAE@XZ 100078e0 f i stdafx.obj
 0001:000068f0       ??0_System_error_category@std@@QAE@XZ 100078f0 f i stdafx.obj
 0001:00006900       ?name@_System_error_category@std@@UBEPBDXZ 10007900 f i stdafx.obj
 0001:00006910       ?message@_System_error_category@std@@UBE?AV?$basic_string@DU?$char_traits@D@std@@V?$allocator@D@2@@2@H@Z 10007910 f i stdafx.obj
 0001:00006980       ?default_error_condition@_System_error_category@std@@UBE?AVerror_condition@2@H@Z 10007980 f i stdafx.obj
 0001:000069b0       ??_E_System_error_category@std@@UAEPAXI@Z 100079b0 f i * CIL library *:* CIL module *
 0001:000069b0       ??_G_System_error_category@std@@UAEPAXI@Z 100079b0 f i stdafx.obj
 0001:000069e0       ??1_System_error_category@std@@UAE@XZ 100079e0 f i stdafx.obj
 0001:000069f0       ?generic_category@std@@YAABVerror_category@1@XZ 100079f0 f i stdafx.obj
 0001:00006a00       ?system_category@std@@YAABVerror_category@1@XZ 10007a00 f i stdafx.obj
 0001:00006a10       ??2@YAPAXI@Z               10007a10 f i stdafx.obj
 0001:00006a30       ??0?$basic_string@DU?$char_traits@D@std@@V?$allocator@D@2@@std@@QAE@PBD@Z 10007a30 f i stdafx.obj
 0001:00006a80       ??1?$basic_string@DU?$char_traits@D@std@@V?$allocator@D@2@@std@@QAE@XZ 10007a80 f i stdafx.obj
 0001:00006ab0       ?assign@?$basic_string@DU?$char_traits@D@std@@V?$allocator@D@2@@std@@QAEAAV12@ABV12@II@Z 10007ab0 f i stdafx.obj
 0001:00006b70       ?assign@?$basic_string@DU?$char_traits@D@std@@V?$allocator@D@2@@std@@QAEAAV12@PBD@Z 10007b70 f i stdafx.obj
 0001:00006bb0       ?size@?$basic_string@DU?$char_traits@D@std@@V?$allocator@D@2@@std@@QBEIXZ 10007bb0 f i stdafx.obj
 0001:00006bc0       ?_Tidy@?$basic_string@DU?$char_traits@D@std@@V?$allocator@D@2@@std@@QAEX_NI@Z 10007bc0 f i stdafx.obj
 0001:00006c10       ??0?$allocator@D@std@@QAE@XZ 10007c10 f i stdafx.obj
 0001:00006c20       ??0?$_String_alloc@$0A@U?$_String_base_types@DV?$allocator@D@std@@@std@@@std@@QAE@ABV?$allocator@D@1@@Z 10007c20 f i stdafx.obj
 0001:00006c40       ?_Getal@?$_String_alloc@$0A@U?$_String_base_types@DV?$allocator@D@std@@@std@@@std@@QBE?AU?$_Wrap_alloc@V?$allocator@D@std@@@2@XZ 10007c40 f i stdafx.obj
 0001:00006c50       ?_Myptr@?$_String_val@U?$_Simple_types@D@std@@@std@@QAEPADXZ 10007c50 f i stdafx.obj
 0001:00006c60       ?_Myptr@?$_String_val@U?$_Simple_types@D@std@@@std@@QBEPBDXZ 10007c60 f i stdafx.obj
 0001:00006c70       ?assign@?$basic_string@DU?$char_traits@D@std@@V?$allocator@D@2@@std@@QAEAAV12@PBDI@Z 10007c70 f i stdafx.obj
 0001:00006d30       ?erase@?$basic_string@DU?$char_traits@D@std@@V?$allocator@D@2@@std@@QAEAAV12@I@Z 10007d30 f i stdafx.obj
 0001:00006d70       ?erase@?$basic_string@DU?$char_traits@D@std@@V?$allocator@D@2@@std@@QAEAAV12@II@Z 10007d70 f i stdafx.obj
 0001:00006df0       ?_Eos@?$basic_string@DU?$char_traits@D@std@@V?$allocator@D@2@@std@@QAEXI@Z 10007df0 f i stdafx.obj
 0001:00006e10       ?_Grow@?$basic_string@DU?$char_traits@D@std@@V?$allocator@D@2@@std@@QAE_NI_N@Z 10007e10 f i stdafx.obj
 0001:00006e60       ?_Inside@?$basic_string@DU?$char_traits@D@std@@V?$allocator@D@2@@std@@QAE_NPBD@Z 10007e60 f i stdafx.obj
 0001:00006ea0       ?_Xlen@?$basic_string@DU?$char_traits@D@std@@V?$allocator@D@2@@std@@QBEXXZ 10007ea0 f i stdafx.obj
 0001:00006eb0       ?_Xran@?$basic_string@DU?$char_traits@D@std@@V?$allocator@D@2@@std@@QBEXXZ 10007eb0 f i stdafx.obj
 0001:00006ec0       ??0?$_Wrap_alloc@V?$allocator@D@std@@@std@@QAE@XZ 10007ec0 f i stdafx.obj
 0001:00006ed0       ?deallocate@?$_Wrap_alloc@V?$allocator@D@std@@@std@@QAEXPADI@Z 10007ed0 f i stdafx.obj
 0001:00006ef0       ??0?$_String_val@U?$_Simple_types@D@std@@@std@@QAE@XZ 10007ef0 f i stdafx.obj
 0001:00006f10       ?max_size@?$basic_string@DU?$char_traits@D@std@@V?$allocator@D@2@@std@@QBEIXZ 10007f10 f i stdafx.obj
 0001:00006f30       ?_Copy@?$basic_string@DU?$char_traits@D@std@@V?$allocator@D@2@@std@@QAEXII@Z 10007f30 f i stdafx.obj
 0001:00007080       ?deallocate@?$allocator@D@std@@QAEXPADI@Z 10008080 f i stdafx.obj
 0001:000070a0       ?allocate@?$_Wrap_alloc@V?$allocator@D@std@@@std@@QAEPADI@Z 100080a0 f i stdafx.obj
 0001:000070d0       ?max_size@?$_Wrap_alloc@V?$allocator@D@std@@@std@@QBEIXZ 100080d0 f i stdafx.obj
 0001:000070e0       ?allocate@?$allocator@D@std@@QAEPADI@Z 100080e0 f i stdafx.obj
 0001:00007110       ?max_size@?$allocator_traits@V?$allocator@D@std@@@std@@SAIABV?$allocator@D@2@@Z 10008110 f i stdafx.obj
 0001:00007120       ?max_size@?$allocator@D@std@@QBEIXZ 10008120 f i stdafx.obj
 0001:00007130       ??$construct@PADAAPAD@?$_Wrap_alloc@V?$allocator@D@std@@@std@@QAEXPAPADAAPAD@Z 10008130 f i stdafx.obj
 0001:00007150       ??$destroy@PAD@?$_Wrap_alloc@V?$allocator@D@std@@@std@@QAEXPAPAD@Z 10008150 f i stdafx.obj
 0001:00007160       ??$addressof@D@std@@YAPADAAD@Z 10008160 f i stdafx.obj
 0001:00007170       ??$_Allocate@D@std@@YAPADIPAD@Z 10008170 f i stdafx.obj
 0001:000071a0       ??$forward@AAPAD@std@@YAAAPADAAPAD@Z 100081a0 f i stdafx.obj
 0001:000071b0       ??$construct@PADAAPAD@?$allocator_traits@V?$allocator@D@std@@@std@@SAXAAV?$allocator@D@1@PAPADAAPAD@Z 100081b0 f i stdafx.obj
 0001:000071c0       ??$destroy@PAD@?$allocator_traits@V?$allocator@D@std@@@std@@SAXAAV?$allocator@D@1@PAPAD@Z 100081c0 f i stdafx.obj
 0001:000071d0       ??$construct@PADAAPAD@?$allocator@D@std@@QAEXPAPADAAPAD@Z 100081d0 f i stdafx.obj
 0001:000071f0       ??$destroy@PAD@?$allocator@D@std@@QAEXPAPAD@Z 100081f0 f i stdafx.obj
 0001:00007200       ?apply@CCC_detail_radius@@QAEXXZ 10008200 f i xrRender_console.obj
 0001:000072c0       ??0CCC_detail_radius@@QAE@PBDPAHHH@Z 100082c0 f i xrRender_console.obj
 0001:000072f0       ?Execute@CCC_detail_radius@@UAEXPBD@Z 100082f0 f i xrRender_console.obj
 0001:00007310       ?Status@CCC_detail_radius@@UAEXAAY0BAA@D@Z 10008310 f i xrRender_console.obj
 0001:00007320       ??_ECCC_detail_radius@@UAEPAXI@Z 10008320 f i * CIL library *:* CIL module *
 0001:00007320       ??_GCCC_detail_radius@@UAEPAXI@Z 10008320 f i xrRender_console.obj
 0001:00007350       ??1CCC_detail_radius@@UAE@XZ 10008350 f i xrRender_console.obj
 0001:00007360       ?apply@CCC_tf_Aniso@@QAEXXZ 10008360 f i xrRender_console.obj
 0001:000073c0       ??0CCC_tf_Aniso@@QAE@PBDPAH@Z 100083c0 f i xrRender_console.obj
 0001:000073f0       ?Execute@CCC_tf_Aniso@@UAEXPBD@Z 100083f0 f i xrRender_console.obj
 0001:00007410       ?Status@CCC_tf_Aniso@@UAEXAAY0BAA@D@Z 10008410 f i xrRender_console.obj
 0001:00007430       ??_GCCC_tf_Aniso@@UAEPAXI@Z 10008430 f i xrRender_console.obj
 0001:00007430       ??_ECCC_tf_Aniso@@UAEPAXI@Z 10008430 f i * CIL library *:* CIL module *
 0001:00007460       ??1CCC_tf_Aniso@@UAE@XZ    10008460 f i xrRender_console.obj
 0001:00007470       ?apply@CCC_tf_MipBias@@QAEXXZ 10008470 f i xrRender_console.obj
 0001:000074c0       ??0CCC_tf_MipBias@@QAE@PBDPAM@Z 100084c0 f i xrRender_console.obj
 0001:000074f0       ?Execute@CCC_tf_MipBias@@UAEXPBD@Z 100084f0 f i xrRender_console.obj
 0001:00007510       ?Status@CCC_tf_MipBias@@UAEXAAY0BAA@D@Z 10008510 f i xrRender_console.obj
 0001:00007530       ??_ECCC_tf_MipBias@@UAEPAXI@Z 10008530 f i * CIL library *:* CIL module *
 0001:00007530       ??_GCCC_tf_MipBias@@UAEPAXI@Z 10008530 f i xrRender_console.obj
 0001:00007560       ??1CCC_tf_MipBias@@UAE@XZ  10008560 f i xrRender_console.obj
 0001:00007570       ??0CCC_R2GM@@QAE@PBDPAM@Z  10008570 f i xrRender_console.obj
 0001:000075c0       ?Execute@CCC_R2GM@@UAEXPBD@Z 100085c0 f i xrRender_console.obj
 0001:00007760       ??_ECCC_R2GM@@UAEPAXI@Z    10008760 f i * CIL library *:* CIL module *
 0001:00007760       ??_GCCC_R2GM@@UAEPAXI@Z    10008760 f i xrRender_console.obj
 0001:00007790       ??1CCC_R2GM@@UAE@XZ        10008790 f i xrRender_console.obj
 0001:000077a0       ??0CCC_Screenshot@@QAE@PBD@Z 100087a0 f i xrRender_console.obj
 0001:000077d0       ?Execute@CCC_Screenshot@@UAEXPBD@Z 100087d0 f i xrRender_console.obj
 0001:00007840       ??_GCCC_Screenshot@@UAEPAXI@Z 10008840 f i xrRender_console.obj
 0001:00007840       ??_ECCC_Screenshot@@UAEPAXI@Z 10008840 f i * CIL library *:* CIL module *
 0001:00007870       ??1CCC_Screenshot@@UAE@XZ  10008870 f i xrRender_console.obj
 0001:00007880       ??0CCC_RestoreQuadIBData@@QAE@PBD@Z 10008880 f i xrRender_console.obj
 0001:000078b0       ?Execute@CCC_RestoreQuadIBData@@UAEXPBD@Z 100088b0 f i xrRender_console.obj
 0001:000078c0       ??_ECCC_RestoreQuadIBData@@UAEPAXI@Z 100088c0 f i * CIL library *:* CIL module *
 0001:000078c0       ??_GCCC_RestoreQuadIBData@@UAEPAXI@Z 100088c0 f i xrRender_console.obj
 0001:000078f0       ??1CCC_RestoreQuadIBData@@UAE@XZ 100088f0 f i xrRender_console.obj
 0001:00007900       ??0CCC_SSAO_Mode@@QAE@PBDPAIPAUxr_token@@@Z 10008900 f i xrRender_console.obj
 0001:00007930       ?Execute@CCC_SSAO_Mode@@UAEXPBD@Z 10008930 f i xrRender_console.obj
 0001:000079f0       ??_GCCC_SSAO_Mode@@UAEPAXI@Z 100089f0 f i xrRender_console.obj
 0001:000079f0       ??_ECCC_SSAO_Mode@@UAEPAXI@Z 100089f0 f i * CIL library *:* CIL module *
 0001:00007a20       ??1CCC_SSAO_Mode@@UAE@XZ   10008a20 f i xrRender_console.obj
 0001:00007a30       ??0CCC_Preset@@QAE@PBDPAIPAUxr_token@@@Z 10008a30 f i xrRender_console.obj
 0001:00007a60       ?Execute@CCC_Preset@@UAEXPBD@Z 10008a60 f i xrRender_console.obj
 0001:00007b30       ??_GCCC_Preset@@UAEPAXI@Z  10008b30 f i xrRender_console.obj
 0001:00007b30       ??_ECCC_Preset@@UAEPAXI@Z  10008b30 f i * CIL library *:* CIL module *
 0001:00007b60       ??1CCC_Preset@@UAE@XZ      10008b60 f i xrRender_console.obj
 0001:00007b70       ??0CCC_PP@@QAE@PBDPAIPAUxr_token@@PAU?$_flags@I@@I@Z 10008b70 f i xrRender_console.obj
 0001:00007bb0       ?Execute@CCC_PP@@UAEXPBD@Z 10008bb0 f i xrRender_console.obj
 0001:00007c10       ??_GCCC_PP@@UAEPAXI@Z      10008c10 f i xrRender_console.obj
 0001:00007c10       ??_ECCC_PP@@UAEPAXI@Z      10008c10 f i * CIL library *:* CIL module *
 0001:00007c40       ??1CCC_PP@@UAE@XZ          10008c40 f i xrRender_console.obj
 0001:00007c50       ??0CCC_memory_stats@@QAE@PBD@Z 10008c50 f i xrRender_console.obj
 0001:00007c80       ?Execute@CCC_memory_stats@@UAEXPBD@Z 10008c80 f i xrRender_console.obj
 0001:00007fc0       ??_GCCC_memory_stats@@UAEPAXI@Z 10008fc0 f i xrRender_console.obj
 0001:00007fc0       ??_ECCC_memory_stats@@UAEPAXI@Z 10008fc0 f i * CIL library *:* CIL module *
 0001:00007ff0       ??1CCC_memory_stats@@UAE@XZ 10008ff0 f i xrRender_console.obj
 0001:00008000       ??0CCC_DofFar@@QAE@PBDPAMMM@Z 10009000 f i xrRender_console.obj
 0001:00008040       ?Execute@CCC_DofFar@@UAEXPBD@Z 10009040 f i xrRender_console.obj
 0001:00008100       ?Save@CCC_DofFar@@UAEXPAVIWriter@@@Z 10009100 f i xrRender_console.obj
 0001:00008110       ??_ECCC_DofFar@@UAEPAXI@Z  10009110 f i * CIL library *:* CIL module *
 0001:00008110       ??_GCCC_DofFar@@UAEPAXI@Z  10009110 f i xrRender_console.obj
 0001:00008140       ??1CCC_DofFar@@UAE@XZ      10009140 f i xrRender_console.obj
 0001:00008150       ??0CCC_DofNear@@QAE@PBDPAMMM@Z 10009150 f i xrRender_console.obj
 0001:00008190       ?Execute@CCC_DofNear@@UAEXPBD@Z 10009190 f i xrRender_console.obj
 0001:00008250       ?Save@CCC_DofNear@@UAEXPAVIWriter@@@Z 10009250 f i xrRender_console.obj
 0001:00008260       ??_GCCC_DofNear@@UAEPAXI@Z 10009260 f i xrRender_console.obj
 0001:00008260       ??_ECCC_DofNear@@UAEPAXI@Z 10009260 f i * CIL library *:* CIL module *
 0001:00008290       ??1CCC_DofNear@@UAE@XZ     10009290 f i xrRender_console.obj
 0001:000082a0       ??0CCC_DofFocus@@QAE@PBDPAMMM@Z 100092a0 f i xrRender_console.obj
 0001:000082e0       ?Execute@CCC_DofFocus@@UAEXPBD@Z 100092e0 f i xrRender_console.obj
 0001:000083f0       ?Save@CCC_DofFocus@@UAEXPAVIWriter@@@Z 100093f0 f i xrRender_console.obj
 0001:00008400       ??_ECCC_DofFocus@@UAEPAXI@Z 10009400 f i * CIL library *:* CIL module *
 0001:00008400       ??_GCCC_DofFocus@@UAEPAXI@Z 10009400 f i xrRender_console.obj
 0001:00008430       ??1CCC_DofFocus@@UAE@XZ    10009430 f i xrRender_console.obj
 0001:00008440       ??0CCC_Dof@@QAE@PBDPAU?$_vector3@M@@U1@2@Z 10009440 f i xrRender_console.obj
 0001:000084a0       ?Execute@CCC_Dof@@UAEXPBD@Z 100094a0 f i xrRender_console.obj
 0001:00008560       ?Status@CCC_Dof@@UAEXAAY0BAA@D@Z 10009560 f i xrRender_console.obj
 0001:000085b0       ?Info@CCC_Dof@@UAEXAAY0BAA@D@Z 100095b0 f i xrRender_console.obj
 0001:00008630       ??_ECCC_Dof@@UAEPAXI@Z     10009630 f i * CIL library *:* CIL module *
 0001:00008630       ??_GCCC_Dof@@UAEPAXI@Z     10009630 f i xrRender_console.obj
 0001:00008660       ??1CCC_Dof@@UAE@XZ         10009660 f i xrRender_console.obj
 0001:00008670       ?xrRender_initconsole@@YAXXZ 10009670 f   xrRender_console.obj
 0001:0000ab30       ?xrRender_apply_tf@@YAXXZ  1000bb30 f   xrRender_console.obj
 0001:0000ab60       ??$sprintf_s@$0BAA@@@YAHAAY0BAA@DPBDZZ 1000bb60 f i xrRender_console.obj
 0001:0000ab80       ??$clamp@H@@YAXAAHABH1@Z   1000bb80 f i xrRender_console.obj
 0001:0000ab90       ?set@?$_flags@I@@QAEAAU1@IH@Z 1000bb90 f i xrRender_console.obj
 0001:0000abb0       ?set@?$_vector3@M@@QAEAAU1@MMM@Z 1000bbb0 f i xrRender_console.obj
 0001:0000abd0       _DllMain@12                1000bbd0 f   xrRender_R2.obj
 0001:0000ac00       _SupportsAdvancedRendering 1000bc00 f   xrRender_R2.obj
 0001:0000ac70       ?ped_sort_pred@@YA_NPBVCPEDef@PS@@0@Z 1000bc70 f   PSLibrary.obj
 0001:0000acd0       ?pgd_sort_pred@@YA_NPBVCPGDef@PS@@0@Z 1000bcd0 f   PSLibrary.obj
 0001:0000ad30       ?ped_find_pred@@YA_NPBVCPEDef@PS@@PBD@Z 1000bd30 f   PSLibrary.obj
 0001:0000ad80       ?pgd_find_pred@@YA_NPBVCPGDef@PS@@PBD@Z 1000bd80 f   PSLibrary.obj
 0001:0000add0       ?OnCreate@CPSLibrary@@QAEXXZ 1000bdd0 f   PSLibrary.obj
 0001:0000ae10       ?OnDestroy@CPSLibrary@@QAEXXZ 1000be10 f   PSLibrary.obj
 0001:0000af00       ?FindPEDIt@CPSLibrary@@QAE?AV?$_Vector_iterator@V?$_Vector_val@U?$_Simple_types@PAVCPEDef@PS@@@std@@@std@@@std@@PBD@Z 1000bf00 f   PSLibrary.obj
 0001:0000af90       ?FindPED@CPSLibrary@@QAEPAVCPEDef@PS@@PBD@Z 1000bf90 f   PSLibrary.obj
 0001:0000afc0       ?FindPGDIt@CPSLibrary@@QAE?AV?$_Vector_iterator@V?$_Vector_val@U?$_Simple_types@PAVCPGDef@PS@@@std@@@std@@@std@@PBD@Z 1000bfc0 f   PSLibrary.obj
 0001:0000b050       ?FindPGD@CPSLibrary@@QAEPAVCPGDef@PS@@PBD@Z 1000c050 f   PSLibrary.obj
 0001:0000b080       ?RenamePED@CPSLibrary@@QAEXPAVCPEDef@PS@@PBD@Z 1000c080 f   PSLibrary.obj
 0001:0000b100       ?RenamePGD@CPSLibrary@@QAEXPAVCPGDef@PS@@PBD@Z 1000c100 f   PSLibrary.obj
 0001:0000b180       ?Remove@CPSLibrary@@QAEXPBD@Z 1000c180 f   PSLibrary.obj
 0001:0000b250       ?Load2@CPSLibrary@@QAE_NXZ 1000c250 f   PSLibrary.obj
 0001:0000b6a0       ??0?$xr_set@UFS_File@@U?$less@UFS_File@@@std@@V?$xalloc@UFS_File@@@@@@QAE@XZ 1000c6a0 f i PSLibrary.obj
 0001:0000b6c0       ??1?$xr_set@UFS_File@@U?$less@UFS_File@@@std@@V?$xalloc@UFS_File@@@@@@QAE@XZ 1000c6c0 f i PSLibrary.obj
 0001:0000b6f0       ??1?$set@UFS_File@@U?$less@UFS_File@@@std@@V?$xalloc@UFS_File@@@@@std@@QAE@XZ 1000c6f0 f i PSLibrary.obj
 0001:0000b720       ?Load@CPSLibrary@@QAE_NPBD@Z 1000c720 f   PSLibrary.obj
 0001:0000ba90       ?Reload@CPSLibrary@@QAEXXZ 1000ca90 f   PSLibrary.obj
 0001:0000bae0       ?particles_group_begin@CPSLibrary@@UBEPBQBVCPGDef@PS@@XZ 1000cae0 f   PSLibrary.obj
 0001:0000bb00       ?particles_group_end@CPSLibrary@@UBEPBQBVCPGDef@PS@@XZ 1000cb00 f   PSLibrary.obj
 0001:0000bb20       ?particles_group_next@CPSLibrary@@UBEXAAPBQBVCPGDef@PS@@@Z 1000cb20 f   PSLibrary.obj
 0001:0000bb30       ?particles_group_id@CPSLibrary@@UBEABVshared_str@@ABVCPGDef@PS@@@Z 1000cb30 f   PSLibrary.obj
 0001:0000bb40       ?size@?$xr_set@UFS_File@@U?$less@UFS_File@@@std@@V?$xalloc@UFS_File@@@@@@QBEIXZ 1000cb40 f i PSLibrary.obj
 0001:0000bb50       ??0?$set@UFS_File@@U?$less@UFS_File@@@std@@V?$xalloc@UFS_File@@@@@std@@QAE@XZ 1000cb50 f i PSLibrary.obj
 0001:0000bb70       ??1?$_Tree@V?$_Tset_traits@UFS_File@@U?$less@UFS_File@@@std@@V?$xalloc@UFS_File@@@@$0A@@std@@@std@@QAE@XZ 1000cb70 f i PSLibrary.obj
 0001:0000bba0       ?begin@?$_Tree@V?$_Tset_traits@UFS_File@@U?$less@UFS_File@@@std@@V?$xalloc@UFS_File@@@@$0A@@std@@@std@@QAE?AV?$_Tree_const_iterator@V?$_Tree_val@U?$_Tree_simple_types@UFS_File@@@std@@@std@@@2@XZ 1000cba0 f i PSLibrary.obj
 0001:0000bbb0       ?end@?$_Tree@V?$_Tset_traits@UFS_File@@U?$less@UFS_File@@@std@@V?$xalloc@UFS_File@@@@$0A@@std@@@std@@QAE?AV?$_Tree_const_iterator@V?$_Tree_val@U?$_Tree_simple_types@UFS_File@@@std@@@std@@@2@XZ 1000cbb0 f i PSLibrary.obj
 0001:0000bbc0       ?clear@?$xr_vector@PAVCPEDef@PS@@V?$xalloc@PAVCPEDef@PS@@@@@@QAEXXZ 1000cbc0 f i PSLibrary.obj
 0001:0000bbd0       ?push_back@?$vector@PAVCPEDef@PS@@V?$xalloc@PAVCPEDef@PS@@@@@std@@QAEXABQAVCPEDef@PS@@@Z 1000cbd0 f i PSLibrary.obj
 0001:0000bc30       ?erase@?$vector@PAVCPEDef@PS@@V?$xalloc@PAVCPEDef@PS@@@@@std@@QAE?AV?$_Vector_iterator@V?$_Vector_val@U?$_Simple_types@PAVCPEDef@PS@@@std@@@std@@@2@V?$_Vector_const_iterator@V?$_Vector_val@U?$_Simple_types@PAVCPEDef@PS@@@std@@@std@@@2@@Z 1000cc30 f i PSLibrary.obj
 0001:0000bc70       ?size@?$xr_vector@PAVCPGDef@PS@@V?$xalloc@PAVCPGDef@PS@@@@@@QBEIXZ 1000cc70 f i PSLibrary.obj
 0001:0000bc80       ?clear@?$xr_vector@PAVCPGDef@PS@@V?$xalloc@PAVCPGDef@PS@@@@@@QAEXXZ 1000cc80 f i PSLibrary.obj
 0001:0000bc90       ?begin@?$vector@PAVCPGDef@PS@@V?$xalloc@PAVCPGDef@PS@@@@@std@@QBE?AV?$_Vector_const_iterator@V?$_Vector_val@U?$_Simple_types@PAVCPGDef@PS@@@std@@@std@@@2@XZ 1000cc90 f i PSLibrary.obj
 0001:0000bca0       ?end@?$vector@PAVCPGDef@PS@@V?$xalloc@PAVCPGDef@PS@@@@@std@@QBE?AV?$_Vector_const_iterator@V?$_Vector_val@U?$_Simple_types@PAVCPGDef@PS@@@std@@@std@@@2@XZ 1000cca0 f i PSLibrary.obj
 0001:0000bcb0       ?push_back@?$vector@PAVCPGDef@PS@@V?$xalloc@PAVCPGDef@PS@@@@@std@@QAEXABQAVCPGDef@PS@@@Z 1000ccb0 f i PSLibrary.obj
 0001:0000bd10       ?erase@?$vector@PAVCPGDef@PS@@V?$xalloc@PAVCPGDef@PS@@@@@std@@QAE?AV?$_Vector_iterator@V?$_Vector_val@U?$_Simple_types@PAVCPGDef@PS@@@std@@@std@@@2@V?$_Vector_const_iterator@V?$_Vector_val@U?$_Simple_types@PAVCPGDef@PS@@@std@@@std@@@2@@Z 1000cd10 f i PSLibrary.obj
 0001:0000bd50       ??D?$_Vector_iterator@V?$_Vector_val@U?$_Simple_types@PAVCPEDef@PS@@@std@@@std@@@std@@QBEAAPAVCPEDef@PS@@XZ 1000cd50 f i PSLibrary.obj
 0001:0000bd60       ??E?$_Vector_iterator@V?$_Vector_val@U?$_Simple_types@PAVCPEDef@PS@@@std@@@std@@@std@@QAE?AV01@H@Z 1000cd60 f i PSLibrary.obj
 0001:0000bd70       ??8?$_Vector_const_iterator@V?$_Vector_val@U?$_Simple_types@PAVCPEDef@PS@@@std@@@std@@@std@@QBE_NABV01@@Z 1000cd70 f i PSLibrary.obj
 0001:0000bd80       ??9?$_Vector_const_iterator@V?$_Vector_val@U?$_Simple_types@PAVCPEDef@PS@@@std@@@std@@@std@@QBE_NABV01@@Z 1000cd80 f i PSLibrary.obj
 0001:0000bd90       ??D?$_Vector_iterator@V?$_Vector_val@U?$_Simple_types@PAVCPGDef@PS@@@std@@@std@@@std@@QBEAAPAVCPGDef@PS@@XZ 1000cd90 f i PSLibrary.obj
 0001:0000bda0       ??E?$_Vector_iterator@V?$_Vector_val@U?$_Simple_types@PAVCPGDef@PS@@@std@@@std@@@std@@QAE?AV01@H@Z 1000cda0 f i PSLibrary.obj
 0001:0000bdb0       ??D?$_Vector_const_iterator@V?$_Vector_val@U?$_Simple_types@PAVCPGDef@PS@@@std@@@std@@@std@@QBEABQAVCPGDef@PS@@XZ 1000cdb0 f i PSLibrary.obj
 0001:0000bdc0       ??8?$_Vector_const_iterator@V?$_Vector_val@U?$_Simple_types@PAVCPGDef@PS@@@std@@@std@@@std@@QBE_NABV01@@Z 1000cdc0 f i PSLibrary.obj
 0001:0000bdd0       ??9?$_Vector_const_iterator@V?$_Vector_val@U?$_Simple_types@PAVCPGDef@PS@@@std@@@std@@@std@@QBE_NABV01@@Z 1000cdd0 f i PSLibrary.obj
 0001:0000bde0       ??D?$_Tree_const_iterator@V?$_Tree_val@U?$_Tree_simple_types@UFS_File@@@std@@@std@@@std@@QBEABUFS_File@@XZ 1000cde0 f i PSLibrary.obj
 0001:0000bdf0       ??E?$_Tree_const_iterator@V?$_Tree_val@U?$_Tree_simple_types@UFS_File@@@std@@@std@@@std@@QAEAAV01@XZ 1000cdf0 f i PSLibrary.obj
 0001:0000be00       ??9?$_Tree_const_iterator@V?$_Tree_val@U?$_Tree_simple_types@UFS_File@@@std@@@std@@@std@@QBE_NABV01@@Z 1000ce00 f i PSLibrary.obj
 0001:0000be10       ??1?$_Tree_comp@$0A@V?$_Tset_traits@UFS_File@@U?$less@UFS_File@@@std@@V?$xalloc@UFS_File@@@@$0A@@std@@@std@@QAE@XZ 1000ce10 f i PSLibrary.obj
 0001:0000be30       ??1?$_Tree_buy@UFS_File@@V?$xalloc@UFS_File@@@@@std@@QAE@XZ 1000ce30 f i PSLibrary.obj
 0001:0000be50       ??0?$_Tree@V?$_Tset_traits@UFS_File@@U?$less@UFS_File@@@std@@V?$xalloc@UFS_File@@@@$0A@@std@@@std@@QAE@ABU?$less@UFS_File@@@1@ABV?$xalloc@UFS_File@@@@@Z 1000ce50 f i PSLibrary.obj
 0001:0000be70       ?size@?$_Tree@V?$_Tset_traits@UFS_File@@U?$less@UFS_File@@@std@@V?$xalloc@UFS_File@@@@$0A@@std@@@std@@QBEIXZ 1000ce70 f i PSLibrary.obj
 0001:0000be80       ?_Lmost@?$_Tree@V?$_Tset_traits@UFS_File@@U?$less@UFS_File@@@std@@V?$xalloc@UFS_File@@@@$0A@@std@@@std@@IBEAAPAU?$_Tree_node@UFS_File@@PAX@2@XZ 1000ce80 f i PSLibrary.obj
 0001:0000be90       ?_Tidy@?$_Tree@V?$_Tset_traits@UFS_File@@U?$less@UFS_File@@@std@@V?$xalloc@UFS_File@@@@$0A@@std@@@std@@IAEXXZ 1000ce90 f i PSLibrary.obj
 0001:0000beb0       ??0?$xalloc@UFS_File@@@@QAE@XZ 1000ceb0 f i PSLibrary.obj
 0001:0000bec0       ??1?$_Tree_alloc@$0A@U?$_Tree_base_types@UFS_File@@V?$xalloc@UFS_File@@@@@std@@@std@@QAE@XZ 1000cec0 f i PSLibrary.obj
 0001:0000bee0       ?_Myval@?$_Tree_val@U?$_Tree_simple_types@UFS_File@@@std@@@std@@SAAAUFS_File@@PAU?$_Tree_node@UFS_File@@PAX@2@@Z 1000cee0 f i PSLibrary.obj
 0001:0000bef0       ?clear_and_free@?$xr_vector@PAVCPEDef@PS@@V?$xalloc@PAVCPEDef@PS@@@@@@QAEXXZ 1000cef0 f i PSLibrary.obj
 0001:0000bf00       ?_Make_iter@?$vector@PAVCPEDef@PS@@V?$xalloc@PAVCPEDef@PS@@@@@std@@QBE?AV?$_Vector_iterator@V?$_Vector_val@U?$_Simple_types@PAVCPEDef@PS@@@std@@@std@@@2@V?$_Vector_const_iterator@V?$_Vector_val@U?$_Simple_types@PAVCPEDef@PS@@@std@@@std@@@2@@Z 1000cf00 f i PSLibrary.obj
 0001:0000bf10       ?_Inside@?$vector@PAVCPEDef@PS@@V?$xalloc@PAVCPEDef@PS@@@@@std@@IBE_NPBQAVCPEDef@PS@@@Z 1000cf10 f i PSLibrary.obj
 0001:0000bf30       ?_Reserve@?$vector@PAVCPEDef@PS@@V?$xalloc@PAVCPEDef@PS@@@@@std@@IAEXI@Z 1000cf30 f i PSLibrary.obj
 0001:0000bfa0       ?_Orphan_range@?$vector@PAVCPEDef@PS@@V?$xalloc@PAVCPEDef@PS@@@@@std@@IBEXPAPAVCPEDef@PS@@0@Z 1000cfa0 f i PSLibrary.obj
 0001:0000bfb0       ?clear_and_free@?$xr_vector@PAVCPGDef@PS@@V?$xalloc@PAVCPGDef@PS@@@@@@QAEXXZ 1000cfb0 f i PSLibrary.obj
 0001:0000bfc0       ?_Make_iter@?$vector@PAVCPGDef@PS@@V?$xalloc@PAVCPGDef@PS@@@@@std@@QBE?AV?$_Vector_iterator@V?$_Vector_val@U?$_Simple_types@PAVCPGDef@PS@@@std@@@std@@@2@V?$_Vector_const_iterator@V?$_Vector_val@U?$_Simple_types@PAVCPGDef@PS@@@std@@@std@@@2@@Z 1000cfc0 f i PSLibrary.obj
 0001:0000bfd0       ?size@?$vector@PAVCPGDef@PS@@V?$xalloc@PAVCPGDef@PS@@@@@std@@QBEIXZ 1000cfd0 f i PSLibrary.obj
 0001:0000bfe0       ?_Inside@?$vector@PAVCPGDef@PS@@V?$xalloc@PAVCPGDef@PS@@@@@std@@IBE_NPBQAVCPGDef@PS@@@Z 1000cfe0 f i PSLibrary.obj
 0001:0000c000       ?_Reserve@?$vector@PAVCPGDef@PS@@V?$xalloc@PAVCPGDef@PS@@@@@std@@IAEXI@Z 1000d000 f i PSLibrary.obj
 0001:0000c070       ?_Orphan_range@?$vector@PAVCPGDef@PS@@V?$xalloc@PAVCPGDef@PS@@@@@std@@IBEXPAPAVCPGDef@PS@@0@Z 1000d070 f i PSLibrary.obj
 0001:0000c080       ??E?$_Vector_iterator@V?$_Vector_val@U?$_Simple_types@PAVCPEDef@PS@@@std@@@std@@@std@@QAEAAV01@XZ 1000d080 f i PSLibrary.obj
 0001:0000c090       ??D?$_Vector_const_iterator@V?$_Vector_val@U?$_Simple_types@PAVCPEDef@PS@@@std@@@std@@@std@@QBEABQAVCPEDef@PS@@XZ 1000d090 f i PSLibrary.obj
 0001:0000c0a0       ?_Compat@?$_Vector_const_iterator@V?$_Vector_val@U?$_Simple_types@PAVCPEDef@PS@@@std@@@std@@@std@@QBEXABV12@@Z 1000d0a0 f i PSLibrary.obj
 0001:0000c0b0       ??E?$_Vector_iterator@V?$_Vector_val@U?$_Simple_types@PAVCPGDef@PS@@@std@@@std@@@std@@QAEAAV01@XZ 1000d0b0 f i PSLibrary.obj
 0001:0000c0c0       ?_Compat@?$_Vector_const_iterator@V?$_Vector_val@U?$_Simple_types@PAVCPGDef@PS@@@std@@@std@@@std@@QBEXABV12@@Z 1000d0c0 f i PSLibrary.obj
 0001:0000c0d0       ??0?$_Tree_const_iterator@V?$_Tree_val@U?$_Tree_simple_types@UFS_File@@@std@@@std@@@std@@QAE@PAU?$_Tree_node@UFS_File@@PAX@1@PBV?$_Tree_val@U?$_Tree_simple_types@UFS_File@@@std@@@1@@Z 1000d0d0 f i PSLibrary.obj
 0001:0000c0e0       ??8?$_Tree_const_iterator@V?$_Tree_val@U?$_Tree_simple_types@UFS_File@@@std@@@std@@@std@@QBE_NABV01@@Z 1000d0e0 f i PSLibrary.obj
 0001:0000c0f0       ??E?$_Tree_unchecked_const_iterator@V?$_Tree_val@U?$_Tree_simple_types@UFS_File@@@std@@@std@@U_Iterator_base0@2@@std@@QAEAAV01@XZ 1000d0f0 f i PSLibrary.obj
 0001:0000c140       ?erase@?$_Tree@V?$_Tset_traits@UFS_File@@U?$less@UFS_File@@@std@@V?$xalloc@UFS_File@@@@$0A@@std@@@std@@QAE?AV?$_Tree_const_iterator@V?$_Tree_val@U?$_Tree_simple_types@UFS_File@@@std@@@std@@@2@V32@0@Z 1000d140 f i PSLibrary.obj
 0001:0000c200       ??0?$_Tree_comp@$0A@V?$_Tset_traits@UFS_File@@U?$less@UFS_File@@@std@@V?$xalloc@UFS_File@@@@$0A@@std@@@std@@QAE@ABU?$less@UFS_File@@@1@ABV?$xalloc@UFS_File@@@@@Z 1000d200 f i PSLibrary.obj
 0001:0000c220       ?_Freeheadnode@?$_Tree_alloc@$0A@U?$_Tree_base_types@UFS_File@@V?$xalloc@UFS_File@@@@@std@@@std@@QAEXPAU?$_Tree_node@UFS_File@@PAX@2@@Z 1000d220 f i PSLibrary.obj
 0001:0000c240       ?_Isnil@?$_Tree_val@U?$_Tree_simple_types@UFS_File@@@std@@@std@@SAAADPAU?$_Tree_node@UFS_File@@PAX@2@@Z 1000d240 f i PSLibrary.obj
 0001:0000c250       ?_Left@?$_Tree_val@U?$_Tree_simple_types@UFS_File@@@std@@@std@@SAAAPAU?$_Tree_node@UFS_File@@PAX@2@PAU32@@Z 1000d250 f i PSLibrary.obj
 0001:0000c260       ?_Parent@?$_Tree_val@U?$_Tree_simple_types@UFS_File@@@std@@@std@@SAAAPAU?$_Tree_node@UFS_File@@PAX@2@PAU32@@Z 1000d260 f i PSLibrary.obj
 0001:0000c270       ?_Right@?$_Tree_val@U?$_Tree_simple_types@UFS_File@@@std@@@std@@SAAAPAU?$_Tree_node@UFS_File@@PAX@2@PAU32@@Z 1000d270 f i PSLibrary.obj
 0001:0000c280       ?_Min@?$_Tree_val@U?$_Tree_simple_types@UFS_File@@@std@@@std@@SAPAU?$_Tree_node@UFS_File@@PAX@2@PAU32@@Z 1000d280 f i PSLibrary.obj
 0001:0000c2a0       ?_Unused_capacity@?$vector@PAVCPEDef@PS@@V?$xalloc@PAVCPEDef@PS@@@@@std@@QBEIXZ 1000d2a0 f i PSLibrary.obj
 0001:0000c2b0       ?size@?$vector@PAVCPEDef@PS@@V?$xalloc@PAVCPEDef@PS@@@@@std@@QBEIXZ 1000d2b0 f i PSLibrary.obj
 0001:0000c2c0       ?max_size@?$vector@PAVCPEDef@PS@@V?$xalloc@PAVCPEDef@PS@@@@@std@@QBEIXZ 1000d2c0 f i PSLibrary.obj
 0001:0000c2d0       ?clear@?$vector@PAVCPEDef@PS@@V?$xalloc@PAVCPEDef@PS@@@@@std@@QAEXXZ 1000d2d0 f i PSLibrary.obj
 0001:0000c2e0       ?_Grow_to@?$vector@PAVCPEDef@PS@@V?$xalloc@PAVCPEDef@PS@@@@@std@@IBEII@Z 1000d2e0 f i PSLibrary.obj
 0001:0000c320       ?_Reallocate@?$vector@PAVCPEDef@PS@@V?$xalloc@PAVCPEDef@PS@@@@@std@@IAEXI@Z 1000d320 f i PSLibrary.obj
 0001:0000c3e0       ?_Xlen@?$vector@PAVCPEDef@PS@@V?$xalloc@PAVCPEDef@PS@@@@@std@@IBEXXZ 1000d3e0 f i PSLibrary.obj
 0001:0000c3f0       ?_Unused_capacity@?$vector@PAVCPGDef@PS@@V?$xalloc@PAVCPGDef@PS@@@@@std@@QBEIXZ 1000d3f0 f i PSLibrary.obj
 0001:0000c400       ?max_size@?$vector@PAVCPGDef@PS@@V?$xalloc@PAVCPGDef@PS@@@@@std@@QBEIXZ 1000d400 f i PSLibrary.obj
 0001:0000c410       ?clear@?$vector@PAVCPGDef@PS@@V?$xalloc@PAVCPGDef@PS@@@@@std@@QAEXXZ 1000d410 f i PSLibrary.obj
 0001:0000c420       ?_Grow_to@?$vector@PAVCPGDef@PS@@V?$xalloc@PAVCPGDef@PS@@@@@std@@IBEII@Z 1000d420 f i PSLibrary.obj
 0001:0000c460       ?_Reallocate@?$vector@PAVCPGDef@PS@@V?$xalloc@PAVCPGDef@PS@@@@@std@@IAEXI@Z 1000d460 f i PSLibrary.obj
 0001:0000c520       ?_Xlen@?$vector@PAVCPGDef@PS@@V?$xalloc@PAVCPGDef@PS@@@@@std@@IBEXXZ 1000d520 f i PSLibrary.obj
 0001:0000c530       ??E?$_Vector_const_iterator@V?$_Vector_val@U?$_Simple_types@PAVCPEDef@PS@@@std@@@std@@@std@@QAEAAV01@XZ 1000d530 f i PSLibrary.obj
 0001:0000c540       ??E?$_Vector_const_iterator@V?$_Vector_val@U?$_Simple_types@PAVCPGDef@PS@@@std@@@std@@@std@@QAEAAV01@XZ 1000d540 f i PSLibrary.obj
 0001:0000c550       ??0?$_Tree_unchecked_const_iterator@V?$_Tree_val@U?$_Tree_simple_types@UFS_File@@@std@@@std@@U_Iterator_base0@2@@std@@QAE@PAU?$_Tree_node@UFS_File@@PAX@1@PBV?$_Tree_val@U?$_Tree_simple_types@UFS_File@@@std@@@1@@Z 1000d550 f i PSLibrary.obj
 0001:0000c560       ?erase@?$_Tree@V?$_Tset_traits@UFS_File@@U?$less@UFS_File@@@std@@V?$xalloc@UFS_File@@@@$0A@@std@@@std@@QAE?AV?$_Tree_const_iterator@V?$_Tree_val@U?$_Tree_simple_types@UFS_File@@@std@@@std@@@2@V32@@Z 1000d560 f i PSLibrary.obj
 0001:0000c7b0       ?clear@?$_Tree@V?$_Tset_traits@UFS_File@@U?$less@UFS_File@@@std@@V?$xalloc@UFS_File@@@@$0A@@std@@@std@@QAEXXZ 1000d7b0 f i PSLibrary.obj
 0001:0000c7e0       ??0?$_Tree_buy@UFS_File@@V?$xalloc@UFS_File@@@@@std@@QAE@ABV?$xalloc@UFS_File@@@@@Z 1000d7e0 f i PSLibrary.obj
 0001:0000c800       ?_Getal@?$_Tree_alloc@$0A@U?$_Tree_base_types@UFS_File@@V?$xalloc@UFS_File@@@@@std@@@std@@QBE?AU?$_Wrap_alloc@V?$xalloc@U?$_Tree_node@UFS_File@@PAX@std@@@@@2@XZ 1000d800 f i PSLibrary.obj
 0001:0000c810       ?deallocate@?$_Wrap_alloc@V?$xalloc@U?$_Tree_node@UFS_File@@PAX@std@@@@@std@@QAEXPAU?$_Tree_node@UFS_File@@PAX@2@I@Z 1000d810 f i PSLibrary.obj
 0001:0000c830       ?capacity@?$vector@PAVCPEDef@PS@@V?$xalloc@PAVCPEDef@PS@@@@@std@@QBEIXZ 1000d830 f i PSLibrary.obj
 0001:0000c840       ?allocate@?$_Wrap_alloc@V?$xalloc@PAVCPEDef@PS@@@@@std@@QAEPAPAVCPEDef@PS@@I@Z 1000d840 f i PSLibrary.obj
 0001:0000c860       ?max_size@?$_Wrap_alloc@V?$xalloc@PAVCPEDef@PS@@@@@std@@QBEIXZ 1000d860 f i PSLibrary.obj
 0001:0000c870       ?capacity@?$vector@PAVCPGDef@PS@@V?$xalloc@PAVCPGDef@PS@@@@@std@@QBEIXZ 1000d870 f i PSLibrary.obj
 0001:0000c880       ?allocate@?$_Wrap_alloc@V?$xalloc@PAVCPGDef@PS@@@@@std@@QAEPAPAVCPGDef@PS@@I@Z 1000d880 f i PSLibrary.obj
 0001:0000c8a0       ?max_size@?$_Wrap_alloc@V?$xalloc@PAVCPGDef@PS@@@@@std@@QBEIXZ 1000d8a0 f i PSLibrary.obj
 0001:0000c8b0       ??E?$_Tree_const_iterator@V?$_Tree_val@U?$_Tree_simple_types@UFS_File@@@std@@@std@@@std@@QAE?AV01@H@Z 1000d8b0 f i PSLibrary.obj
 0001:0000c8d0       ?_Erase@?$_Tree@V?$_Tset_traits@UFS_File@@U?$less@UFS_File@@@std@@V?$xalloc@UFS_File@@@@$0A@@std@@@std@@IAEXPAU?$_Tree_node@UFS_File@@PAX@2@@Z 1000d8d0 f i PSLibrary.obj
 0001:0000c930       ?_Lrotate@?$_Tree@V?$_Tset_traits@UFS_File@@U?$less@UFS_File@@@std@@V?$xalloc@UFS_File@@@@$0A@@std@@@std@@IAEXPAU?$_Tree_node@UFS_File@@PAX@2@@Z 1000d930 f i PSLibrary.obj
 0001:0000c980       ?_Rmost@?$_Tree@V?$_Tset_traits@UFS_File@@U?$less@UFS_File@@@std@@V?$xalloc@UFS_File@@@@$0A@@std@@@std@@IBEAAPAU?$_Tree_node@UFS_File@@PAX@2@XZ 1000d980 f i PSLibrary.obj
 0001:0000c990       ?_Root@?$_Tree@V?$_Tset_traits@UFS_File@@U?$less@UFS_File@@@std@@V?$xalloc@UFS_File@@@@$0A@@std@@@std@@IBEAAPAU?$_Tree_node@UFS_File@@PAX@2@XZ 1000d990 f i PSLibrary.obj
 0001:0000c9a0       ?_Rrotate@?$_Tree@V?$_Tset_traits@UFS_File@@U?$less@UFS_File@@@std@@V?$xalloc@UFS_File@@@@$0A@@std@@@std@@IAEXPAU?$_Tree_node@UFS_File@@PAX@2@@Z 1000d9a0 f i PSLibrary.obj
 0001:0000ca00       ??0?$_Tree_alloc@$0A@U?$_Tree_base_types@UFS_File@@V?$xalloc@UFS_File@@@@@std@@@std@@QAE@ABV?$xalloc@UFS_File@@@@@Z 1000da00 f i PSLibrary.obj
 0001:0000ca20       ??0?$_Wrap_alloc@V?$xalloc@U?$_Tree_node@UFS_File@@PAX@std@@@@@std@@QAE@XZ 1000da20 f i PSLibrary.obj
 0001:0000ca30       ?deallocate@?$xalloc@U?$_Tree_node@UFS_File@@PAX@std@@@@QBEXPAU?$_Tree_node@UFS_File@@PAX@std@@I@Z 1000da30 f i PSLibrary.obj
 0001:0000ca50       ?_Color@?$_Tree_val@U?$_Tree_simple_types@UFS_File@@@std@@@std@@SAAADPAU?$_Tree_node@UFS_File@@PAX@2@@Z 1000da50 f i PSLibrary.obj
 0001:0000ca60       ?_Max@?$_Tree_val@U?$_Tree_simple_types@UFS_File@@@std@@@std@@SAPAU?$_Tree_node@UFS_File@@PAX@2@PAU32@@Z 1000da60 f i PSLibrary.obj
 0001:0000ca80       ?allocate@?$xalloc@PAVCPEDef@PS@@@@QBEPAPAVCPEDef@PS@@IPBX@Z 1000da80 f i PSLibrary.obj
 0001:0000caa0       ?max_size@?$allocator_traits@V?$xalloc@PAVCPEDef@PS@@@@@std@@SAIABV?$xalloc@PAVCPEDef@PS@@@@@Z 1000daa0 f i PSLibrary.obj
 0001:0000cab0       ?allocate@?$xalloc@PAVCPGDef@PS@@@@QBEPAPAVCPGDef@PS@@IPBX@Z 1000dab0 f i PSLibrary.obj
 0001:0000cad0       ?max_size@?$allocator_traits@V?$xalloc@PAVCPGDef@PS@@@@@std@@SAIABV?$xalloc@PAVCPGDef@PS@@@@@Z 1000dad0 f i PSLibrary.obj
 0001:0000cae0       ?_Mynode@?$_Tree_unchecked_const_iterator@V?$_Tree_val@U?$_Tree_simple_types@UFS_File@@@std@@@std@@U_Iterator_base0@2@@std@@QBEPAU?$_Tree_node@UFS_File@@PAX@2@XZ 1000dae0 f i PSLibrary.obj
 0001:0000caf0       ?_Buyheadnode@?$_Tree_alloc@$0A@U?$_Tree_base_types@UFS_File@@V?$xalloc@UFS_File@@@@@std@@@std@@QAEPAU?$_Tree_node@UFS_File@@PAX@2@XZ 1000daf0 f i PSLibrary.obj
 0001:0000cb80       ??0?$xalloc@U?$_Tree_node@UFS_File@@PAX@std@@@@QAE@XZ 1000db80 f i PSLibrary.obj
 0001:0000cb90       ??0?$_Tree_val@U?$_Tree_simple_types@UFS_File@@@std@@@std@@QAE@XZ 1000db90 f i PSLibrary.obj
 0001:0000cba0       ?allocate@?$_Wrap_alloc@V?$xalloc@U?$_Tree_node@UFS_File@@PAX@std@@@@@std@@QAEPAU?$_Tree_node@UFS_File@@PAX@2@I@Z 1000dba0 f i PSLibrary.obj
 0001:0000cbc0       ?allocate@?$xalloc@U?$_Tree_node@UFS_File@@PAX@std@@@@QBEPAU?$_Tree_node@UFS_File@@PAX@std@@IPBX@Z 1000dbc0 f i PSLibrary.obj
 0001:0000cbe0       ??$xr_delete@VCPEDef@PS@@@@YAXAAPAVCPEDef@PS@@@Z 1000dbe0 f i PSLibrary.obj
 0001:0000cc10       ??$xr_delete@VCPGDef@PS@@@@YAXAAPAVCPGDef@PS@@@Z 1000dc10 f i PSLibrary.obj
 0001:0000cc40       ??$lower_bound@V?$_Vector_iterator@V?$_Vector_val@U?$_Simple_types@PAVCPEDef@PS@@@std@@@std@@@std@@PBDP6A_NPBVCPEDef@PS@@PBD@Z@std@@YA?AV?$_Vector_iterator@V?$_Vector_val@U?$_Simple_types@PAVCPEDef@PS@@@std@@@std@@@0@V10@0ABQBDP6A_NPBVCPEDef@PS@@PBD@Z@Z 1000dc40 f i PSLibrary.obj
 0001:0000cc60       ??$lower_bound@V?$_Vector_iterator@V?$_Vector_val@U?$_Simple_types@PAVCPGDef@PS@@@std@@@std@@@std@@PBDP6A_NPBVCPGDef@PS@@PBD@Z@std@@YA?AV?$_Vector_iterator@V?$_Vector_val@U?$_Simple_types@PAVCPGDef@PS@@@std@@@std@@@0@V10@0ABQBDP6A_NPBVCPGDef@PS@@PBD@Z@Z 1000dc60 f i PSLibrary.obj
 0001:0000cc80       ??$xr_new@VCPEDef@PS@@@@YAPAVCPEDef@PS@@XZ 1000dc80 f i PSLibrary.obj
 0001:0000cca0       ??$xr_new@VCPGDef@PS@@@@YAPAVCPGDef@PS@@XZ 1000dca0 f i PSLibrary.obj
 0001:0000cce0       ??$sort@V?$_Vector_iterator@V?$_Vector_val@U?$_Simple_types@PAVCPEDef@PS@@@std@@@std@@@std@@P6A_NPBVCPEDef@PS@@0@Z@std@@YAXV?$_Vector_iterator@V?$_Vector_val@U?$_Simple_types@PAVCPEDef@PS@@@std@@@std@@@0@0P6A_NPBVCPEDef@PS@@1@Z@Z 1000dce0 f i PSLibrary.obj
 0001:0000cd00       ??$sort@V?$_Vector_iterator@V?$_Vector_val@U?$_Simple_types@PAVCPGDef@PS@@@std@@@std@@@std@@P6A_NPBVCPGDef@PS@@0@Z@std@@YAXV?$_Vector_iterator@V?$_Vector_val@U?$_Simple_types@PAVCPGDef@PS@@@std@@@std@@@0@0P6A_NPBVCPGDef@PS@@1@Z@Z 1000dd00 f i PSLibrary.obj
 0001:0000cd20       ??$addressof@QAVCPEDef@PS@@@std@@YAPBQAVCPEDef@PS@@ABQAV12@@Z 1000dd20 f i PSLibrary.obj
 0001:0000cd30       ??$construct@PAVCPEDef@PS@@AAPAV12@@?$_Wrap_alloc@V?$xalloc@PAVCPEDef@PS@@@@@std@@QAEXPAPAVCPEDef@PS@@AAPAV23@@Z 1000dd30 f i PSLibrary.obj
 0001:0000cd50       ??$construct@PAVCPEDef@PS@@ABQAV12@@?$_Wrap_alloc@V?$xalloc@PAVCPEDef@PS@@@@@std@@QAEXPAPAVCPEDef@PS@@ABQAV23@@Z 1000dd50 f i PSLibrary.obj
 0001:0000cd70       ??$_Move@PAPAVCPEDef@PS@@PAPAV12@@std@@YAPAPAVCPEDef@PS@@PAPAV12@00@Z 1000dd70 f i PSLibrary.obj
 0001:0000cda0       ??$addressof@QAVCPGDef@PS@@@std@@YAPBQAVCPGDef@PS@@ABQAV12@@Z 1000dda0 f i PSLibrary.obj
 0001:0000cdb0       ??$construct@PAVCPGDef@PS@@AAPAV12@@?$_Wrap_alloc@V?$xalloc@PAVCPGDef@PS@@@@@std@@QAEXPAPAVCPGDef@PS@@AAPAV23@@Z 1000ddb0 f i PSLibrary.obj
 0001:0000cdd0       ??$construct@PAVCPGDef@PS@@ABQAV12@@?$_Wrap_alloc@V?$xalloc@PAVCPGDef@PS@@@@@std@@QAEXPAPAVCPGDef@PS@@ABQAV23@@Z 1000ddd0 f i PSLibrary.obj
 0001:0000cdf0       ??$_Move@PAPAVCPGDef@PS@@PAPAV12@@std@@YAPAPAVCPGDef@PS@@PAPAV12@00@Z 1000ddf0 f i PSLibrary.obj
 0001:0000ce20       ??$addressof@PAU?$_Tree_node@UFS_File@@PAX@std@@@std@@YAPAPAU?$_Tree_node@UFS_File@@PAX@0@AAPAU10@@Z 1000de20 f i PSLibrary.obj
 0001:0000ce30       ??$destroy@PAU?$_Tree_node@UFS_File@@PAX@std@@@?$_Wrap_alloc@V?$xalloc@U?$_Tree_node@UFS_File@@PAX@std@@@@@std@@QAEXPAPAU?$_Tree_node@UFS_File@@PAX@1@@Z 1000de30 f i PSLibrary.obj
 0001:0000ce40       ??$_Umove@PAPAVCPEDef@PS@@@?$vector@PAVCPEDef@PS@@V?$xalloc@PAVCPEDef@PS@@@@@std@@IAEPAPAVCPEDef@PS@@PAPAV23@00@Z 1000de40 f i PSLibrary.obj
 0001:0000ce70       ??$_Umove@PAPAVCPGDef@PS@@@?$vector@PAVCPGDef@PS@@V?$xalloc@PAVCPGDef@PS@@@@@std@@IAEPAPAVCPGDef@PS@@PAPAV23@00@Z 1000de70 f i PSLibrary.obj
 0001:0000cea0       ??$addressof@UFS_File@@@std@@YAPAUFS_File@@AAU1@@Z 1000dea0 f i PSLibrary.obj
 0001:0000ceb0       ??$destroy@UFS_File@@@?$_Wrap_alloc@V?$xalloc@U?$_Tree_node@UFS_File@@PAX@std@@@@@std@@QAEXPAUFS_File@@@Z 1000deb0 f i PSLibrary.obj
 0001:0000cec0       ??$xr_free@U?$_Tree_node@UFS_File@@PAX@std@@@@YAXAAPAU?$_Tree_node@UFS_File@@PAX@std@@@Z 1000dec0 f i PSLibrary.obj
 0001:0000cee0       ??$xr_alloc@PAVCPEDef@PS@@@@YAPAPAVCPEDef@PS@@I@Z 1000dee0 f i PSLibrary.obj
 0001:0000cf00       ??$_Fn@V?$xalloc@PAVCPEDef@PS@@@@@_Alloc_max_size@std@@SAIHABV?$xalloc@PAVCPEDef@PS@@@@@Z 1000df00 f i PSLibrary.obj
 0001:0000cf10       ??$xr_alloc@PAVCPGDef@PS@@@@YAPAPAVCPGDef@PS@@I@Z 1000df10 f i PSLibrary.obj
 0001:0000cf30       ??$_Fn@V?$xalloc@PAVCPGDef@PS@@@@@_Alloc_max_size@std@@SAIHABV?$xalloc@PAVCPGDef@PS@@@@@Z 1000df30 f i PSLibrary.obj
 0001:0000cf40       ??$construct@PAU?$_Tree_node@UFS_File@@PAX@std@@AAPAU12@@?$_Wrap_alloc@V?$xalloc@U?$_Tree_node@UFS_File@@PAX@std@@@@@std@@QAEXPAPAU?$_Tree_node@UFS_File@@PAX@1@AAPAU21@@Z 1000df40 f i PSLibrary.obj
 0001:0000cf60       ??$xr_alloc@U?$_Tree_node@UFS_File@@PAX@std@@@@YAPAU?$_Tree_node@UFS_File@@PAX@std@@I@Z 1000df60 f i PSLibrary.obj
 0001:0000cf70       ?max_size@?$xalloc@PAVCPEDef@PS@@@@QBEIXZ 1000df70 f i PSLibrary.obj
 0001:0000cf80       ?max_size@?$xalloc@PAVCPGDef@PS@@@@QBEIXZ 1000df80 f i PSLibrary.obj
 0001:0000cf90       ??G?$_Vector_iterator@V?$_Vector_val@U?$_Simple_types@PAVCPEDef@PS@@@std@@@std@@@std@@QBEHABV?$_Vector_const_iterator@V?$_Vector_val@U?$_Simple_types@PAVCPEDef@PS@@@std@@@std@@@1@@Z 1000df90 f i PSLibrary.obj
 0001:0000cfa0       ??G?$_Vector_iterator@V?$_Vector_val@U?$_Simple_types@PAVCPGDef@PS@@@std@@@std@@@std@@QBEHABV?$_Vector_const_iterator@V?$_Vector_val@U?$_Simple_types@PAVCPGDef@PS@@@std@@@std@@@1@@Z 1000dfa0 f i PSLibrary.obj
 0001:0000cfb0       ??R?$xr_special_free@$0A@VCPEDef@PS@@@@QAEXAAPAVCPEDef@PS@@@Z 1000dfb0 f i PSLibrary.obj
 0001:0000cfd0       ??R?$xr_special_free@$0A@VCPGDef@PS@@@@QAEXAAPAVCPGDef@PS@@@Z 1000dfd0 f i PSLibrary.obj
 0001:0000cff0       ??_GCPEDef@PS@@QAEPAXI@Z   1000dff0 f i PSLibrary.obj
 0001:0000d000       ??_GCPGDef@PS@@QAEPAXI@Z   1000e000 f i PSLibrary.obj
 0001:0000d010       ??G?$_Vector_const_iterator@V?$_Vector_val@U?$_Simple_types@PAVCPEDef@PS@@@std@@@std@@@std@@QBEHABV01@@Z 1000e010 f i PSLibrary.obj
 0001:0000d020       ??G?$_Vector_const_iterator@V?$_Vector_val@U?$_Simple_types@PAVCPGDef@PS@@@std@@@std@@@std@@QBEHABV01@@Z 1000e020 f i PSLibrary.obj
 0001:0000d030       ??$_Unchecked@V?$_Vector_val@U?$_Simple_types@PAVCPEDef@PS@@@std@@@std@@@std@@YAPAPAVCPEDef@PS@@V?$_Vector_iterator@V?$_Vector_val@U?$_Simple_types@PAVCPEDef@PS@@@std@@@std@@@0@@Z 1000e030 f i PSLibrary.obj
 0001:0000d040       ??$_Dist_type@V?$_Vector_iterator@V?$_Vector_val@U?$_Simple_types@PAVCPEDef@PS@@@std@@@std@@@std@@@std@@YAPAHV?$_Vector_iterator@V?$_Vector_val@U?$_Simple_types@PAVCPEDef@PS@@@std@@@std@@@0@@Z 1000e040 f i PSLibrary.obj
 0001:0000d050       ??$_Lower_bound@PAPAVCPEDef@PS@@PBDHP6A_NPBV12@PBD@Z@std@@YAPAPAVCPEDef@PS@@PAPAV12@0ABQBDP6A_NPBV12@PBD@ZPAH@Z 1000e050 f i PSLibrary.obj
 0001:0000d0e0       ??$_Rechecked@V?$_Vector_val@U?$_Simple_types@PAVCPEDef@PS@@@std@@@std@@@std@@YAAAV?$_Vector_iterator@V?$_Vector_val@U?$_Simple_types@PAVCPEDef@PS@@@std@@@std@@@0@AAV10@PAPAVCPEDef@PS@@@Z 1000e0e0 f i PSLibrary.obj
 0001:0000d0f0       ??$_Unchecked@V?$_Vector_val@U?$_Simple_types@PAVCPGDef@PS@@@std@@@std@@@std@@YAPAPAVCPGDef@PS@@V?$_Vector_iterator@V?$_Vector_val@U?$_Simple_types@PAVCPGDef@PS@@@std@@@std@@@0@@Z 1000e0f0 f i PSLibrary.obj
 0001:0000d100       ??$_Dist_type@V?$_Vector_iterator@V?$_Vector_val@U?$_Simple_types@PAVCPGDef@PS@@@std@@@std@@@std@@@std@@YAPAHV?$_Vector_iterator@V?$_Vector_val@U?$_Simple_types@PAVCPGDef@PS@@@std@@@std@@@0@@Z 1000e100 f i PSLibrary.obj
 0001:0000d110       ??$_Lower_bound@PAPAVCPGDef@PS@@PBDHP6A_NPBV12@PBD@Z@std@@YAPAPAVCPGDef@PS@@PAPAV12@0ABQBDP6A_NPBV12@PBD@ZPAH@Z 1000e110 f i PSLibrary.obj
 0001:0000d1a0       ??$_Rechecked@V?$_Vector_val@U?$_Simple_types@PAVCPGDef@PS@@@std@@@std@@@std@@YAAAV?$_Vector_iterator@V?$_Vector_val@U?$_Simple_types@PAVCPGDef@PS@@@std@@@std@@@0@AAV10@PAPAVCPGDef@PS@@@Z 1000e1a0 f i PSLibrary.obj
 0001:0000d1b0       ??$_Sort@PAPAVCPEDef@PS@@HP6A_NPBV12@0@Z@std@@YAXPAPAVCPEDef@PS@@0HP6A_NPBV12@1@Z@Z 1000e1b0 f i PSLibrary.obj
 0001:0000d2a0       ??$_Sort@PAPAVCPGDef@PS@@HP6A_NPBV12@0@Z@std@@YAXPAPAVCPGDef@PS@@0HP6A_NPBV12@1@Z@Z 1000e2a0 f i PSLibrary.obj
 0001:0000d390       ??$forward@AAPAVCPEDef@PS@@@std@@YAAAPAVCPEDef@PS@@AAPAV12@@Z 1000e390 f i PSLibrary.obj
 0001:0000d3a0       ??$construct@PAVCPEDef@PS@@AAPAV12@@?$allocator_traits@V?$xalloc@PAVCPEDef@PS@@@@@std@@SAXAAV?$xalloc@PAVCPEDef@PS@@@@PAPAVCPEDef@PS@@AAPAV34@@Z 1000e3a0 f i PSLibrary.obj
 0001:0000d3b0       ??$forward@ABQAVCPEDef@PS@@@std@@YAABQAVCPEDef@PS@@ABQAV12@@Z 1000e3b0 f i PSLibrary.obj
 0001:0000d3c0       ??$construct@PAVCPEDef@PS@@ABQAV12@@?$allocator_traits@V?$xalloc@PAVCPEDef@PS@@@@@std@@SAXAAV?$xalloc@PAVCPEDef@PS@@@@PAPAVCPEDef@PS@@ABQAV34@@Z 1000e3c0 f i PSLibrary.obj
 0001:0000d3d0       ??$_Move@PAPAVCPEDef@PS@@PAPAV12@@std@@YAPAPAVCPEDef@PS@@PAPAV12@00U_Scalar_ptr_iterator_tag@0@@Z 1000e3d0 f i PSLibrary.obj
 0001:0000d400       ??$forward@AAPAVCPGDef@PS@@@std@@YAAAPAVCPGDef@PS@@AAPAV12@@Z 1000e400 f i PSLibrary.obj
 0001:0000d410       ??$construct@PAVCPGDef@PS@@AAPAV12@@?$allocator_traits@V?$xalloc@PAVCPGDef@PS@@@@@std@@SAXAAV?$xalloc@PAVCPGDef@PS@@@@PAPAVCPGDef@PS@@AAPAV34@@Z 1000e410 f i PSLibrary.obj
 0001:0000d420       ??$forward@ABQAVCPGDef@PS@@@std@@YAABQAVCPGDef@PS@@ABQAV12@@Z 1000e420 f i PSLibrary.obj
 0001:0000d430       ??$construct@PAVCPGDef@PS@@ABQAV12@@?$allocator_traits@V?$xalloc@PAVCPGDef@PS@@@@@std@@SAXAAV?$xalloc@PAVCPGDef@PS@@@@PAPAVCPGDef@PS@@ABQAV34@@Z 1000e430 f i PSLibrary.obj
 0001:0000d440       ??$_Move@PAPAVCPGDef@PS@@PAPAV12@@std@@YAPAPAVCPGDef@PS@@PAPAV12@00U_Scalar_ptr_iterator_tag@0@@Z 1000e440 f i PSLibrary.obj
 0001:0000d470       ??$destroy@PAU?$_Tree_node@UFS_File@@PAX@std@@@?$allocator_traits@V?$xalloc@U?$_Tree_node@UFS_File@@PAX@std@@@@@std@@SAXAAV?$xalloc@U?$_Tree_node@UFS_File@@PAX@std@@@@PAPAU?$_Tree_node@UFS_File@@PAX@1@@Z 1000e470 f i PSLibrary.obj
 0001:0000d480       ??$_Uninitialized_move@PAPAVCPEDef@PS@@PAPAV12@U?$_Wrap_alloc@V?$xalloc@PAVCPEDef@PS@@@@@std@@@std@@YAPAPAVCPEDef@PS@@PAPAV12@00AAU?$_Wrap_alloc@V?$xalloc@PAVCPEDef@PS@@@@@0@@Z 1000e480 f i PSLibrary.obj
 0001:0000d4a0       ??$_Uninitialized_move@PAPAVCPGDef@PS@@PAPAV12@U?$_Wrap_alloc@V?$xalloc@PAVCPGDef@PS@@@@@std@@@std@@YAPAPAVCPGDef@PS@@PAPAV12@00AAU?$_Wrap_alloc@V?$xalloc@PAVCPGDef@PS@@@@@0@@Z 1000e4a0 f i PSLibrary.obj
 0001:0000d4c0       ??$destroy@UFS_File@@@?$allocator_traits@V?$xalloc@U?$_Tree_node@UFS_File@@PAX@std@@@@@std@@SAXAAV?$xalloc@U?$_Tree_node@UFS_File@@PAX@std@@@@PAUFS_File@@@Z 1000e4c0 f i PSLibrary.obj
 0001:0000d4d0       ??$forward@AAPAU?$_Tree_node@UFS_File@@PAX@std@@@std@@YAAAPAU?$_Tree_node@UFS_File@@PAX@0@AAPAU10@@Z 1000e4d0 f i PSLibrary.obj
 0001:0000d4e0       ??$construct@PAU?$_Tree_node@UFS_File@@PAX@std@@AAPAU12@@?$allocator_traits@V?$xalloc@U?$_Tree_node@UFS_File@@PAX@std@@@@@std@@SAXAAV?$xalloc@U?$_Tree_node@UFS_File@@PAX@std@@@@PAPAU?$_Tree_node@UFS_File@@PAX@1@AAPAU31@@Z 1000e4e0 f i PSLibrary.obj
 0001:0000d4f0       ?_Rechecked@?$_Vector_iterator@V?$_Vector_val@U?$_Simple_types@PAVCPEDef@PS@@@std@@@std@@@std@@QAEAAV12@PAPAVCPEDef@PS@@@Z 1000e4f0 f i PSLibrary.obj
 0001:0000d500       ?_Unchecked@?$_Vector_iterator@V?$_Vector_val@U?$_Simple_types@PAVCPEDef@PS@@@std@@@std@@@std@@QBEPAPAVCPEDef@PS@@XZ 1000e500 f i PSLibrary.obj
 0001:0000d510       ?_Rechecked@?$_Vector_iterator@V?$_Vector_val@U?$_Simple_types@PAVCPGDef@PS@@@std@@@std@@@std@@QAEAAV12@PAPAVCPGDef@PS@@@Z 1000e510 f i PSLibrary.obj
 0001:0000d520       ?_Unchecked@?$_Vector_iterator@V?$_Vector_val@U?$_Simple_types@PAVCPGDef@PS@@@std@@@std@@@std@@QBEPAPAVCPGDef@PS@@XZ 1000e520 f i PSLibrary.obj
 0001:0000d530       ??$_Distance@PAPAVCPEDef@PS@@H@std@@YAXPAPAVCPEDef@PS@@0AAH@Z 1000e530 f i PSLibrary.obj
 0001:0000d540       ??$advance@PAPAVCPEDef@PS@@H@std@@YAXAAPAPAVCPEDef@PS@@H@Z 1000e540 f i PSLibrary.obj
 0001:0000d550       ??$_Distance@PAPAVCPGDef@PS@@H@std@@YAXPAPAVCPGDef@PS@@0AAH@Z 1000e550 f i PSLibrary.obj
 0001:0000d560       ??$advance@PAPAVCPGDef@PS@@H@std@@YAXAAPAPAVCPGDef@PS@@H@Z 1000e560 f i PSLibrary.obj
 0001:0000d570       ??$_Unguarded_partition@PAPAVCPEDef@PS@@P6A_NPBV12@0@Z@std@@YA?AU?$pair@PAPAVCPEDef@PS@@PAPAV12@@0@PAPAVCPEDef@PS@@0P6A_NPBV23@1@Z@Z 1000e570 f i PSLibrary.obj
 0001:0000d760       ??$make_heap@PAPAVCPEDef@PS@@P6A_NPBV12@0@Z@std@@YAXPAPAVCPEDef@PS@@0P6A_NPBV12@1@Z@Z 1000e760 f i PSLibrary.obj
 0001:0000d780       ??$sort_heap@PAPAVCPEDef@PS@@P6A_NPBV12@0@Z@std@@YAXPAPAVCPEDef@PS@@0P6A_NPBV12@1@Z@Z 1000e780 f i PSLibrary.obj
 0001:0000d790       ??$_Insertion_sort@PAPAVCPEDef@PS@@P6A_NPBV12@0@Z@std@@YAXPAPAVCPEDef@PS@@0P6A_NPBV12@1@Z@Z 1000e790 f i PSLibrary.obj
 0001:0000d7a0       ??$_Unguarded_partition@PAPAVCPGDef@PS@@P6A_NPBV12@0@Z@std@@YA?AU?$pair@PAPAVCPGDef@PS@@PAPAV12@@0@PAPAVCPGDef@PS@@0P6A_NPBV23@1@Z@Z 1000e7a0 f i PSLibrary.obj
 0001:0000d990       ??$make_heap@PAPAVCPGDef@PS@@P6A_NPBV12@0@Z@std@@YAXPAPAVCPGDef@PS@@0P6A_NPBV12@1@Z@Z 1000e990 f i PSLibrary.obj
 0001:0000d9b0       ??$sort_heap@PAPAVCPGDef@PS@@P6A_NPBV12@0@Z@std@@YAXPAPAVCPGDef@PS@@0P6A_NPBV12@1@Z@Z 1000e9b0 f i PSLibrary.obj
 0001:0000d9c0       ??$_Insertion_sort@PAPAVCPGDef@PS@@P6A_NPBV12@0@Z@std@@YAXPAPAVCPGDef@PS@@0P6A_NPBV12@1@Z@Z 1000e9c0 f i PSLibrary.obj
 0001:0000d9d0       ??$_Fn@V?$xalloc@PAVCPEDef@PS@@@@PAVCPEDef@PS@@AAPAV23@@_Alloc_construct@std@@SAXHAAV?$xalloc@PAVCPEDef@PS@@@@PAPAVCPEDef@PS@@AAPAV34@@Z 1000e9d0 f i PSLibrary.obj
 0001:0000d9f0       ??$_Fn@V?$xalloc@PAVCPEDef@PS@@@@PAVCPEDef@PS@@ABQAV23@@_Alloc_construct@std@@SAXHAAV?$xalloc@PAVCPEDef@PS@@@@PAPAVCPEDef@PS@@ABQAV34@@Z 1000e9f0 f i PSLibrary.obj
 0001:0000da10       ??$_Fn@V?$xalloc@PAVCPGDef@PS@@@@PAVCPGDef@PS@@AAPAV23@@_Alloc_construct@std@@SAXHAAV?$xalloc@PAVCPGDef@PS@@@@PAPAVCPGDef@PS@@AAPAV34@@Z 1000ea10 f i PSLibrary.obj
 0001:0000da30       ??$_Fn@V?$xalloc@PAVCPGDef@PS@@@@PAVCPGDef@PS@@ABQAV23@@_Alloc_construct@std@@SAXHAAV?$xalloc@PAVCPGDef@PS@@@@PAPAVCPGDef@PS@@ABQAV34@@Z 1000ea30 f i PSLibrary.obj
 0001:0000da50       ??$_Fn@V?$xalloc@U?$_Tree_node@UFS_File@@PAX@std@@@@PAU?$_Tree_node@UFS_File@@PAX@std@@@_Alloc_destroy@std@@SAXU_Wrap_int@1@AAV?$xalloc@U?$_Tree_node@UFS_File@@PAX@std@@@@PAPAU?$_Tree_node@UFS_File@@PAX@1@@Z 1000ea50 f i PSLibrary.obj
 0001:0000da60       ??$_Unchecked@PAPAVCPEDef@PS@@@std@@YAPAPAVCPEDef@PS@@PAPAV12@@Z 1000ea60 f i PSLibrary.obj
 0001:0000da70       ??$_Uninit_move@PAPAVCPEDef@PS@@PAPAV12@U?$_Wrap_alloc@V?$xalloc@PAVCPEDef@PS@@@@@std@@@std@@YAPAPAVCPEDef@PS@@PAPAV12@00AAU?$_Wrap_alloc@V?$xalloc@PAVCPEDef@PS@@@@@0@@Z 1000ea70 f i PSLibrary.obj
 0001:0000da90       ??$_Rechecked@PAPAVCPEDef@PS@@PAPAV12@@std@@YAAAPAPAVCPEDef@PS@@AAPAPAV12@PAPAV12@@Z 1000ea90 f i PSLibrary.obj
 0001:0000daa0       ??$_Unchecked@PAPAVCPGDef@PS@@@std@@YAPAPAVCPGDef@PS@@PAPAV12@@Z 1000eaa0 f i PSLibrary.obj
 0001:0000dab0       ??$_Uninit_move@PAPAVCPGDef@PS@@PAPAV12@U?$_Wrap_alloc@V?$xalloc@PAVCPGDef@PS@@@@@std@@@std@@YAPAPAVCPGDef@PS@@PAPAV12@00AAU?$_Wrap_alloc@V?$xalloc@PAVCPGDef@PS@@@@@0@@Z 1000eab0 f i PSLibrary.obj
 0001:0000dad0       ??$_Rechecked@PAPAVCPGDef@PS@@PAPAV12@@std@@YAAAPAPAVCPGDef@PS@@AAPAPAV12@PAPAV12@@Z 1000ead0 f i PSLibrary.obj
 0001:0000dae0       ??$_Fn@V?$xalloc@U?$_Tree_node@UFS_File@@PAX@std@@@@UFS_File@@@_Alloc_destroy@std@@SAXU_Wrap_int@1@AAV?$xalloc@U?$_Tree_node@UFS_File@@PAX@std@@@@PAUFS_File@@@Z 1000eae0 f i PSLibrary.obj
 0001:0000daf0       ??$_Fn@V?$xalloc@U?$_Tree_node@UFS_File@@PAX@std@@@@PAU?$_Tree_node@UFS_File@@PAX@std@@AAPAU23@@_Alloc_construct@std@@SAXU_Wrap_int@1@AAV?$xalloc@U?$_Tree_node@UFS_File@@PAX@std@@@@PAPAU?$_Tree_node@UFS_File@@PAX@1@AAPAU41@@Z 1000eaf0 f i PSLibrary.obj
 0001:0000db00       ??_GFS_File@@QAEPAXI@Z     1000eb00 f i PSLibrary.obj
 0001:0000db10       ?construct@?$xalloc@PAVCPEDef@PS@@@@QAEXPAPAVCPEDef@PS@@ABQAV23@@Z 1000eb10 f i PSLibrary.obj
 0001:0000db30       ?construct@?$xalloc@PAVCPGDef@PS@@@@QAEXPAPAVCPGDef@PS@@ABQAV23@@Z 1000eb30 f i PSLibrary.obj
 0001:0000db50       ??$_Iter_cat@PAPAVCPEDef@PS@@@std@@YA?AUrandom_access_iterator_tag@0@ABQAPAVCPEDef@PS@@@Z 1000eb50 f i PSLibrary.obj
 0001:0000db60       ??$_Distance2@PAPAVCPEDef@PS@@H@std@@YAXPAPAVCPEDef@PS@@0AAHUrandom_access_iterator_tag@0@@Z 1000eb60 f i PSLibrary.obj
 0001:0000db70       ??$_Advance@PAPAVCPEDef@PS@@H@std@@YAXAAPAPAVCPEDef@PS@@HUrandom_access_iterator_tag@0@@Z 1000eb70 f i PSLibrary.obj
 0001:0000db80       ??$_Iter_cat@PAPAVCPGDef@PS@@@std@@YA?AUrandom_access_iterator_tag@0@ABQAPAVCPGDef@PS@@@Z 1000eb80 f i PSLibrary.obj
 0001:0000db90       ??$_Distance2@PAPAVCPGDef@PS@@H@std@@YAXPAPAVCPGDef@PS@@0AAHUrandom_access_iterator_tag@0@@Z 1000eb90 f i PSLibrary.obj
 0001:0000dba0       ??$_Advance@PAPAVCPGDef@PS@@H@std@@YAXAAPAPAVCPGDef@PS@@HUrandom_access_iterator_tag@0@@Z 1000eba0 f i PSLibrary.obj
 0001:0000dbb0       ??$_Median@PAPAVCPEDef@PS@@P6A_NPBV12@0@Z@std@@YAXPAPAVCPEDef@PS@@00P6A_NPBV12@1@Z@Z 1000ebb0 f i PSLibrary.obj
 0001:0000dd80       ??$iter_swap@PAPAVCPEDef@PS@@PAPAV12@@std@@YAXPAPAVCPEDef@PS@@0@Z 1000ed80 f i PSLibrary.obj
 0001:0000dd90       ??$?0AAPAPAVCPEDef@PS@@AAPAPAV01@X@?$pair@PAPAVCPEDef@PS@@PAPAV12@@std@@QAE@AAPAPAVCPEDef@PS@@0@Z 1000ed90 f i PSLibrary.obj
 0001:0000ddb0       ??$_Dist_type@PAPAVCPEDef@PS@@@std@@YAPAHPAPAVCPEDef@PS@@@Z 1000edb0 f i PSLibrary.obj
 0001:0000ddc0       ??$_Val_type@PAPAVCPEDef@PS@@@std@@YAPAPAVCPEDef@PS@@PAPAV12@@Z 1000edc0 f i PSLibrary.obj
 0001:0000ddd0       ??$_Make_heap@PAPAVCPEDef@PS@@HPAV12@P6A_NPBV12@0@Z@std@@YAXPAPAVCPEDef@PS@@0P6A_NPBV12@1@ZPAH0@Z 1000edd0 f i PSLibrary.obj
 0001:0000de90       ??$_Sort_heap@PAPAVCPEDef@PS@@P6A_NPBV12@0@Z@std@@YAXPAPAVCPEDef@PS@@0P6A_NPBV12@1@Z@Z 1000ee90 f i PSLibrary.obj
 0001:0000def0       ??$_Insertion_sort1@PAPAVCPEDef@PS@@P6A_NPBV12@0@ZPAV12@@std@@YAXPAPAVCPEDef@PS@@0P6A_NPBV12@1@Z0@Z 1000eef0 f i PSLibrary.obj
 0001:0000dfa0       ??$_Median@PAPAVCPGDef@PS@@P6A_NPBV12@0@Z@std@@YAXPAPAVCPGDef@PS@@00P6A_NPBV12@1@Z@Z 1000efa0 f i PSLibrary.obj
 0001:0000e170       ??$iter_swap@PAPAVCPGDef@PS@@PAPAV12@@std@@YAXPAPAVCPGDef@PS@@0@Z 1000f170 f i PSLibrary.obj
 0001:0000e180       ??$?0AAPAPAVCPGDef@PS@@AAPAPAV01@X@?$pair@PAPAVCPGDef@PS@@PAPAV12@@std@@QAE@AAPAPAVCPGDef@PS@@0@Z 1000f180 f i PSLibrary.obj
 0001:0000e1a0       ??$_Dist_type@PAPAVCPGDef@PS@@@std@@YAPAHPAPAVCPGDef@PS@@@Z 1000f1a0 f i PSLibrary.obj
 0001:0000e1b0       ??$_Val_type@PAPAVCPGDef@PS@@@std@@YAPAPAVCPGDef@PS@@PAPAV12@@Z 1000f1b0 f i PSLibrary.obj
 0001:0000e1c0       ??$_Make_heap@PAPAVCPGDef@PS@@HPAV12@P6A_NPBV12@0@Z@std@@YAXPAPAVCPGDef@PS@@0P6A_NPBV12@1@ZPAH0@Z 1000f1c0 f i PSLibrary.obj
 0001:0000e280       ??$_Sort_heap@PAPAVCPGDef@PS@@P6A_NPBV12@0@Z@std@@YAXPAPAVCPGDef@PS@@0P6A_NPBV12@1@Z@Z 1000f280 f i PSLibrary.obj
 0001:0000e2e0       ??$_Insertion_sort1@PAPAVCPGDef@PS@@P6A_NPBV12@0@ZPAV12@@std@@YAXPAPAVCPGDef@PS@@0P6A_NPBV12@1@Z0@Z 1000f2e0 f i PSLibrary.obj
 0001:0000e390       ??$_Uninit_move@PAPAVCPEDef@PS@@PAPAV12@V?$xalloc@PAVCPEDef@PS@@@@PAV12@@std@@YAPAPAVCPEDef@PS@@PAPAV12@00AAU?$_Wrap_alloc@V?$xalloc@PAVCPEDef@PS@@@@@0@0U_Scalar_ptr_iterator_tag@0@@Z 1000f390 f i PSLibrary.obj
 0001:0000e3b0       ??$_Uninit_move@PAPAVCPGDef@PS@@PAPAV12@V?$xalloc@PAVCPGDef@PS@@@@PAV12@@std@@YAPAPAVCPGDef@PS@@PAPAV12@00AAU?$_Wrap_alloc@V?$xalloc@PAVCPGDef@PS@@@@@0@0U_Scalar_ptr_iterator_tag@0@@Z 1000f3b0 f i PSLibrary.obj
 0001:0000e3d0       ??$_Construct@PAVCPEDef@PS@@ABQAV12@@std@@YAXPAPAVCPEDef@PS@@ABQAV12@@Z 1000f3d0 f i PSLibrary.obj
 0001:0000e3e0       ??$_Construct@PAVCPGDef@PS@@ABQAV12@@std@@YAXPAPAVCPGDef@PS@@ABQAV12@@Z 1000f3e0 f i PSLibrary.obj
 0001:0000e3f0       ??$_Med3@PAPAVCPEDef@PS@@P6A_NPBV12@0@Z@std@@YAXPAPAVCPEDef@PS@@00P6A_NPBV12@1@Z@Z 1000f3f0 f i PSLibrary.obj
 0001:0000e450       ??$swap@PAVCPEDef@PS@@@std@@YAXAAPAVCPEDef@PS@@0@Z 1000f450 f i PSLibrary.obj
 0001:0000e460       ??$forward@AAPAPAVCPEDef@PS@@@std@@YAAAPAPAVCPEDef@PS@@AAPAPAV12@@Z 1000f460 f i PSLibrary.obj
 0001:0000e470       ??$_Move@AAPAVCPEDef@PS@@@std@@YA$$QAPAVCPEDef@PS@@AAPAV12@@Z 1000f470 f i PSLibrary.obj
 0001:0000e480       ??$_Adjust_heap@PAPAVCPEDef@PS@@HPAV12@P6A_NPBV12@0@Z@std@@YAXPAPAVCPEDef@PS@@HH$$QAPAV12@P6A_NPBV12@2@Z@Z 1000f480 f i PSLibrary.obj
 0001:0000e530       ??$_Pop_heap@PAPAVCPEDef@PS@@P6A_NPBV12@0@Z@std@@YAXPAPAVCPEDef@PS@@0P6A_NPBV12@1@Z@Z 1000f530 f i PSLibrary.obj
 0001:0000e560       ??$_Move_backward@PAPAVCPEDef@PS@@PAPAV12@@std@@YAPAPAVCPEDef@PS@@PAPAV12@00@Z 1000f560 f i PSLibrary.obj
 0001:0000e580       ??$_Med3@PAPAVCPGDef@PS@@P6A_NPBV12@0@Z@std@@YAXPAPAVCPGDef@PS@@00P6A_NPBV12@1@Z@Z 1000f580 f i PSLibrary.obj
 0001:0000e5e0       ??$swap@PAVCPGDef@PS@@@std@@YAXAAPAVCPGDef@PS@@0@Z 1000f5e0 f i PSLibrary.obj
 0001:0000e5f0       ??$forward@AAPAPAVCPGDef@PS@@@std@@YAAAPAPAVCPGDef@PS@@AAPAPAV12@@Z 1000f5f0 f i PSLibrary.obj
 0001:0000e600       ??$_Move@AAPAVCPGDef@PS@@@std@@YA$$QAPAVCPGDef@PS@@AAPAV12@@Z 1000f600 f i PSLibrary.obj
 0001:0000e610       ??$_Adjust_heap@PAPAVCPGDef@PS@@HPAV12@P6A_NPBV12@0@Z@std@@YAXPAPAVCPGDef@PS@@HH$$QAPAV12@P6A_NPBV12@2@Z@Z 1000f610 f i PSLibrary.obj
 0001:0000e6c0       ??$_Pop_heap@PAPAVCPGDef@PS@@P6A_NPBV12@0@Z@std@@YAXPAPAVCPGDef@PS@@0P6A_NPBV12@1@Z@Z 1000f6c0 f i PSLibrary.obj
 0001:0000e6f0       ??$_Move_backward@PAPAVCPGDef@PS@@PAPAV12@@std@@YAPAPAVCPGDef@PS@@PAPAV12@00@Z 1000f6f0 f i PSLibrary.obj
 0001:0000e710       ??$_Uninit_move@PAPAVCPEDef@PS@@PAPAV12@V?$xalloc@PAVCPEDef@PS@@@@PAV12@@std@@YAPAPAVCPEDef@PS@@PAPAV12@00AAU?$_Wrap_alloc@V?$xalloc@PAVCPEDef@PS@@@@@0@0U_Nonscalar_ptr_iterator_tag@0@@Z 1000f710 f i PSLibrary.obj
 0001:0000e780       ??$_Uninit_move@PAPAVCPGDef@PS@@PAPAV12@V?$xalloc@PAVCPGDef@PS@@@@PAV12@@std@@YAPAPAVCPGDef@PS@@PAPAV12@00AAU?$_Wrap_alloc@V?$xalloc@PAVCPGDef@PS@@@@@0@0U_Nonscalar_ptr_iterator_tag@0@@Z 1000f780 f i PSLibrary.obj
 0001:0000e7f0       ??$_Push_heap@PAPAVCPEDef@PS@@HPAV12@P6A_NPBV12@0@Z@std@@YAXPAPAVCPEDef@PS@@HH$$QAPAV12@P6A_NPBV12@2@Z@Z 1000f7f0 f i PSLibrary.obj
 0001:0000e860       ??$_Pop_heap_0@PAPAVCPEDef@PS@@PAV12@P6A_NPBV12@0@Z@std@@YAXPAPAVCPEDef@PS@@0P6A_NPBV12@1@Z0@Z 1000f860 f i PSLibrary.obj
 0001:0000e890       ??$_Move_backward@PAPAVCPEDef@PS@@PAPAV12@@std@@YAPAPAVCPEDef@PS@@PAPAV12@00U_Scalar_ptr_iterator_tag@0@@Z 1000f890 f i PSLibrary.obj
 0001:0000e8b0       ??$_Push_heap@PAPAVCPGDef@PS@@HPAV12@P6A_NPBV12@0@Z@std@@YAXPAPAVCPGDef@PS@@HH$$QAPAV12@P6A_NPBV12@2@Z@Z 1000f8b0 f i PSLibrary.obj
 0001:0000e920       ??$_Pop_heap_0@PAPAVCPGDef@PS@@PAV12@P6A_NPBV12@0@Z@std@@YAXPAPAVCPGDef@PS@@0P6A_NPBV12@1@Z0@Z 1000f920 f i PSLibrary.obj
 0001:0000e950       ??$_Move_backward@PAPAVCPGDef@PS@@PAPAV12@@std@@YAPAPAVCPGDef@PS@@PAPAV12@00U_Scalar_ptr_iterator_tag@0@@Z 1000f950 f i PSLibrary.obj
 0001:0000e970       ??$construct@PAVCPEDef@PS@@PAV12@@?$_Wrap_alloc@V?$xalloc@PAVCPEDef@PS@@@@@std@@QAEXPAPAVCPEDef@PS@@$$QAPAV23@@Z 1000f970 f i PSLibrary.obj
 0001:0000e990       ??$destroy@PAVCPEDef@PS@@@?$_Wrap_alloc@V?$xalloc@PAVCPEDef@PS@@@@@std@@QAEXPAPAVCPEDef@PS@@@Z 1000f990 f i PSLibrary.obj
 0001:0000e9a0       ??$construct@PAVCPGDef@PS@@PAV12@@?$_Wrap_alloc@V?$xalloc@PAVCPGDef@PS@@@@@std@@QAEXPAPAVCPGDef@PS@@$$QAPAV23@@Z 1000f9a0 f i PSLibrary.obj
 0001:0000e9c0       ??$destroy@PAVCPGDef@PS@@@?$_Wrap_alloc@V?$xalloc@PAVCPGDef@PS@@@@@std@@QAEXPAPAVCPGDef@PS@@@Z 1000f9c0 f i PSLibrary.obj
 0001:0000e9d0       ??$_Pop_heap@PAPAVCPEDef@PS@@HPAV12@P6A_NPBV12@0@Z@std@@YAXPAPAVCPEDef@PS@@00$$QAPAV12@P6A_NPBV12@2@ZPAH@Z 1000f9d0 f i PSLibrary.obj
 0001:0000ea00       ??$_Pop_heap@PAPAVCPGDef@PS@@HPAV12@P6A_NPBV12@0@Z@std@@YAXPAPAVCPGDef@PS@@00$$QAPAV12@P6A_NPBV12@2@ZPAH@Z 1000fa00 f i PSLibrary.obj
 0001:0000ea30       ??$forward@PAVCPEDef@PS@@@std@@YA$$QAPAVCPEDef@PS@@AAPAV12@@Z 1000fa30 f i PSLibrary.obj
 0001:0000ea40       ??$construct@PAVCPEDef@PS@@PAV12@@?$allocator_traits@V?$xalloc@PAVCPEDef@PS@@@@@std@@SAXAAV?$xalloc@PAVCPEDef@PS@@@@PAPAVCPEDef@PS@@$$QAPAV34@@Z 1000fa40 f i PSLibrary.obj
 0001:0000ea50       ??$destroy@PAVCPEDef@PS@@@?$allocator_traits@V?$xalloc@PAVCPEDef@PS@@@@@std@@SAXAAV?$xalloc@PAVCPEDef@PS@@@@PAPAVCPEDef@PS@@@Z 1000fa50 f i PSLibrary.obj
 0001:0000ea60       ??$forward@PAVCPGDef@PS@@@std@@YA$$QAPAVCPGDef@PS@@AAPAV12@@Z 1000fa60 f i PSLibrary.obj
 0001:0000ea70       ??$construct@PAVCPGDef@PS@@PAV12@@?$allocator_traits@V?$xalloc@PAVCPGDef@PS@@@@@std@@SAXAAV?$xalloc@PAVCPGDef@PS@@@@PAPAVCPGDef@PS@@$$QAPAV34@@Z 1000fa70 f i PSLibrary.obj
 0001:0000ea80       ??$destroy@PAVCPGDef@PS@@@?$allocator_traits@V?$xalloc@PAVCPGDef@PS@@@@@std@@SAXAAV?$xalloc@PAVCPGDef@PS@@@@PAPAVCPGDef@PS@@@Z 1000fa80 f i PSLibrary.obj
 0001:0000ea90       ??$_Fn@V?$xalloc@PAVCPEDef@PS@@@@PAVCPEDef@PS@@PAV23@@_Alloc_construct@std@@SAXHAAV?$xalloc@PAVCPEDef@PS@@@@PAPAVCPEDef@PS@@$$QAPAV34@@Z 1000fa90 f i PSLibrary.obj
 0001:0000eab0       ??$_Fn@V?$xalloc@PAVCPEDef@PS@@@@PAVCPEDef@PS@@@_Alloc_destroy@std@@SAXHAAV?$xalloc@PAVCPEDef@PS@@@@PAPAVCPEDef@PS@@@Z 1000fab0 f i PSLibrary.obj
 0001:0000eac0       ??$_Fn@V?$xalloc@PAVCPGDef@PS@@@@PAVCPGDef@PS@@PAV23@@_Alloc_construct@std@@SAXHAAV?$xalloc@PAVCPGDef@PS@@@@PAPAVCPGDef@PS@@$$QAPAV34@@Z 1000fac0 f i PSLibrary.obj
 0001:0000eae0       ??$_Fn@V?$xalloc@PAVCPGDef@PS@@@@PAVCPGDef@PS@@@_Alloc_destroy@std@@SAXHAAV?$xalloc@PAVCPGDef@PS@@@@PAPAVCPGDef@PS@@@Z 1000fae0 f i PSLibrary.obj
 0001:0000eaf0       ?destroy@?$xalloc@PAVCPEDef@PS@@@@QAEXPAPAVCPEDef@PS@@@Z 1000faf0 f i PSLibrary.obj
 0001:0000eb00       ?destroy@?$xalloc@PAVCPGDef@PS@@@@QAEXPAPAVCPGDef@PS@@@Z 1000fb00 f i PSLibrary.obj
 0001:0000eb10       ??$_Destroy@PAVCPEDef@PS@@@std@@YAXPAPAVCPEDef@PS@@@Z 1000fb10 f i PSLibrary.obj
 0001:0000eb20       ??$_Destroy@PAVCPGDef@PS@@@std@@YAXPAPAVCPGDef@PS@@@Z 1000fb20 f i PSLibrary.obj
 0001:0000eb30       ??$xr_free@PAVCPGDef@PS@@@@YAXAAPAPAVCPGDef@PS@@@Z 1000fb30 f i PSLibrary.obj
 0001:0000eb50       ?deallocate@?$xalloc@PAVCPGDef@PS@@@@QBEXPAPAVCPGDef@PS@@I@Z 1000fb50 f i PSLibrary.obj
 0001:0000eb70       ?deallocate@?$_Wrap_alloc@V?$xalloc@PAVCPGDef@PS@@@@@std@@QAEXPAPAVCPGDef@PS@@I@Z 1000fb70 f i PSLibrary.obj
 0001:0000eb90       ??$xr_free@PAVCPEDef@PS@@@@YAXAAPAPAVCPEDef@PS@@@Z 1000fb90 f i PSLibrary.obj
 0001:0000ebb0       ?deallocate@?$xalloc@PAVCPEDef@PS@@@@QBEXPAPAVCPEDef@PS@@I@Z 1000fbb0 f i PSLibrary.obj
 0001:0000ebd0       ?deallocate@?$_Wrap_alloc@V?$xalloc@PAVCPEDef@PS@@@@@std@@QAEXPAPAVCPEDef@PS@@I@Z 1000fbd0 f i PSLibrary.obj
 0001:0000ebf0       ??$_Destroy_range@U?$_Wrap_alloc@V?$xalloc@PAVCPGDef@PS@@@@@std@@@std@@YAXPAPAVCPGDef@PS@@0AAU?$_Wrap_alloc@V?$xalloc@PAVCPGDef@PS@@@@@0@U_Scalar_ptr_iterator_tag@0@@Z 1000fbf0 f i PSLibrary.obj
 0001:0000ec00       ??$_Ptr_cat@PAVCPGDef@PS@@PAV12@@std@@YA?AU_Scalar_ptr_iterator_tag@0@PAPAVCPGDef@PS@@0@Z 1000fc00 f i PSLibrary.obj
 0001:0000ec10       ??$_Destroy_range@U?$_Wrap_alloc@V?$xalloc@PAVCPGDef@PS@@@@@std@@@std@@YAXPAPAVCPGDef@PS@@0AAU?$_Wrap_alloc@V?$xalloc@PAVCPGDef@PS@@@@@0@@Z 1000fc10 f i PSLibrary.obj
 0001:0000ec20       ?_Destroy@?$vector@PAVCPGDef@PS@@V?$xalloc@PAVCPGDef@PS@@@@@std@@IAEXPAPAVCPGDef@PS@@0@Z 1000fc20 f i PSLibrary.obj
 0001:0000ec30       ??0?$xalloc@PAVCPGDef@PS@@@@QAE@XZ 1000fc30 f i PSLibrary.obj
 0001:0000ec40       ??0?$_Wrap_alloc@V?$xalloc@PAVCPGDef@PS@@@@@std@@QAE@XZ 1000fc40 f i PSLibrary.obj
 0001:0000ec50       ?_Getal@?$_Vector_alloc@$0A@U?$_Vec_base_types@PAVCPGDef@PS@@V?$xalloc@PAVCPGDef@PS@@@@@std@@@std@@QBE?AU?$_Wrap_alloc@V?$xalloc@PAVCPGDef@PS@@@@@2@XZ 1000fc50 f i PSLibrary.obj
 0001:0000ec60       ??$_Destroy_range@U?$_Wrap_alloc@V?$xalloc@PAVCPEDef@PS@@@@@std@@@std@@YAXPAPAVCPEDef@PS@@0AAU?$_Wrap_alloc@V?$xalloc@PAVCPEDef@PS@@@@@0@U_Scalar_ptr_iterator_tag@0@@Z 1000fc60 f i PSLibrary.obj
 0001:0000ec70       ??$_Ptr_cat@PAVCPEDef@PS@@PAV12@@std@@YA?AU_Scalar_ptr_iterator_tag@0@PAPAVCPEDef@PS@@0@Z 1000fc70 f i PSLibrary.obj
 0001:0000ec80       ??$_Destroy_range@U?$_Wrap_alloc@V?$xalloc@PAVCPEDef@PS@@@@@std@@@std@@YAXPAPAVCPEDef@PS@@0AAU?$_Wrap_alloc@V?$xalloc@PAVCPEDef@PS@@@@@0@@Z 1000fc80 f i PSLibrary.obj
 0001:0000ec90       ?_Destroy@?$vector@PAVCPEDef@PS@@V?$xalloc@PAVCPEDef@PS@@@@@std@@IAEXPAPAVCPEDef@PS@@0@Z 1000fc90 f i PSLibrary.obj
 0001:0000eca0       ??0?$xalloc@PAVCPEDef@PS@@@@QAE@XZ 1000fca0 f i PSLibrary.obj
 0001:0000ecb0       ??0?$_Wrap_alloc@V?$xalloc@PAVCPEDef@PS@@@@@std@@QAE@XZ 1000fcb0 f i PSLibrary.obj
 0001:0000ecc0       ?_Getal@?$_Vector_alloc@$0A@U?$_Vec_base_types@PAVCPEDef@PS@@V?$xalloc@PAVCPEDef@PS@@@@@std@@@std@@QBE?AU?$_Wrap_alloc@V?$xalloc@PAVCPEDef@PS@@@@@2@XZ 1000fcc0 f i PSLibrary.obj
 0001:0000ecd0       ?_set@shared_str@@QAEXPBD@Z 1000fcd0 f i PSLibrary.obj
 0001:0000ed10       ??4shared_str@@QAEAAV0@PBD@Z 1000fd10 f i PSLibrary.obj
 0001:0000ed60       ?c_str@?$basic_string@DU?$char_traits@D@std@@V?$xalloc@D@@@std@@QBEPBDXZ 1000fd60 f i PSLibrary.obj
 0001:0000ed70       ?end@?$vector@PAVCPGDef@PS@@V?$xalloc@PAVCPGDef@PS@@@@@std@@QAE?AV?$_Vector_iterator@V?$_Vector_val@U?$_Simple_types@PAVCPGDef@PS@@@std@@@std@@@2@XZ 1000fd70 f i PSLibrary.obj
 0001:0000ed80       ??0?$_Vector_const_iterator@V?$_Vector_val@U?$_Simple_types@PAVCPGDef@PS@@@std@@@std@@@std@@QAE@PAPAVCPGDef@PS@@PBU_Container_base0@1@@Z 1000fd80 f i PSLibrary.obj
 0001:0000ed90       ??0?$_Vector_iterator@V?$_Vector_val@U?$_Simple_types@PAVCPGDef@PS@@@std@@@std@@@std@@QAE@PAPAVCPGDef@PS@@PBU_Container_base0@1@@Z 1000fd90 f i PSLibrary.obj
 0001:0000eda0       ?begin@?$vector@PAVCPGDef@PS@@V?$xalloc@PAVCPGDef@PS@@@@@std@@QAE?AV?$_Vector_iterator@V?$_Vector_val@U?$_Simple_types@PAVCPGDef@PS@@@std@@@std@@@2@XZ 1000fda0 f i PSLibrary.obj
 0001:0000edb0       ?end@?$vector@PAVCPEDef@PS@@V?$xalloc@PAVCPEDef@PS@@@@@std@@QAE?AV?$_Vector_iterator@V?$_Vector_val@U?$_Simple_types@PAVCPEDef@PS@@@std@@@std@@@2@XZ 1000fdb0 f i PSLibrary.obj
 0001:0000edc0       ??0?$_Vector_const_iterator@V?$_Vector_val@U?$_Simple_types@PAVCPEDef@PS@@@std@@@std@@@std@@QAE@PAPAVCPEDef@PS@@PBU_Container_base0@1@@Z 1000fdc0 f i PSLibrary.obj
 0001:0000edd0       ??0?$_Vector_iterator@V?$_Vector_val@U?$_Simple_types@PAVCPEDef@PS@@@std@@@std@@@std@@QAE@PAPAVCPEDef@PS@@PBU_Container_base0@1@@Z 1000fdd0 f i PSLibrary.obj
 0001:0000ede0       ?begin@?$vector@PAVCPEDef@PS@@V?$xalloc@PAVCPEDef@PS@@@@@std@@QAE?AV?$_Vector_iterator@V?$_Vector_val@U?$_Simple_types@PAVCPEDef@PS@@@std@@@std@@@2@XZ 1000fde0 f i PSLibrary.obj
 0001:0000edf0       ?xr_strcmp@@YAHABVshared_str@@PBD@Z 1000fdf0 f i PSLibrary.obj
 0001:0000ee30       ?equal@shared_str@@QBE_NABV1@@Z 1000fe30 f i PSLibrary.obj
 0001:0000ee40       ?xr_strcmp@@YAHABVshared_str@@0@Z 1000fe40 f i PSLibrary.obj
 0001:0000ee90       ??Dshared_str@@QBEPBDXZ    1000fe90 f i PSLibrary.obj
 0001:0000eea0       ?Name@CPEDef@PS@@QBEPBDXZ  1000fea0 f i PSLibrary.obj
 0001:0000eeb0       ??0CGlow@@QAE@XZ           1000feb0 f i r2.obj
 0001:0000eed0       ?set_active@CGlow@@UAEX_N@Z 1000fed0 f i r2.obj
 0001:0000eee0       ?get_active@CGlow@@UAE_NXZ 1000fee0 f i r2.obj
 0001:0000eef0       ?set_position@CGlow@@UAEXABU?$_vector3@M@@@Z 1000fef0 f i r2.obj
 0001:0000ef00       ?set_direction@CGlow@@UAEXABU?$_vector3@M@@@Z 1000ff00 f i r2.obj
 0001:0000ef10       ?set_radius@CGlow@@UAEXM@Z 1000ff10 f i r2.obj
 0001:0000ef20       ?set_texture@CGlow@@UAEXPBD@Z 1000ff20 f i r2.obj
 0001:0000ef30       ?set_color@CGlow@@UAEXABU?$_color@M@@@Z 1000ff30 f i r2.obj
 0001:0000ef40       ?set_color@CGlow@@UAEXMMM@Z 1000ff40 f i r2.obj
 0001:0000ef50       ??_ECGlow@@UAEPAXI@Z       1000ff50 f i * CIL library *:* CIL module *
 0001:0000ef50       ??_GCGlow@@UAEPAXI@Z       1000ff50 f i r2.obj
 0001:0000ef80       ??1CGlow@@UAE@XZ           1000ff80 f i r2.obj
 0001:0000ef90       ?rimp_select_sh_dynamic@CRender@@QAEPAUShaderElement@@PAVIRender_Visual@@M@Z 1000ff90 f   r2.obj
 0001:0000eff0       ?rimp_select_sh_static@CRender@@QAEPAUShaderElement@@PAVIRender_Visual@@M@Z 1000fff0 f   r2.obj
 0001:0000f040       ?setup@cl_parallax@@EAEXPAUR_constant@@@Z 10010040 f i r2.obj
 0001:0000f0f0       ??0cl_parallax@@QAE@XZ     100100f0 f i r2.obj
 0001:0000f100       ??1cl_parallax@@UAE@XZ     10010100 f i r2.obj
 0001:0000f110       ??_Gcl_parallax@@UAEPAXI@Z 10010110 f i r2.obj
 0001:0000f110       ??_Ecl_parallax@@UAEPAXI@Z 10010110 f i * CIL library *:* CIL module *
 0001:0000f140       ?setup@cl_pos_decompress_params@@EAEXPAUR_constant@@@Z 10010140 f i r2.obj
 0001:0000f270       ??0cl_pos_decompress_params@@QAE@XZ 10010270 f i r2.obj
 0001:0000f280       ??1cl_pos_decompress_params@@UAE@XZ 10010280 f i r2.obj
 0001:0000f290       ??_Ecl_pos_decompress_params@@UAEPAXI@Z 10010290 f i * CIL library *:* CIL module *
 0001:0000f290       ??_Gcl_pos_decompress_params@@UAEPAXI@Z 10010290 f i r2.obj
 0001:0000f2c0       ?setup@cl_water_intensity@@EAEXPAUR_constant@@@Z 100102c0 f i r2.obj
 0001:0000f360       ??0cl_water_intensity@@QAE@XZ 10010360 f i r2.obj
 0001:0000f370       ??1cl_water_intensity@@UAE@XZ 10010370 f i r2.obj
 0001:0000f380       ??_Gcl_water_intensity@@UAEPAXI@Z 10010380 f i r2.obj
 0001:0000f380       ??_Ecl_water_intensity@@UAEPAXI@Z 10010380 f i * CIL library *:* CIL module *
 0001:0000f3b0       ?setup@cl_tree_amplitude_intensity@@EAEXPAUR_constant@@@Z 100103b0 f i r2.obj
 0001:0000f450       ??0cl_tree_amplitude_intensity@@QAE@XZ 10010450 f i r2.obj
 0001:0000f460       ??1cl_tree_amplitude_intensity@@UAE@XZ 10010460 f i r2.obj
 0001:0000f470       ??_Ecl_tree_amplitude_intensity@@UAEPAXI@Z 10010470 f i * CIL library *:* CIL module *
 0001:0000f470       ??_Gcl_tree_amplitude_intensity@@UAEPAXI@Z 10010470 f i r2.obj
 0001:0000f4a0       ?setup@cl_sun_shafts_intensity@@EAEXPAUR_constant@@@Z 100104a0 f i r2.obj
 0001:0000f540       ??0cl_sun_shafts_intensity@@QAE@XZ 10010540 f i r2.obj
 0001:0000f550       ??1cl_sun_shafts_intensity@@UAE@XZ 10010550 f i r2.obj
 0001:0000f560       ??_Gcl_sun_shafts_intensity@@UAEPAXI@Z 10010560 f i r2.obj
 0001:0000f560       ??_Ecl_sun_shafts_intensity@@UAEPAXI@Z 10010560 f i * CIL library *:* CIL module *
 0001:0000f590       ?create@CRender@@UAEXXZ    10010590 f   r2.obj
 0001:0000ffc0       ?destroy@CRender@@UAEXXZ   10010fc0 f   r2.obj
 0001:000100d0       ?reset_begin@CRender@@UAEXXZ 100110d0 f   r2.obj
 0001:00010280       ?reset_end@CRender@@UAEXXZ 10011280 f   r2.obj
 0001:000103b0       ?OnFrame@CRender@@UAEXXZ   100113b0 f   r2.obj
 0001:00010440       ?is_sun@CRender@@UAEHXZ    10011440 f   r2.obj
 0001:000104c0       ?ros_create@CRender@@UAEPAVIRender_ObjectSpecific@@PAVIRenderable@@@Z 100114c0 f   r2.obj
 0001:000104f0       ?ros_destroy@CRender@@UAEXAAPAVIRender_ObjectSpecific@@@Z 100114f0 f   r2.obj
 0001:00010530       ?model_Create@CRender@@UAEPAVIRender_Visual@@PBDPAVIReader@@@Z 10011530 f   r2.obj
 0001:00010540       ?model_CreateChild@CRender@@UAEPAVIRender_Visual@@PBDPAVIReader@@@Z 10011540 f   r2.obj
 0001:00010550       ?model_Duplicate@CRender@@UAEPAVIRender_Visual@@PAV2@@Z 10011550 f   r2.obj
 0001:00010560       ?model_Delete@CRender@@UAEXAAPAVIRender_Visual@@H@Z 10011560 f   r2.obj
 0001:00010570       ?model_CreateDM@CRender@@UAEPAVIRender_DetailModel@@PAVIReader@@@Z 10011570 f   r2.obj
 0001:000105c0       ?model_Delete@CRender@@UAEXAAPAVIRender_DetailModel@@@Z 100115c0 f   r2.obj
 0001:00010610       ?model_CreatePE@CRender@@QAEPAVIRender_Visual@@PBD@Z 10011610 f   r2.obj
 0001:00010690       ?model_CreateParticles@CRender@@UAEPAVIRender_Visual@@PBD@Z 10011690 f   r2.obj
 0001:00010740       ?models_Prefetch@CRender@@UAEXXZ 10011740 f   r2.obj
 0001:00010750       ?models_Clear@CRender@@UAEXH@Z 10011750 f   r2.obj
 0001:00010760       ?getShader@CRender@@UAE?AV?$resptr_core@UShader@@Uresptrcode_shader@@@@H@Z 10011760 f   r2.obj
 0001:00010780       ?getPortal@CRender@@QAEPAVIRender_Portal@@H@Z 10011780 f   r2.obj
 0001:00010790       ?getSector@CRender@@UAEPAVIRender_Sector@@H@Z 10011790 f   r2.obj
 0001:000107a0       ?getSectorActive@CRender@@QAEPAVIRender_Sector@@XZ 100117a0 f   r2.obj
 0001:000107b0       ?getVisual@CRender@@UAEPAVIRender_Visual@@H@Z 100117b0 f   r2.obj
 0001:000107c0       ?getVB_Format@CRender@@QAEPAU_D3DVERTEXELEMENT9@@HH@Z 100117c0 f   r2.obj
 0001:000107f0       ?getVB@CRender@@QAEPAUIDirect3DVertexBuffer9@@HH@Z 100117f0 f   r2.obj
 0001:00010810       ?getIB@CRender@@QAEPAUIDirect3DIndexBuffer9@@HH@Z 10011810 f   r2.obj
 0001:00010830       ?getSWI@CRender@@QAEPAUFSlideWindowItem@@H@Z 10011830 f   r2.obj
 0001:00010850       ?getTarget@CRender@@UAEPAVIRender_Target@@XZ 10011850 f   r2.obj
 0001:00010860       ?light_create@CRender@@UAEPAVIRender_Light@@XZ 10011860 f   r2.obj
 0001:000108a0       ?glow_create@CRender@@UAEPAVIRender_Glow@@XZ 100118a0 f   r2.obj
 0001:000108d0       ?flush@CRender@@UAEXXZ     100118d0 f   r2.obj
 0001:000108e0       ?occ_visible@CRender@@UAEHAAUvis_data@@@Z 100118e0 f   r2.obj
 0001:00010950       ?occ_visible@CRender@@UAEHAAV?$svector@U?$_vector3@M@@$0DA@@@@Z 10011950 f   r2.obj
 0001:00010960       ?occ_visible@CRender@@UAEHAAV?$_box3@M@@@Z 10011960 f   r2.obj
 0001:000109e0       ?add_Visual@CRender@@UAEXPAVIRender_Visual@@@Z 100119e0 f   r2.obj
 0001:000109f0       ?add_Geometry@CRender@@UAEXPAVIRender_Visual@@@Z 100119f0 f   r2.obj
 0001:00010a20       ?add_StaticWallmark@CRender@@UAEXAAV?$resptr_core@UShader@@Uresptrcode_shader@@@@ABU?$_vector3@M@@MPAVTRI@CDB@@PAU3@@Z 10011a20 f   r2.obj
 0001:00010a70       ?add_StaticWallmark@CRender@@UAEXPAVIWallMarkArray@@ABU?$_vector3@M@@MPAVTRI@CDB@@PAU3@@Z 10011a70 f   r2.obj
 0001:00010ad0       ?add_StaticWallmark@CRender@@UAEXABV?$FactoryPtr@VIUIShader@@@@ABU?$_vector3@M@@MPAVTRI@CDB@@PAU3@@Z 10011ad0 f   r2.obj
 0001:00010b00       ?clear_static_wallmarks@CRender@@UAEXXZ 10011b00 f   r2.obj
 0001:00010b10       ?add_SkeletonWallmark@CRender@@UAEXV?$intrusive_ptr@VCSkeletonWallmark@@Uintrusive_base@@@@@Z 10011b10 f   r2.obj
 0001:00010b50       ?add_SkeletonWallmark@CRender@@UAEXPBU?$_matrix@M@@PAVCKinematics@@AAV?$resptr_core@UShader@@Uresptrcode_shader@@@@ABU?$_vector3@M@@3M@Z 10011b50 f   r2.obj
 0001:00010b80       ?add_SkeletonWallmark@CRender@@UAEXPBU?$_matrix@M@@PAVCKinematics@@PAVIWallMarkArray@@ABU?$_vector3@M@@3M@Z 10011b80 f   r2.obj
 0001:00010be0       ?add_Occluder@CRender@@UAEXAAV?$_box2@M@@@Z 10011be0 f   r2.obj
 0001:00010bf0       ?set_Object@CRender@@UAEXPAVIRenderable@@@Z 10011bf0 f   r2.obj
 0001:00010c00       ?rmNear@CRender@@UAEXXZ    10011c00 f   r2.obj
 0001:00010c60       ?rmFar@CRender@@UAEXXZ     10011c60 f   r2.obj
 0001:00010cc0       ?rmNormal@CRender@@UAEXXZ  10011cc0 f   r2.obj
 0001:00010d20       ??0CRender@@QAE@XZ         10011d20 f   r2.obj
 0001:00010f10       ??_GCRender@@UAEPAXI@Z     10011f10 f i r2.obj
 0001:00010f10       ??_ECRender@@UAEPAXI@Z     10011f10 f i * CIL library *:* CIL module *
 0001:00010f40       ??1?$xr_vector@PAVIRender_Portal@@V?$xalloc@PAVIRender_Portal@@@@@@QAE@XZ 10011f40 f i r2.obj
 0001:00010f70       ??1?$xr_vector@PAVIRender_Sector@@V?$xalloc@PAVIRender_Sector@@@@@@QAE@XZ 10011f70 f i r2.obj
 0001:00010fa0       ??1?$xr_vector@UFSlideWindowItem@@V?$xalloc@UFSlideWindowItem@@@@@@QAE@XZ 10011fa0 f i r2.obj
 0001:00010fd0       ??1?$xr_vector@V?$svector@U_D3DVERTEXELEMENT9@@$0EB@@@V?$xalloc@V?$svector@U_D3DVERTEXELEMENT9@@$0EB@@@@@@@QAE@XZ 10011fd0 f i r2.obj
 0001:00011000       ??1?$xr_vector@PAUIDirect3DVertexBuffer9@@V?$xalloc@PAUIDirect3DVertexBuffer9@@@@@@QAE@XZ 10012000 f i r2.obj
 0001:00011030       ??1?$xr_vector@PAUIDirect3DIndexBuffer9@@V?$xalloc@PAUIDirect3DIndexBuffer9@@@@@@QAE@XZ 10012030 f i r2.obj
 0001:00011060       ??1?$xr_vector@PAVIRender_Visual@@V?$xalloc@PAVIRender_Visual@@@@@@QAE@XZ 10012060 f i r2.obj
 0001:00011090       ??1?$xr_vector@PAVlight@@V?$xalloc@PAVlight@@@@@@QAE@XZ 10012090 f i r2.obj
 0001:000110c0       ??0SMAP_Allocator@@QAE@XZ  100120c0 f i r2.obj
 0001:000110f0       ??1SMAP_Allocator@@QAE@XZ  100120f0 f i r2.obj
 0001:00011150       ??0light_Package@@QAE@XZ   10012150 f i r2.obj
 0001:000111a0       ??1light_Package@@QAE@XZ   100121a0 f i r2.obj
 0001:00011220       ??1?$xr_vector@V?$_box3@M@@V?$doug_lea_alloc@V?$_box3@M@@@@@@QAE@XZ 10012220 f i r2.obj
 0001:00011250       ??1?$xr_vector@Ucascade@sun@@V?$xalloc@Ucascade@sun@@@@@@QAE@XZ 10012250 f i r2.obj
 0001:000112a0       ??1?$xr_vector@USMAP_Rect@@V?$xalloc@USMAP_Rect@@@@@@QAE@XZ 100122a0 f i r2.obj
 0001:000112d0       ??1?$xr_vector@U?$_vector2@H@@V?$xalloc@U?$_vector2@H@@@@@@QAE@XZ 100122d0 f i r2.obj
 0001:00011300       ??1CRender@@UAE@XZ         10012300 f   r2.obj
 0001:000116d0       ?Statistics@CRender@@UAEXPAVCGameFont@@@Z 100126d0 f   r2.obj
 0001:00011ab0       ?Open@includer@@UAGJW4_D3DXINCLUDE_TYPE@@PBDPBXPAPBXPAI@Z 10012ab0 f i r2.obj
 0001:00011ba0       ?Close@includer@@UAGJPBX@Z 10012ba0 f i r2.obj
 0001:00011bc0       ?shader_compile@CRender@@UAEJPBDPBKI00KAAPAX@Z 10012bc0 f   r2.obj
 0001:00012830       ??0includer@@QAE@XZ        10013830 f i r2.obj
 0001:00012840       ??0ID3DXInclude@@QAE@XZ    10013840 f i r2.obj
 0001:000129c0       ?begin@?$_Tree@V?$_Tset_traits@UFS_File@@U?$less@UFS_File@@@std@@V?$xalloc@UFS_File@@@@$0A@@std@@@std@@QBE?AV?$_Tree_const_iterator@V?$_Tree_val@U?$_Tree_simple_types@UFS_File@@@std@@@std@@@2@XZ 100139c0 f i r2.obj
 0001:000129d0       ?end@?$_Tree@V?$_Tset_traits@UFS_File@@U?$less@UFS_File@@@std@@V?$xalloc@UFS_File@@@@$0A@@std@@@std@@QBE?AV?$_Tree_const_iterator@V?$_Tree_val@U?$_Tree_simple_types@UFS_File@@@std@@@std@@@2@XZ 100139d0 f i r2.obj
 0001:000129e0       ?size@?$xr_vector@U_REG_INFO@@V?$xalloc@U_REG_INFO@@@@@@QBEIXZ 100139e0 f i r2.obj
 0001:00012a00       ?_get@?$resptr_base@UShaderElement@@@@QBEPAUShaderElement@@XZ 10013a00 f i r2.obj
 0001:00012a10       ??0?$resptr_core@UShader@@Uresptrcode_shader@@@@QAE@PAUShader@@_N@Z 10013a10 f i r2.obj
 0001:00012a20       ?Add@?$CRegistrator@VpureFrame@@@@QAEXPAVpureFrame@@HI@Z 10013a20 f i r2.obj
 0001:00012a70       ?Remove@?$CRegistrator@VpureFrame@@@@QAEXPAVpureFrame@@@Z 10013a70 f i r2.obj
 0001:00012af0       ?insert@?$vector@V?$FastDelegate0@X@fastdelegate@@V?$xalloc@V?$FastDelegate0@X@fastdelegate@@@@@std@@QAE?AV?$_Vector_iterator@V?$_Vector_val@U?$_Simple_types@V?$FastDelegate0@X@fastdelegate@@@std@@@std@@@2@V?$_Vector_const_iterator@V?$_Vector_val@U?$_Simple_types@V?$FastDelegate0@X@fastdelegate@@@std@@@std@@@2@$$QAV?$FastDelegate0@X@fastdelegate@@@Z 10013af0 f i r2.obj
 0001:00012b10       ??0?$xr_vector@PAVIRender_Sector@@V?$xalloc@PAVIRender_Sector@@@@@@QAE@XZ 10013b10 f i r2.obj
 0001:00012b30       ??A?$xr_vector@PAVIRender_Sector@@V?$xalloc@PAVIRender_Sector@@@@@@QAEAAPAVIRender_Sector@@I@Z 10013b30 f i r2.obj
 0001:00012b40       ??1?$vector@PAVIRender_Sector@@V?$xalloc@PAVIRender_Sector@@@@@std@@QAE@XZ 10013b40 f i r2.obj
 0001:00012b70       ??0?$xr_vector@V?$_box3@M@@V?$doug_lea_alloc@V?$_box3@M@@@@@@QAE@XZ 10013b70 f i r2.obj
 0001:00012b90       ??1?$vector@V?$_box3@M@@V?$doug_lea_alloc@V?$_box3@M@@@@@std@@QAE@XZ 10013b90 f i r2.obj
 0001:00012bc0       ??0?$xr_vector@PAVIRender_Visual@@V?$xalloc@PAVIRender_Visual@@@@@@QAE@XZ 10013bc0 f i r2.obj
 0001:00012be0       ??A?$xr_vector@PAVIRender_Visual@@V?$xalloc@PAVIRender_Visual@@@@@@QAEAAPAVIRender_Visual@@I@Z 10013be0 f i r2.obj
 0001:00012bf0       ??1?$vector@PAVIRender_Visual@@V?$xalloc@PAVIRender_Visual@@@@@std@@QAE@XZ 10013bf0 f i r2.obj
 0001:00012c20       ??0?$xr_vector@USMAP_Rect@@V?$xalloc@USMAP_Rect@@@@@@QAE@XZ 10013c20 f i r2.obj
 0001:00012c40       ??1?$vector@USMAP_Rect@@V?$xalloc@USMAP_Rect@@@@@std@@QAE@XZ 10013c40 f i r2.obj
 0001:00012c70       ??0?$xr_vector@U?$_vector2@H@@V?$xalloc@U?$_vector2@H@@@@@@QAE@XZ 10013c70 f i r2.obj
 0001:00012c90       ??1?$vector@U?$_vector2@H@@V?$xalloc@U?$_vector2@H@@@@@std@@QAE@XZ 10013c90 f i r2.obj
 0001:00012cc0       ??0?$xr_vector@PAVlight@@V?$xalloc@PAVlight@@@@@@QAE@XZ 10013cc0 f i r2.obj
 0001:00012ce0       ?size@?$xr_vector@PAVlight@@V?$xalloc@PAVlight@@@@@@QBEIXZ 10013ce0 f i r2.obj
 0001:00012cf0       ?clear@?$xr_vector@PAVlight@@V?$xalloc@PAVlight@@@@@@QAEXXZ 10013cf0 f i r2.obj
 0001:00012d00       ??A?$xr_vector@PAVlight@@V?$xalloc@PAVlight@@@@@@QAEAAPAVlight@@I@Z 10013d00 f i r2.obj
 0001:00012d10       ??1?$vector@PAVlight@@V?$xalloc@PAVlight@@@@@std@@QAE@XZ 10013d10 f i r2.obj
 0001:00012d40       ??0?$xr_vector@PAVIRender_Portal@@V?$xalloc@PAVIRender_Portal@@@@@@QAE@XZ 10013d40 f i r2.obj
 0001:00012d60       ??A?$xr_vector@PAVIRender_Portal@@V?$xalloc@PAVIRender_Portal@@@@@@QAEAAPAVIRender_Portal@@I@Z 10013d60 f i r2.obj
 0001:00012d70       ??1?$vector@PAVIRender_Portal@@V?$xalloc@PAVIRender_Portal@@@@@std@@QAE@XZ 10013d70 f i r2.obj
 0001:00012da0       ??0?$xr_vector@UFSlideWindowItem@@V?$xalloc@UFSlideWindowItem@@@@@@QAE@XZ 10013da0 f i r2.obj
 0001:00012dc0       ??A?$xr_vector@UFSlideWindowItem@@V?$xalloc@UFSlideWindowItem@@@@@@QAEAAUFSlideWindowItem@@I@Z 10013dc0 f i r2.obj
 0001:00012dd0       ??1?$vector@UFSlideWindowItem@@V?$xalloc@UFSlideWindowItem@@@@@std@@QAE@XZ 10013dd0 f i r2.obj
 0001:00012e00       ??0?$xr_vector@V?$resptr_core@UShader@@Uresptrcode_shader@@@@V?$xalloc@V?$resptr_core@UShader@@Uresptrcode_shader@@@@@@@@QAE@XZ 10013e00 f i r2.obj
 0001:00012e20       ??0?$xr_vector@V?$svector@U_D3DVERTEXELEMENT9@@$0EB@@@V?$xalloc@V?$svector@U_D3DVERTEXELEMENT9@@$0EB@@@@@@@QAE@XZ 10013e20 f i r2.obj
 0001:00012e40       ??A?$xr_vector@V?$svector@U_D3DVERTEXELEMENT9@@$0EB@@@V?$xalloc@V?$svector@U_D3DVERTEXELEMENT9@@$0EB@@@@@@@QAEAAV?$svector@U_D3DVERTEXELEMENT9@@$0EB@@@I@Z 10013e40 f i r2.obj
 0001:00012e50       ??1?$vector@V?$svector@U_D3DVERTEXELEMENT9@@$0EB@@@V?$xalloc@V?$svector@U_D3DVERTEXELEMENT9@@$0EB@@@@@@std@@QAE@XZ 10013e50 f i r2.obj
 0001:00012e80       ??0?$xr_vector@PAUIDirect3DVertexBuffer9@@V?$xalloc@PAUIDirect3DVertexBuffer9@@@@@@QAE@XZ 10013e80 f i r2.obj
 0001:00012ea0       ??A?$xr_vector@PAUIDirect3DVertexBuffer9@@V?$xalloc@PAUIDirect3DVertexBuffer9@@@@@@QAEAAPAUIDirect3DVertexBuffer9@@I@Z 10013ea0 f i r2.obj
 0001:00012eb0       ??1?$vector@PAUIDirect3DVertexBuffer9@@V?$xalloc@PAUIDirect3DVertexBuffer9@@@@@std@@QAE@XZ 10013eb0 f i r2.obj
 0001:00012ee0       ??0?$xr_vector@PAUIDirect3DIndexBuffer9@@V?$xalloc@PAUIDirect3DIndexBuffer9@@@@@@QAE@XZ 10013ee0 f i r2.obj
 0001:00012f00       ??A?$xr_vector@PAUIDirect3DIndexBuffer9@@V?$xalloc@PAUIDirect3DIndexBuffer9@@@@@@QAEAAPAUIDirect3DIndexBuffer9@@I@Z 10013f00 f i r2.obj
 0001:00012f10       ??1?$vector@PAUIDirect3DIndexBuffer9@@V?$xalloc@PAUIDirect3DIndexBuffer9@@@@@std@@QAE@XZ 10013f10 f i r2.obj
 0001:00012f40       ??0?$xr_vector@Ucascade@sun@@V?$xalloc@Ucascade@sun@@@@@@QAE@XZ 10013f40 f i r2.obj
 0001:00012f60       ??1?$vector@Ucascade@sun@@V?$xalloc@Ucascade@sun@@@@@std@@QAE@XZ 10013f60 f i r2.obj
 0001:00012fb0       ??A?$xr_vector@U_REG_INFO@@V?$xalloc@U_REG_INFO@@@@@@QAEAAU_REG_INFO@@I@Z 10013fb0 f i r2.obj
 0001:00012fc0       ?size@?$vector@U_REG_INFO@@V?$xalloc@U_REG_INFO@@@@@std@@QBEIXZ 10013fc0 f i r2.obj
 0001:00012fe0       ?push_back@?$vector@U_REG_INFO@@V?$xalloc@U_REG_INFO@@@@@std@@QAEXABU_REG_INFO@@@Z 10013fe0 f i r2.obj
 0001:00013070       ?Resort@?$CRegistrator@VpureFrame@@@@QAEXXZ 10014070 f i r2.obj
 0001:00013140       ??0?$vector@PAVIRender_Sector@@V?$xalloc@PAVIRender_Sector@@@@@std@@QAE@XZ 10014140 f i r2.obj
 0001:00013160       ?begin@?$vector@PAVIRender_Sector@@V?$xalloc@PAVIRender_Sector@@@@@std@@QAE?AV?$_Vector_iterator@V?$_Vector_val@U?$_Simple_types@PAVIRender_Sector@@@std@@@std@@@2@XZ 10014160 f i r2.obj
 0001:00013170       ?_Tidy@?$vector@PAVIRender_Sector@@V?$xalloc@PAVIRender_Sector@@@@@std@@IAEXXZ 10014170 f i r2.obj
 0001:000131a0       ??0?$vector@V?$_box3@M@@V?$doug_lea_alloc@V?$_box3@M@@@@@std@@QAE@XZ 100141a0 f i r2.obj
 0001:000131c0       ?_Tidy@?$vector@V?$_box3@M@@V?$doug_lea_alloc@V?$_box3@M@@@@@std@@IAEXXZ 100141c0 f i r2.obj
 0001:000131f0       ??0?$vector@PAVIRender_Visual@@V?$xalloc@PAVIRender_Visual@@@@@std@@QAE@XZ 100141f0 f i r2.obj
 0001:00013210       ?_Tidy@?$vector@PAVIRender_Visual@@V?$xalloc@PAVIRender_Visual@@@@@std@@IAEXXZ 10014210 f i r2.obj
 0001:00013240       ??D?$_Vector_iterator@V?$_Vector_val@U?$_Simple_types@PAVIRender_Visual@@@std@@@std@@@std@@QBEAAPAVIRender_Visual@@XZ 10014240 f i r2.obj
 0001:00013250       ??0?$vector@USMAP_Rect@@V?$xalloc@USMAP_Rect@@@@@std@@QAE@XZ 10014250 f i r2.obj
 0001:00013270       ?_Tidy@?$vector@USMAP_Rect@@V?$xalloc@USMAP_Rect@@@@@std@@IAEXXZ 10014270 f i r2.obj
 0001:000132a0       ??0?$vector@U?$_vector2@H@@V?$xalloc@U?$_vector2@H@@@@@std@@QAE@XZ 100142a0 f i r2.obj
 0001:000132c0       ?_Tidy@?$vector@U?$_vector2@H@@V?$xalloc@U?$_vector2@H@@@@@std@@IAEXXZ 100142c0 f i r2.obj
 0001:000132f0       ?clear_and_free@?$xr_vector@PAVlight@@V?$xalloc@PAVlight@@@@@@QAEXXZ 100142f0 f i r2.obj
 0001:00013300       ??0?$vector@PAVlight@@V?$xalloc@PAVlight@@@@@std@@QAE@XZ 10014300 f i r2.obj
 0001:00013320       ?begin@?$vector@PAVlight@@V?$xalloc@PAVlight@@@@@std@@QAE?AV?$_Vector_iterator@V?$_Vector_val@U?$_Simple_types@PAVlight@@@std@@@std@@@2@XZ 10014320 f i r2.obj
 0001:00013330       ?size@?$vector@PAVlight@@V?$xalloc@PAVlight@@@@@std@@QBEIXZ 10014330 f i r2.obj
 0001:00013340       ?_Tidy@?$vector@PAVlight@@V?$xalloc@PAVlight@@@@@std@@IAEXXZ 10014340 f i r2.obj
 0001:00013370       ??0?$vector@PAVIRender_Portal@@V?$xalloc@PAVIRender_Portal@@@@@std@@QAE@XZ 10014370 f i r2.obj
 0001:00013390       ?begin@?$vector@PAVIRender_Portal@@V?$xalloc@PAVIRender_Portal@@@@@std@@QAE?AV?$_Vector_iterator@V?$_Vector_val@U?$_Simple_types@PAVIRender_Portal@@@std@@@std@@@2@XZ 10014390 f i r2.obj
 0001:000133a0       ?_Tidy@?$vector@PAVIRender_Portal@@V?$xalloc@PAVIRender_Portal@@@@@std@@IAEXXZ 100143a0 f i r2.obj
 0001:000133d0       ??0?$vector@UFSlideWindowItem@@V?$xalloc@UFSlideWindowItem@@@@@std@@QAE@XZ 100143d0 f i r2.obj
 0001:000133f0       ?begin@?$vector@UFSlideWindowItem@@V?$xalloc@UFSlideWindowItem@@@@@std@@QAE?AV?$_Vector_iterator@V?$_Vector_val@U?$_Simple_types@UFSlideWindowItem@@@std@@@std@@@2@XZ 100143f0 f i r2.obj
 0001:00013400       ?_Tidy@?$vector@UFSlideWindowItem@@V?$xalloc@UFSlideWindowItem@@@@@std@@IAEXXZ 10014400 f i r2.obj
 0001:00013430       ??0?$vector@V?$resptr_core@UShader@@Uresptrcode_shader@@@@V?$xalloc@V?$resptr_core@UShader@@Uresptrcode_shader@@@@@@@std@@QAE@XZ 10014430 f i r2.obj
 0001:00013450       ??0?$vector@V?$svector@U_D3DVERTEXELEMENT9@@$0EB@@@V?$xalloc@V?$svector@U_D3DVERTEXELEMENT9@@$0EB@@@@@@std@@QAE@XZ 10014450 f i r2.obj
 0001:00013470       ?begin@?$vector@V?$svector@U_D3DVERTEXELEMENT9@@$0EB@@@V?$xalloc@V?$svector@U_D3DVERTEXELEMENT9@@$0EB@@@@@@std@@QAE?AV?$_Vector_iterator@V?$_Vector_val@U?$_Simple_types@V?$svector@U_D3DVERTEXELEMENT9@@$0EB@@@@std@@@std@@@2@XZ 10014470 f i r2.obj
 0001:00013480       ?_Tidy@?$vector@V?$svector@U_D3DVERTEXELEMENT9@@$0EB@@@V?$xalloc@V?$svector@U_D3DVERTEXELEMENT9@@$0EB@@@@@@std@@IAEXXZ 10014480 f i r2.obj
 0001:000134b0       ??0?$vector@PAUIDirect3DVertexBuffer9@@V?$xalloc@PAUIDirect3DVertexBuffer9@@@@@std@@QAE@XZ 100144b0 f i r2.obj
 0001:000134d0       ?begin@?$vector@PAUIDirect3DVertexBuffer9@@V?$xalloc@PAUIDirect3DVertexBuffer9@@@@@std@@QAE?AV?$_Vector_iterator@V?$_Vector_val@U?$_Simple_types@PAUIDirect3DVertexBuffer9@@@std@@@std@@@2@XZ 100144d0 f i r2.obj
 0001:000134e0       ?_Tidy@?$vector@PAUIDirect3DVertexBuffer9@@V?$xalloc@PAUIDirect3DVertexBuffer9@@@@@std@@IAEXXZ 100144e0 f i r2.obj
 0001:00013510       ??0?$vector@PAUIDirect3DIndexBuffer9@@V?$xalloc@PAUIDirect3DIndexBuffer9@@@@@std@@QAE@XZ 10014510 f i r2.obj
 0001:00013530       ?begin@?$vector@PAUIDirect3DIndexBuffer9@@V?$xalloc@PAUIDirect3DIndexBuffer9@@@@@std@@QAE?AV?$_Vector_iterator@V?$_Vector_val@U?$_Simple_types@PAUIDirect3DIndexBuffer9@@@std@@@std@@@2@XZ 10014530 f i r2.obj
 0001:00013540       ?_Tidy@?$vector@PAUIDirect3DIndexBuffer9@@V?$xalloc@PAUIDirect3DIndexBuffer9@@@@@std@@IAEXXZ 10014540 f i r2.obj
 0001:00013570       ??0?$vector@Ucascade@sun@@V?$xalloc@Ucascade@sun@@@@@std@@QAE@XZ 10014570 f i r2.obj
 0001:00013590       ?_Tidy@?$vector@Ucascade@sun@@V?$xalloc@Ucascade@sun@@@@@std@@IAEXXZ 10014590 f i r2.obj
 0001:000135e0       ??D?$_Vector_iterator@V?$_Vector_val@U?$_Simple_types@PAVIRender_Sector@@@std@@@std@@@std@@QBEAAPAVIRender_Sector@@XZ 100145e0 f i r2.obj
 0001:000135f0       ??H?$_Vector_iterator@V?$_Vector_val@U?$_Simple_types@PAVIRender_Sector@@@std@@@std@@@std@@QBE?AV01@H@Z 100145f0 f i r2.obj
 0001:00013610       ??D?$_Vector_iterator@V?$_Vector_val@U?$_Simple_types@PAVlight@@@std@@@std@@@std@@QBEAAPAVlight@@XZ 10014610 f i r2.obj
 0001:00013620       ??H?$_Vector_iterator@V?$_Vector_val@U?$_Simple_types@PAVlight@@@std@@@std@@@std@@QBE?AV01@H@Z 10014620 f i r2.obj
 0001:00013640       ??D?$_Vector_iterator@V?$_Vector_val@U?$_Simple_types@PAVIRender_Portal@@@std@@@std@@@std@@QBEAAPAVIRender_Portal@@XZ 10014640 f i r2.obj
 0001:00013650       ??H?$_Vector_iterator@V?$_Vector_val@U?$_Simple_types@PAVIRender_Portal@@@std@@@std@@@std@@QBE?AV01@H@Z 10014650 f i r2.obj
 0001:00013670       ??D?$_Vector_iterator@V?$_Vector_val@U?$_Simple_types@UFSlideWindowItem@@@std@@@std@@@std@@QBEAAUFSlideWindowItem@@XZ 10014670 f i r2.obj
 0001:00013680       ??H?$_Vector_iterator@V?$_Vector_val@U?$_Simple_types@UFSlideWindowItem@@@std@@@std@@@std@@QBE?AV01@H@Z 10014680 f i r2.obj
 0001:000136a0       ??D?$_Vector_iterator@V?$_Vector_val@U?$_Simple_types@V?$svector@U_D3DVERTEXELEMENT9@@$0EB@@@@std@@@std@@@std@@QBEAAV?$svector@U_D3DVERTEXELEMENT9@@$0EB@@@XZ 100146a0 f i r2.obj
 0001:000136b0       ??H?$_Vector_iterator@V?$_Vector_val@U?$_Simple_types@V?$svector@U_D3DVERTEXELEMENT9@@$0EB@@@@std@@@std@@@std@@QBE?AV01@H@Z 100146b0 f i r2.obj
 0001:000136d0       ??D?$_Vector_iterator@V?$_Vector_val@U?$_Simple_types@PAUIDirect3DVertexBuffer9@@@std@@@std@@@std@@QBEAAPAUIDirect3DVertexBuffer9@@XZ 100146d0 f i r2.obj
 0001:000136e0       ??H?$_Vector_iterator@V?$_Vector_val@U?$_Simple_types@PAUIDirect3DVertexBuffer9@@@std@@@std@@@std@@QBE?AV01@H@Z 100146e0 f i r2.obj
 0001:00013700       ??D?$_Vector_iterator@V?$_Vector_val@U?$_Simple_types@PAUIDirect3DIndexBuffer9@@@std@@@std@@@std@@QBEAAPAUIDirect3DIndexBuffer9@@XZ 10014700 f i r2.obj
 0001:00013710       ??H?$_Vector_iterator@V?$_Vector_val@U?$_Simple_types@PAUIDirect3DIndexBuffer9@@@std@@@std@@@std@@QBE?AV01@H@Z 10014710 f i r2.obj
 0001:00013730       ?clear@?$xr_vector@U_REG_INFO@@V?$xalloc@U_REG_INFO@@@@@@QAEXXZ 10014730 f i r2.obj
 0001:00013740       ?begin@?$vector@U_REG_INFO@@V?$xalloc@U_REG_INFO@@@@@std@@QAE?AV?$_Vector_iterator@V?$_Vector_val@U?$_Simple_types@U_REG_INFO@@@std@@@std@@@2@XZ 10014740 f i r2.obj
 0001:00013750       ?empty@?$vector@U_REG_INFO@@V?$xalloc@U_REG_INFO@@@@@std@@QBE_NXZ 10014750 f i r2.obj
 0001:00013760       ?pop_back@?$vector@U_REG_INFO@@V?$xalloc@U_REG_INFO@@@@@std@@QAEXXZ 10014760 f i r2.obj
 0001:00013770       ?_Inside@?$vector@U_REG_INFO@@V?$xalloc@U_REG_INFO@@@@@std@@IBE_NPBU_REG_INFO@@@Z 10014770 f i r2.obj
 0001:00013790       ?_Reserve@?$vector@U_REG_INFO@@V?$xalloc@U_REG_INFO@@@@@std@@IAEXI@Z 10014790 f i r2.obj
 0001:00013830       ?_Orphan_range@?$vector@U_REG_INFO@@V?$xalloc@U_REG_INFO@@@@@std@@IBEXPAU_REG_INFO@@0@Z 10014830 f i r2.obj
 0001:00013840       ?_Destroy@?$vector@PAVIRender_Sector@@V?$xalloc@PAVIRender_Sector@@@@@std@@IAEXPAPAVIRender_Sector@@0@Z 10014840 f i r2.obj
 0001:00013850       ??0?$xalloc@PAVIRender_Sector@@@@QAE@XZ 10014850 f i r2.obj
 0001:00013860       ??0?$_Vector_alloc@$0A@U?$_Vec_base_types@PAVIRender_Sector@@V?$xalloc@PAVIRender_Sector@@@@@std@@@std@@QAE@ABV?$xalloc@PAVIRender_Sector@@@@@Z 10014860 f i r2.obj
 0001:00013880       ?_Getal@?$_Vector_alloc@$0A@U?$_Vec_base_types@PAVIRender_Sector@@V?$xalloc@PAVIRender_Sector@@@@@std@@@std@@QBE?AU?$_Wrap_alloc@V?$xalloc@PAVIRender_Sector@@@@@2@XZ 10014880 f i r2.obj
 0001:00013890       ?deallocate@?$_Wrap_alloc@V?$xalloc@PAVIRender_Sector@@@@@std@@QAEXPAPAVIRender_Sector@@I@Z 10014890 f i r2.obj
 0001:000138b0       ??0?$_Vector_alloc@$0A@U?$_Vec_base_types@V?$_box3@M@@V?$doug_lea_alloc@V?$_box3@M@@@@@std@@@std@@QAE@ABV?$doug_lea_alloc@V?$_box3@M@@@@@Z 100148b0 f i r2.obj
 0001:000138d0       ?deallocate@?$_Wrap_alloc@V?$doug_lea_alloc@V?$_box3@M@@@@@std@@QAEXPAV?$_box3@M@@I@Z 100148d0 f i r2.obj
 0001:000138e0       ??0?$_Vector_alloc@$0A@U?$_Vec_base_types@PAVIRender_Visual@@V?$xalloc@PAVIRender_Visual@@@@@std@@@std@@QAE@ABV?$xalloc@PAVIRender_Visual@@@@@Z 100148e0 f i r2.obj
 0001:00013900       ??D?$_Vector_const_iterator@V?$_Vector_val@U?$_Simple_types@PAVIRender_Visual@@@std@@@std@@@std@@QBEABQAVIRender_Visual@@XZ 10014900 f i r2.obj
 0001:00013910       ??0?$_Vector_alloc@$0A@U?$_Vec_base_types@USMAP_Rect@@V?$xalloc@USMAP_Rect@@@@@std@@@std@@QAE@ABV?$xalloc@USMAP_Rect@@@@@Z 10014910 f i r2.obj
 0001:00013930       ??0?$_Vector_alloc@$0A@U?$_Vec_base_types@U?$_vector2@H@@V?$xalloc@U?$_vector2@H@@@@@std@@@std@@QAE@ABV?$xalloc@U?$_vector2@H@@@@@Z 10014930 f i r2.obj
 0001:00013950       ?clear@?$vector@PAVlight@@V?$xalloc@PAVlight@@@@@std@@QAEXXZ 10014950 f i r2.obj
 0001:00013960       ?_Destroy@?$vector@PAVlight@@V?$xalloc@PAVlight@@@@@std@@IAEXPAPAVlight@@0@Z 10014960 f i r2.obj
 0001:00013970       ??0?$xalloc@PAVlight@@@@QAE@XZ 10014970 f i r2.obj
 0001:00013980       ??0?$_Vector_alloc@$0A@U?$_Vec_base_types@PAVlight@@V?$xalloc@PAVlight@@@@@std@@@std@@QAE@ABV?$xalloc@PAVlight@@@@@Z 10014980 f i r2.obj
 0001:000139a0       ?_Getal@?$_Vector_alloc@$0A@U?$_Vec_base_types@PAVlight@@V?$xalloc@PAVlight@@@@@std@@@std@@QBE?AU?$_Wrap_alloc@V?$xalloc@PAVlight@@@@@2@XZ 100149a0 f i r2.obj
 0001:000139b0       ?deallocate@?$_Wrap_alloc@V?$xalloc@PAVlight@@@@@std@@QAEXPAPAVlight@@I@Z 100149b0 f i r2.obj
 0001:000139d0       ?_Destroy@?$vector@PAVIRender_Portal@@V?$xalloc@PAVIRender_Portal@@@@@std@@IAEXPAPAVIRender_Portal@@0@Z 100149d0 f i r2.obj
 0001:000139e0       ??0?$xalloc@PAVIRender_Portal@@@@QAE@XZ 100149e0 f i r2.obj
 0001:000139f0       ??0?$_Vector_alloc@$0A@U?$_Vec_base_types@PAVIRender_Portal@@V?$xalloc@PAVIRender_Portal@@@@@std@@@std@@QAE@ABV?$xalloc@PAVIRender_Portal@@@@@Z 100149f0 f i r2.obj
 0001:00013a10       ?_Getal@?$_Vector_alloc@$0A@U?$_Vec_base_types@PAVIRender_Portal@@V?$xalloc@PAVIRender_Portal@@@@@std@@@std@@QBE?AU?$_Wrap_alloc@V?$xalloc@PAVIRender_Portal@@@@@2@XZ 10014a10 f i r2.obj
 0001:00013a20       ?deallocate@?$_Wrap_alloc@V?$xalloc@PAVIRender_Portal@@@@@std@@QAEXPAPAVIRender_Portal@@I@Z 10014a20 f i r2.obj
 0001:00013a40       ?_Destroy@?$vector@UFSlideWindowItem@@V?$xalloc@UFSlideWindowItem@@@@@std@@IAEXPAUFSlideWindowItem@@0@Z 10014a40 f i r2.obj
 0001:00013a50       ??0?$xalloc@UFSlideWindowItem@@@@QAE@XZ 10014a50 f i r2.obj
 0001:00013a60       ??0?$_Vector_alloc@$0A@U?$_Vec_base_types@UFSlideWindowItem@@V?$xalloc@UFSlideWindowItem@@@@@std@@@std@@QAE@ABV?$xalloc@UFSlideWindowItem@@@@@Z 10014a60 f i r2.obj
 0001:00013a80       ?_Getal@?$_Vector_alloc@$0A@U?$_Vec_base_types@UFSlideWindowItem@@V?$xalloc@UFSlideWindowItem@@@@@std@@@std@@QBE?AU?$_Wrap_alloc@V?$xalloc@UFSlideWindowItem@@@@@2@XZ 10014a80 f i r2.obj
 0001:00013a90       ?deallocate@?$_Wrap_alloc@V?$xalloc@UFSlideWindowItem@@@@@std@@QAEXPAUFSlideWindowItem@@I@Z 10014a90 f i r2.obj
 0001:00013ab0       ??0?$_Vector_alloc@$0A@U?$_Vec_base_types@V?$resptr_core@UShader@@Uresptrcode_shader@@@@V?$xalloc@V?$resptr_core@UShader@@Uresptrcode_shader@@@@@@@std@@@std@@QAE@ABV?$xalloc@V?$resptr_core@UShader@@Uresptrcode_shader@@@@@@@Z 10014ab0 f i r2.obj
 0001:00013ad0       ?_Destroy@?$vector@V?$svector@U_D3DVERTEXELEMENT9@@$0EB@@@V?$xalloc@V?$svector@U_D3DVERTEXELEMENT9@@$0EB@@@@@@std@@IAEXPAV?$svector@U_D3DVERTEXELEMENT9@@$0EB@@@0@Z 10014ad0 f i r2.obj
 0001:00013ae0       ??0?$xalloc@V?$svector@U_D3DVERTEXELEMENT9@@$0EB@@@@@QAE@XZ 10014ae0 f i r2.obj
 0001:00013af0       ??0?$_Vector_alloc@$0A@U?$_Vec_base_types@V?$svector@U_D3DVERTEXELEMENT9@@$0EB@@@V?$xalloc@V?$svector@U_D3DVERTEXELEMENT9@@$0EB@@@@@@std@@@std@@QAE@ABV?$xalloc@V?$svector@U_D3DVERTEXELEMENT9@@$0EB@@@@@@Z 10014af0 f i r2.obj
 0001:00013b10       ?_Getal@?$_Vector_alloc@$0A@U?$_Vec_base_types@V?$svector@U_D3DVERTEXELEMENT9@@$0EB@@@V?$xalloc@V?$svector@U_D3DVERTEXELEMENT9@@$0EB@@@@@@std@@@std@@QBE?AU?$_Wrap_alloc@V?$xalloc@V?$svector@U_D3DVERTEXELEMENT9@@$0EB@@@@@@2@XZ 10014b10 f i r2.obj
 0001:00013b20       ?deallocate@?$_Wrap_alloc@V?$xalloc@V?$svector@U_D3DVERTEXELEMENT9@@$0EB@@@@@@std@@QAEXPAV?$svector@U_D3DVERTEXELEMENT9@@$0EB@@@I@Z 10014b20 f i r2.obj
 0001:00013b40       ?_Destroy@?$vector@PAUIDirect3DVertexBuffer9@@V?$xalloc@PAUIDirect3DVertexBuffer9@@@@@std@@IAEXPAPAUIDirect3DVertexBuffer9@@0@Z 10014b40 f i r2.obj
 0001:00013b50       ??0?$xalloc@PAUIDirect3DVertexBuffer9@@@@QAE@XZ 10014b50 f i r2.obj
 0001:00013b60       ??0?$_Vector_alloc@$0A@U?$_Vec_base_types@PAUIDirect3DVertexBuffer9@@V?$xalloc@PAUIDirect3DVertexBuffer9@@@@@std@@@std@@QAE@ABV?$xalloc@PAUIDirect3DVertexBuffer9@@@@@Z 10014b60 f i r2.obj
 0001:00013b80       ?_Getal@?$_Vector_alloc@$0A@U?$_Vec_base_types@PAUIDirect3DVertexBuffer9@@V?$xalloc@PAUIDirect3DVertexBuffer9@@@@@std@@@std@@QBE?AU?$_Wrap_alloc@V?$xalloc@PAUIDirect3DVertexBuffer9@@@@@2@XZ 10014b80 f i r2.obj
 0001:00013b90       ?deallocate@?$_Wrap_alloc@V?$xalloc@PAUIDirect3DVertexBuffer9@@@@@std@@QAEXPAPAUIDirect3DVertexBuffer9@@I@Z 10014b90 f i r2.obj
 0001:00013bb0       ?_Destroy@?$vector@PAUIDirect3DIndexBuffer9@@V?$xalloc@PAUIDirect3DIndexBuffer9@@@@@std@@IAEXPAPAUIDirect3DIndexBuffer9@@0@Z 10014bb0 f i r2.obj
 0001:00013bc0       ??0?$xalloc@PAUIDirect3DIndexBuffer9@@@@QAE@XZ 10014bc0 f i r2.obj
 0001:00013bd0       ??0?$_Vector_alloc@$0A@U?$_Vec_base_types@PAUIDirect3DIndexBuffer9@@V?$xalloc@PAUIDirect3DIndexBuffer9@@@@@std@@@std@@QAE@ABV?$xalloc@PAUIDirect3DIndexBuffer9@@@@@Z 10014bd0 f i r2.obj
 0001:00013bf0       ?_Getal@?$_Vector_alloc@$0A@U?$_Vec_base_types@PAUIDirect3DIndexBuffer9@@V?$xalloc@PAUIDirect3DIndexBuffer9@@@@@std@@@std@@QBE?AU?$_Wrap_alloc@V?$xalloc@PAUIDirect3DIndexBuffer9@@@@@2@XZ 10014bf0 f i r2.obj
 0001:00013c00       ?deallocate@?$_Wrap_alloc@V?$xalloc@PAUIDirect3DIndexBuffer9@@@@@std@@QAEXPAPAUIDirect3DIndexBuffer9@@I@Z 10014c00 f i r2.obj
 0001:00013c20       ?_Destroy@?$vector@Ucascade@sun@@V?$xalloc@Ucascade@sun@@@@@std@@IAEXPAUcascade@sun@@0@Z 10014c20 f i r2.obj
 0001:00013c40       ??0?$xalloc@Ucascade@sun@@@@QAE@XZ 10014c40 f i r2.obj
 0001:00013c50       ??0?$_Vector_alloc@$0A@U?$_Vec_base_types@Ucascade@sun@@V?$xalloc@Ucascade@sun@@@@@std@@@std@@QAE@ABV?$xalloc@Ucascade@sun@@@@@Z 10014c50 f i r2.obj
 0001:00013c70       ?_Getal@?$_Vector_alloc@$0A@U?$_Vec_base_types@Ucascade@sun@@V?$xalloc@Ucascade@sun@@@@@std@@@std@@QBE?AU?$_Wrap_alloc@V?$xalloc@Ucascade@sun@@@@@2@XZ 10014c70 f i r2.obj
 0001:00013c80       ?deallocate@?$_Wrap_alloc@V?$xalloc@Ucascade@sun@@@@@std@@QAEXPAUcascade@sun@@I@Z 10014c80 f i r2.obj
 0001:00013ca0       ??0?$_Vector_iterator@V?$_Vector_val@U?$_Simple_types@PAVIRender_Sector@@@std@@@std@@@std@@QAE@PAPAVIRender_Sector@@PBU_Container_base0@1@@Z 10014ca0 f i r2.obj
 0001:00013cb0       ??Y?$_Vector_iterator@V?$_Vector_val@U?$_Simple_types@PAVIRender_Sector@@@std@@@std@@@std@@QAEAAV01@H@Z 10014cb0 f i r2.obj
 0001:00013cc0       ??D?$_Vector_const_iterator@V?$_Vector_val@U?$_Simple_types@PAVIRender_Sector@@@std@@@std@@@std@@QBEABQAVIRender_Sector@@XZ 10014cc0 f i r2.obj
 0001:00013cd0       ??0?$_Vector_iterator@V?$_Vector_val@U?$_Simple_types@PAVlight@@@std@@@std@@@std@@QAE@PAPAVlight@@PBU_Container_base0@1@@Z 10014cd0 f i r2.obj
 0001:00013ce0       ??Y?$_Vector_iterator@V?$_Vector_val@U?$_Simple_types@PAVlight@@@std@@@std@@@std@@QAEAAV01@H@Z 10014ce0 f i r2.obj
 0001:00013cf0       ??D?$_Vector_const_iterator@V?$_Vector_val@U?$_Simple_types@PAVlight@@@std@@@std@@@std@@QBEABQAVlight@@XZ 10014cf0 f i r2.obj
 0001:00013d00       ??0?$_Vector_iterator@V?$_Vector_val@U?$_Simple_types@PAVIRender_Portal@@@std@@@std@@@std@@QAE@PAPAVIRender_Portal@@PBU_Container_base0@1@@Z 10014d00 f i r2.obj
 0001:00013d10       ??Y?$_Vector_iterator@V?$_Vector_val@U?$_Simple_types@PAVIRender_Portal@@@std@@@std@@@std@@QAEAAV01@H@Z 10014d10 f i r2.obj
 0001:00013d20       ??D?$_Vector_const_iterator@V?$_Vector_val@U?$_Simple_types@PAVIRender_Portal@@@std@@@std@@@std@@QBEABQAVIRender_Portal@@XZ 10014d20 f i r2.obj
 0001:00013d30       ??0?$_Vector_iterator@V?$_Vector_val@U?$_Simple_types@UFSlideWindowItem@@@std@@@std@@@std@@QAE@PAUFSlideWindowItem@@PBU_Container_base0@1@@Z 10014d30 f i r2.obj
 0001:00013d40       ??Y?$_Vector_iterator@V?$_Vector_val@U?$_Simple_types@UFSlideWindowItem@@@std@@@std@@@std@@QAEAAV01@H@Z 10014d40 f i r2.obj
 0001:00013d60       ??D?$_Vector_const_iterator@V?$_Vector_val@U?$_Simple_types@UFSlideWindowItem@@@std@@@std@@@std@@QBEABUFSlideWindowItem@@XZ 10014d60 f i r2.obj
 0001:00013d70       ??0?$_Vector_iterator@V?$_Vector_val@U?$_Simple_types@V?$svector@U_D3DVERTEXELEMENT9@@$0EB@@@@std@@@std@@@std@@QAE@PAV?$svector@U_D3DVERTEXELEMENT9@@$0EB@@@PBU_Container_base0@1@@Z 10014d70 f i r2.obj
 0001:00013d80       ??Y?$_Vector_iterator@V?$_Vector_val@U?$_Simple_types@V?$svector@U_D3DVERTEXELEMENT9@@$0EB@@@@std@@@std@@@std@@QAEAAV01@H@Z 10014d80 f i r2.obj
 0001:00013d90       ??D?$_Vector_const_iterator@V?$_Vector_val@U?$_Simple_types@V?$svector@U_D3DVERTEXELEMENT9@@$0EB@@@@std@@@std@@@std@@QBEABV?$svector@U_D3DVERTEXELEMENT9@@$0EB@@@XZ 10014d90 f i r2.obj
 0001:00013da0       ??0?$_Vector_iterator@V?$_Vector_val@U?$_Simple_types@PAUIDirect3DVertexBuffer9@@@std@@@std@@@std@@QAE@PAPAUIDirect3DVertexBuffer9@@PBU_Container_base0@1@@Z 10014da0 f i r2.obj
 0001:00013db0       ??Y?$_Vector_iterator@V?$_Vector_val@U?$_Simple_types@PAUIDirect3DVertexBuffer9@@@std@@@std@@@std@@QAEAAV01@H@Z 10014db0 f i r2.obj
 0001:00013dc0       ??D?$_Vector_const_iterator@V?$_Vector_val@U?$_Simple_types@PAUIDirect3DVertexBuffer9@@@std@@@std@@@std@@QBEABQAUIDirect3DVertexBuffer9@@XZ 10014dc0 f i r2.obj
 0001:00013dd0       ??0?$_Vector_iterator@V?$_Vector_val@U?$_Simple_types@PAUIDirect3DIndexBuffer9@@@std@@@std@@@std@@QAE@PAPAUIDirect3DIndexBuffer9@@PBU_Container_base0@1@@Z 10014dd0 f i r2.obj
 0001:00013de0       ??Y?$_Vector_iterator@V?$_Vector_val@U?$_Simple_types@PAUIDirect3DIndexBuffer9@@@std@@@std@@@std@@QAEAAV01@H@Z 10014de0 f i r2.obj
 0001:00013df0       ??D?$_Vector_const_iterator@V?$_Vector_val@U?$_Simple_types@PAUIDirect3DIndexBuffer9@@@std@@@std@@@std@@QBEABQAUIDirect3DIndexBuffer9@@XZ 10014df0 f i r2.obj
 0001:00013e00       ??D?$_Vector_iterator@V?$_Vector_val@U?$_Simple_types@U_REG_INFO@@@std@@@std@@@std@@QBEAAU_REG_INFO@@XZ 10014e00 f i r2.obj
 0001:00013e10       ??H?$_Vector_iterator@V?$_Vector_val@U?$_Simple_types@U_REG_INFO@@@std@@@std@@@std@@QBE?AV01@H@Z 10014e10 f i r2.obj
 0001:00013e30       ?clear_and_free@?$xr_vector@U_REG_INFO@@V?$xalloc@U_REG_INFO@@@@@@QAEXXZ 10014e30 f i r2.obj
 0001:00013e40       ?_Unused_capacity@?$vector@U_REG_INFO@@V?$xalloc@U_REG_INFO@@@@@std@@QBEIXZ 10014e40 f i r2.obj
 0001:00013e60       ?max_size@?$vector@U_REG_INFO@@V?$xalloc@U_REG_INFO@@@@@std@@QBEIXZ 10014e60 f i r2.obj
 0001:00013e70       ?_Grow_to@?$vector@U_REG_INFO@@V?$xalloc@U_REG_INFO@@@@@std@@IBEII@Z 10014e70 f i r2.obj
 0001:00013ec0       ?_Reallocate@?$vector@U_REG_INFO@@V?$xalloc@U_REG_INFO@@@@@std@@IAEXI@Z 10014ec0 f i r2.obj
 0001:00013f90       ?_Xlen@?$vector@U_REG_INFO@@V?$xalloc@U_REG_INFO@@@@@std@@IBEXXZ 10014f90 f i r2.obj
 0001:00013fa0       ?deallocate@?$xalloc@PAVIRender_Sector@@@@QBEXPAPAVIRender_Sector@@I@Z 10014fa0 f i r2.obj
 0001:00013fc0       ??0?$_Wrap_alloc@V?$xalloc@PAVIRender_Sector@@@@@std@@QAE@XZ 10014fc0 f i r2.obj
 0001:00013fd0       ??0?$_Vector_val@U?$_Simple_types@PAVIRender_Sector@@@std@@@std@@QAE@XZ 10014fd0 f i r2.obj
 0001:00013ff0       ?deallocate@?$doug_lea_alloc@V?$_box3@M@@@@QBEXPAV?$_box3@M@@I@Z 10014ff0 f i r2.obj
 0001:00014000       ??0?$_Vector_val@U?$_Simple_types@V?$_box3@M@@@std@@@std@@QAE@XZ 10015000 f i r2.obj
 0001:00014020       ??0?$_Vector_val@U?$_Simple_types@USMAP_Rect@@@std@@@std@@QAE@XZ 10015020 f i r2.obj
 0001:00014040       ??0?$_Vector_val@U?$_Simple_types@U?$_vector2@H@@@std@@@std@@QAE@XZ 10015040 f i r2.obj
 0001:00014060       ?deallocate@?$xalloc@PAVlight@@@@QBEXPAPAVlight@@I@Z 10015060 f i r2.obj
 0001:00014080       ??0?$_Wrap_alloc@V?$xalloc@PAVlight@@@@@std@@QAE@XZ 10015080 f i r2.obj
 0001:00014090       ??0?$_Vector_val@U?$_Simple_types@PAVlight@@@std@@@std@@QAE@XZ 10015090 f i r2.obj
 0001:000140b0       ?deallocate@?$xalloc@PAVIRender_Portal@@@@QBEXPAPAVIRender_Portal@@I@Z 100150b0 f i r2.obj
 0001:000140d0       ??0?$_Wrap_alloc@V?$xalloc@PAVIRender_Portal@@@@@std@@QAE@XZ 100150d0 f i r2.obj
 0001:000140e0       ??0?$_Vector_val@U?$_Simple_types@PAVIRender_Portal@@@std@@@std@@QAE@XZ 100150e0 f i r2.obj
 0001:00014100       ?deallocate@?$xalloc@UFSlideWindowItem@@@@QBEXPAUFSlideWindowItem@@I@Z 10015100 f i r2.obj
 0001:00014120       ??0?$_Wrap_alloc@V?$xalloc@UFSlideWindowItem@@@@@std@@QAE@XZ 10015120 f i r2.obj
 0001:00014130       ??0?$_Vector_val@U?$_Simple_types@UFSlideWindowItem@@@std@@@std@@QAE@XZ 10015130 f i r2.obj
 0001:00014150       ??0?$_Vector_val@U?$_Simple_types@V?$resptr_core@UShader@@Uresptrcode_shader@@@@@std@@@std@@QAE@XZ 10015150 f i r2.obj
 0001:00014170       ?deallocate@?$xalloc@V?$svector@U_D3DVERTEXELEMENT9@@$0EB@@@@@QBEXPAV?$svector@U_D3DVERTEXELEMENT9@@$0EB@@@I@Z 10015170 f i r2.obj
 0001:00014190       ??0?$_Wrap_alloc@V?$xalloc@V?$svector@U_D3DVERTEXELEMENT9@@$0EB@@@@@@std@@QAE@XZ 10015190 f i r2.obj
 0001:000141a0       ??0?$_Vector_val@U?$_Simple_types@V?$svector@U_D3DVERTEXELEMENT9@@$0EB@@@@std@@@std@@QAE@XZ 100151a0 f i r2.obj
 0001:000141c0       ?deallocate@?$xalloc@PAUIDirect3DVertexBuffer9@@@@QBEXPAPAUIDirect3DVertexBuffer9@@I@Z 100151c0 f i r2.obj
 0001:000141e0       ??0?$_Wrap_alloc@V?$xalloc@PAUIDirect3DVertexBuffer9@@@@@std@@QAE@XZ 100151e0 f i r2.obj
 0001:000141f0       ??0?$_Vector_val@U?$_Simple_types@PAUIDirect3DVertexBuffer9@@@std@@@std@@QAE@XZ 100151f0 f i r2.obj
 0001:00014210       ?deallocate@?$xalloc@PAUIDirect3DIndexBuffer9@@@@QBEXPAPAUIDirect3DIndexBuffer9@@I@Z 10015210 f i r2.obj
 0001:00014230       ??0?$_Wrap_alloc@V?$xalloc@PAUIDirect3DIndexBuffer9@@@@@std@@QAE@XZ 10015230 f i r2.obj
 0001:00014240       ??0?$_Vector_val@U?$_Simple_types@PAUIDirect3DIndexBuffer9@@@std@@@std@@QAE@XZ 10015240 f i r2.obj
 0001:00014260       ?deallocate@?$xalloc@Ucascade@sun@@@@QBEXPAUcascade@sun@@I@Z 10015260 f i r2.obj
 0001:00014280       ??0?$_Wrap_alloc@V?$xalloc@Ucascade@sun@@@@@std@@QAE@XZ 10015280 f i r2.obj
 0001:00014290       ??0?$_Vector_val@U?$_Simple_types@Ucascade@sun@@@std@@@std@@QAE@XZ 10015290 f i r2.obj
 0001:000142b0       ??0?$_Vector_const_iterator@V?$_Vector_val@U?$_Simple_types@PAVIRender_Sector@@@std@@@std@@@std@@QAE@PAPAVIRender_Sector@@PBU_Container_base0@1@@Z 100152b0 f i r2.obj
 0001:000142c0       ??Y?$_Vector_const_iterator@V?$_Vector_val@U?$_Simple_types@PAVIRender_Sector@@@std@@@std@@@std@@QAEAAV01@H@Z 100152c0 f i r2.obj
 0001:000142d0       ??0?$_Vector_const_iterator@V?$_Vector_val@U?$_Simple_types@PAVlight@@@std@@@std@@@std@@QAE@PAPAVlight@@PBU_Container_base0@1@@Z 100152d0 f i r2.obj
 0001:000142e0       ??Y?$_Vector_const_iterator@V?$_Vector_val@U?$_Simple_types@PAVlight@@@std@@@std@@@std@@QAEAAV01@H@Z 100152e0 f i r2.obj
 0001:000142f0       ??0?$_Vector_const_iterator@V?$_Vector_val@U?$_Simple_types@PAVIRender_Portal@@@std@@@std@@@std@@QAE@PAPAVIRender_Portal@@PBU_Container_base0@1@@Z 100152f0 f i r2.obj
 0001:00014300       ??Y?$_Vector_const_iterator@V?$_Vector_val@U?$_Simple_types@PAVIRender_Portal@@@std@@@std@@@std@@QAEAAV01@H@Z 10015300 f i r2.obj
 0001:00014310       ??0?$_Vector_const_iterator@V?$_Vector_val@U?$_Simple_types@UFSlideWindowItem@@@std@@@std@@@std@@QAE@PAUFSlideWindowItem@@PBU_Container_base0@1@@Z 10015310 f i r2.obj
 0001:00014320       ??Y?$_Vector_const_iterator@V?$_Vector_val@U?$_Simple_types@UFSlideWindowItem@@@std@@@std@@@std@@QAEAAV01@H@Z 10015320 f i r2.obj
 0001:00014340       ??0?$_Vector_const_iterator@V?$_Vector_val@U?$_Simple_types@V?$svector@U_D3DVERTEXELEMENT9@@$0EB@@@@std@@@std@@@std@@QAE@PAV?$svector@U_D3DVERTEXELEMENT9@@$0EB@@@PBU_Container_base0@1@@Z 10015340 f i r2.obj
 0001:00014350       ??Y?$_Vector_const_iterator@V?$_Vector_val@U?$_Simple_types@V?$svector@U_D3DVERTEXELEMENT9@@$0EB@@@@std@@@std@@@std@@QAEAAV01@H@Z 10015350 f i r2.obj
 0001:00014360       ??0?$_Vector_const_iterator@V?$_Vector_val@U?$_Simple_types@PAUIDirect3DVertexBuffer9@@@std@@@std@@@std@@QAE@PAPAUIDirect3DVertexBuffer9@@PBU_Container_base0@1@@Z 10015360 f i r2.obj
 0001:00014370       ??Y?$_Vector_const_iterator@V?$_Vector_val@U?$_Simple_types@PAUIDirect3DVertexBuffer9@@@std@@@std@@@std@@QAEAAV01@H@Z 10015370 f i r2.obj
 0001:00014380       ??0?$_Vector_const_iterator@V?$_Vector_val@U?$_Simple_types@PAUIDirect3DIndexBuffer9@@@std@@@std@@@std@@QAE@PAPAUIDirect3DIndexBuffer9@@PBU_Container_base0@1@@Z 10015380 f i r2.obj
 0001:00014390       ??Y?$_Vector_const_iterator@V?$_Vector_val@U?$_Simple_types@PAUIDirect3DIndexBuffer9@@@std@@@std@@@std@@QAEAAV01@H@Z 10015390 f i r2.obj
 0001:000143a0       ??0?$_Vector_iterator@V?$_Vector_val@U?$_Simple_types@U_REG_INFO@@@std@@@std@@@std@@QAE@PAU_REG_INFO@@PBU_Container_base0@1@@Z 100153a0 f i r2.obj
 0001:000143b0       ??Y?$_Vector_iterator@V?$_Vector_val@U?$_Simple_types@U_REG_INFO@@@std@@@std@@@std@@QAEAAV01@H@Z 100153b0 f i r2.obj
 0001:000143d0       ??D?$_Vector_const_iterator@V?$_Vector_val@U?$_Simple_types@U_REG_INFO@@@std@@@std@@@std@@QBEABU_REG_INFO@@XZ 100153d0 f i r2.obj
 0001:000143e0       ?capacity@?$vector@U_REG_INFO@@V?$xalloc@U_REG_INFO@@@@@std@@QBEIXZ 100153e0 f i r2.obj
 0001:00014400       ?clear@?$vector@U_REG_INFO@@V?$xalloc@U_REG_INFO@@@@@std@@QAEXXZ 10015400 f i r2.obj
 0001:00014410       ?allocate@?$_Wrap_alloc@V?$xalloc@U_REG_INFO@@@@@std@@QAEPAU_REG_INFO@@I@Z 10015410 f i r2.obj
 0001:00014430       ?max_size@?$_Wrap_alloc@V?$xalloc@U_REG_INFO@@@@@std@@QBEIXZ 10015430 f i r2.obj
 0001:00014440       ??0?$_Vector_const_iterator@V?$_Vector_val@U?$_Simple_types@U_REG_INFO@@@std@@@std@@@std@@QAE@PAU_REG_INFO@@PBU_Container_base0@1@@Z 10015440 f i r2.obj
 0001:00014450       ??Y?$_Vector_const_iterator@V?$_Vector_val@U?$_Simple_types@U_REG_INFO@@@std@@@std@@@std@@QAEAAV01@H@Z 10015450 f i r2.obj
 0001:00014470       ?allocate@?$xalloc@U_REG_INFO@@@@QBEPAU_REG_INFO@@IPBX@Z 10015470 f i r2.obj
 0001:00014490       ?max_size@?$allocator_traits@V?$xalloc@U_REG_INFO@@@@@std@@SAIABV?$xalloc@U_REG_INFO@@@@@Z 10015490 f i r2.obj
 0001:000144a0       ??$xr_new@VCRenderTarget@@@@YAPAVCRenderTarget@@XZ 100154a0 f i r2.obj
 0001:000144c0       ??$xr_new@VCModelPool@@@@YAPAVCModelPool@@XZ 100154c0 f i r2.obj
 0001:000144e0       ??$xr_delete@VCModelPool@@@@YAXAAPAVCModelPool@@@Z 100154e0 f i r2.obj
 0001:00014520       ??$xr_delete@VCRenderTarget@@@@YAXAAPAVCRenderTarget@@@Z 10015520 f i r2.obj
 0001:00014560       ??$xr_delete@VCDetailManager@@@@YAXAAPAVCDetailManager@@@Z 10015560 f i r2.obj
 0001:000145a0       ??$xr_new@VCDetailManager@@@@YAPAVCDetailManager@@XZ 100155a0 f i r2.obj
 0001:000145c0       ??$?0VCDetailManager@@V0@@?$FastDelegate0@X@fastdelegate@@QAE@PAVCDetailManager@@P82@AGXXZ@Z 100155c0 f i r2.obj
 0001:000145e0       ??$?0VCHOM@@V0@@?$FastDelegate0@X@fastdelegate@@QAE@PAVCHOM@@P82@AGXXZ@Z 100155e0 f i r2.obj
 0001:00014600       ??$xr_new@VCROS_impl@@@@YAPAVCROS_impl@@XZ 10015600 f i r2.obj
 0001:00014620       ??$xr_delete@VIRender_ObjectSpecific@@@@YAXAAPAVIRender_ObjectSpecific@@@Z 10015620 f i r2.obj
 0001:00014660       ??$xr_new@VCDetail@@@@YAPAVCDetail@@XZ 10015660 f i r2.obj
 0001:00014690       ??$xr_delete@VCDetail@@@@YAXAAPAVCDetail@@@Z 10015690 f i r2.obj
 0001:000146d0       ??$xr_new@VCGlow@@@@YAPAVCGlow@@XZ 100156d0 f i r2.obj
 0001:00014700       ??0?$intrusive_ptr@VCSkeletonWallmark@@Uintrusive_base@@@@QAE@ABV0@@Z 10015700 f i r2.obj
 0001:00014720       ??1?$intrusive_ptr@VCSkeletonWallmark@@Uintrusive_base@@@@QAE@XZ 10015720 f i r2.obj
 0001:00014740       ??$xr_alloc@E@@YAPAEI@Z    10015740 f i r2.obj
 0001:00014750       ??$xr_free@$$CBX@@YAXAAPBX@Z 10015750 f i r2.obj
 0001:00014770       ??$sprintf_s@$0CA@@@YAHAAY0CA@DPBDZZ 10015770 f i r2.obj
 0001:00014790       ??$strcat_s@$0BAE@@@YAHAAY0BAE@DPBD@Z 10015790 f i r2.obj
 0001:000147b0       ??$strcat_s@$0CAI@@@YAHAAY0CAI@DPBD@Z 100157b0 f i r2.obj
 0001:000147d0       ??$strncpy_s@$02@@YAHAAY02DPBDI@Z 100157d0 f i r2.obj
 0001:000147e0       ??0?$crc_optimal@$0CA@$0EMBBNLH@$0PPPPPPPP@$0PPPPPPPP@$00$00@boost@@QAE@I@Z 100157e0 f i r2.obj
 0001:00014820       ?process_block@?$crc_optimal@$0CA@$0EMBBNLH@$0PPPPPPPP@$0PPPPPPPP@$00$00@boost@@QAEXPBX0@Z 10015820 f i r2.obj
 0001:00014870       ?checksum@?$crc_optimal@$0CA@$0EMBBNLH@$0PPPPPPPP@$0PPPPPPPP@$00$00@boost@@QBEIXZ 10015870 f i r2.obj
 0001:00014880       ??$emplace@V?$FastDelegate0@X@fastdelegate@@@?$vector@V?$FastDelegate0@X@fastdelegate@@V?$xalloc@V?$FastDelegate0@X@fastdelegate@@@@@std@@QAE?AV?$_Vector_iterator@V?$_Vector_val@U?$_Simple_types@V?$FastDelegate0@X@fastdelegate@@@std@@@std@@@1@V?$_Vector_const_iterator@V?$_Vector_val@U?$_Simple_types@V?$FastDelegate0@X@fastdelegate@@@std@@@std@@@1@$$QAV?$FastDelegate0@X@fastdelegate@@@Z 10015880 f i r2.obj
 0001:000148f0       ??$addressof@$$CBU_REG_INFO@@@std@@YAPBU_REG_INFO@@ABU1@@Z 100158f0 f i r2.obj
 0001:00014900       ??$construct@U_REG_INFO@@AAU1@@?$_Wrap_alloc@V?$xalloc@U_REG_INFO@@@@@std@@QAEXPAU_REG_INFO@@AAU2@@Z 10015900 f i r2.obj
 0001:00014920       ??$construct@U_REG_INFO@@ABU1@@?$_Wrap_alloc@V?$xalloc@U_REG_INFO@@@@@std@@QAEXPAU_REG_INFO@@ABU2@@Z 10015920 f i r2.obj
 0001:00014940       ??$_Destroy_range@U?$_Wrap_alloc@V?$xalloc@PAVIRender_Sector@@@@@std@@@std@@YAXPAPAVIRender_Sector@@0AAU?$_Wrap_alloc@V?$xalloc@PAVIRender_Sector@@@@@0@@Z 10015940 f i r2.obj
 0001:00014950       ??$_Destroy_range@U?$_Wrap_alloc@V?$xalloc@PAVlight@@@@@std@@@std@@YAXPAPAVlight@@0AAU?$_Wrap_alloc@V?$xalloc@PAVlight@@@@@0@@Z 10015950 f i r2.obj
 0001:00014960       ??$_Destroy_range@U?$_Wrap_alloc@V?$xalloc@PAVIRender_Portal@@@@@std@@@std@@YAXPAPAVIRender_Portal@@0AAU?$_Wrap_alloc@V?$xalloc@PAVIRender_Portal@@@@@0@@Z 10015960 f i r2.obj
 0001:00014970       ??$_Destroy_range@U?$_Wrap_alloc@V?$xalloc@UFSlideWindowItem@@@@@std@@@std@@YAXPAUFSlideWindowItem@@0AAU?$_Wrap_alloc@V?$xalloc@UFSlideWindowItem@@@@@0@@Z 10015970 f i r2.obj
 0001:00014980       ??$_Destroy_range@U?$_Wrap_alloc@V?$xalloc@V?$svector@U_D3DVERTEXELEMENT9@@$0EB@@@@@@std@@@std@@YAXPAV?$svector@U_D3DVERTEXELEMENT9@@$0EB@@@0AAU?$_Wrap_alloc@V?$xalloc@V?$svector@U_D3DVERTEXELEMENT9@@$0EB@@@@@@0@@Z 10015980 f i r2.obj
 0001:00014990       ??$_Destroy_range@U?$_Wrap_alloc@V?$xalloc@PAUIDirect3DVertexBuffer9@@@@@std@@@std@@YAXPAPAUIDirect3DVertexBuffer9@@0AAU?$_Wrap_alloc@V?$xalloc@PAUIDirect3DVertexBuffer9@@@@@0@@Z 10015990 f i r2.obj
 0001:000149a0       ??$_Destroy_range@U?$_Wrap_alloc@V?$xalloc@PAUIDirect3DIndexBuffer9@@@@@std@@@std@@YAXPAPAUIDirect3DIndexBuffer9@@0AAU?$_Wrap_alloc@V?$xalloc@PAUIDirect3DIndexBuffer9@@@@@0@@Z 100159a0 f i r2.obj
 0001:000149b0       ??$_Destroy_range@U?$_Wrap_alloc@V?$xalloc@Ucascade@sun@@@@@std@@@std@@YAXPAUcascade@sun@@0AAU?$_Wrap_alloc@V?$xalloc@Ucascade@sun@@@@@0@@Z 100159b0 f i r2.obj
 0001:000149c0       ??$_Umove@PAU_REG_INFO@@@?$vector@U_REG_INFO@@V?$xalloc@U_REG_INFO@@@@@std@@IAEPAU_REG_INFO@@PAU2@00@Z 100159c0 f i r2.obj
 0001:000149e0       ??$xr_free@PAVIRender_Sector@@@@YAXAAPAPAVIRender_Sector@@@Z 100159e0 f i r2.obj
 0001:00014a00       ??$xr_free@PAVlight@@@@YAXAAPAPAVlight@@@Z 10015a00 f i r2.obj
 0001:00014a20       ??$xr_free@PAVIRender_Portal@@@@YAXAAPAPAVIRender_Portal@@@Z 10015a20 f i r2.obj
 0001:00014a40       ??$xr_free@UFSlideWindowItem@@@@YAXAAPAUFSlideWindowItem@@@Z 10015a40 f i r2.obj
 0001:00014a60       ??$xr_free@V?$svector@U_D3DVERTEXELEMENT9@@$0EB@@@@@YAXAAPAV?$svector@U_D3DVERTEXELEMENT9@@$0EB@@@@Z 10015a60 f i r2.obj
 0001:00014a80       ??$xr_free@PAUIDirect3DVertexBuffer9@@@@YAXAAPAPAUIDirect3DVertexBuffer9@@@Z 10015a80 f i r2.obj
 0001:00014aa0       ??$xr_free@PAUIDirect3DIndexBuffer9@@@@YAXAAPAPAUIDirect3DIndexBuffer9@@@Z 10015aa0 f i r2.obj
 0001:00014ac0       ??$xr_free@Ucascade@sun@@@@YAXAAPAUcascade@sun@@@Z 10015ac0 f i r2.obj
 0001:00014ae0       ??$xr_alloc@U_REG_INFO@@@@YAPAU_REG_INFO@@I@Z 10015ae0 f i r2.obj
 0001:00014b00       ??$_Fn@V?$xalloc@U_REG_INFO@@@@@_Alloc_max_size@std@@SAIHABV?$xalloc@U_REG_INFO@@@@@Z 10015b00 f i r2.obj
 0001:00014b10       ??0CDetail@@QAE@XZ         10015b10 f i r2.obj
 0001:00014b30       ??_GCDetail@@UAEPAXI@Z     10015b30 f i r2.obj
 0001:00014b30       ??_ECDetail@@UAEPAXI@Z     10015b30 f i * CIL library *:* CIL module *
 0001:00014b60       ?max_size@?$xalloc@U_REG_INFO@@@@QBEIXZ 10015b60 f i r2.obj
 0001:00014b70       ??H?$_Vector_iterator@V?$_Vector_val@U?$_Simple_types@V?$FastDelegate0@X@fastdelegate@@@std@@@std@@@std@@QBE?AV01@H@Z 10015b70 f i r2.obj
 0001:00014b90       ??G?$_Vector_iterator@V?$_Vector_val@U?$_Simple_types@V?$FastDelegate0@X@fastdelegate@@@std@@@std@@@std@@QBE?AV01@H@Z 10015b90 f i r2.obj
 0001:00014ba0       ??R?$xr_special_free@$00VCModelPool@@@@QAEXAAPAVCModelPool@@@Z 10015ba0 f i r2.obj
 0001:00014bd0       ??R?$xr_special_free@$00VCRenderTarget@@@@QAEXAAPAVCRenderTarget@@@Z 10015bd0 f i r2.obj
 0001:00014c00       ??R?$xr_special_free@$00VCDetailManager@@@@QAEXAAPAVCDetailManager@@@Z 10015c00 f i r2.obj
 0001:00014c30       ??R?$xr_special_free@$00VIRender_ObjectSpecific@@@@QAEXAAPAVIRender_ObjectSpecific@@@Z 10015c30 f i r2.obj
 0001:00014c60       ??R?$xr_special_free@$00VCDetail@@@@QAEXAAPAVCDetail@@@Z 10015c60 f i r2.obj
 0001:00014c90       ?reflect@?$crc_helper@$0CA@$00@detail@boost@@SAII@Z 10015c90 f i r2.obj
 0001:00014cc0       ?index@?$crc_helper@$0CA@$00@detail@boost@@SAEIE@Z 10015cc0 f i r2.obj
 0001:00014cd0       ?shift@?$crc_helper@$0CA@$00@detail@boost@@SAII@Z 10015cd0 f i r2.obj
 0001:00014ce0       ?reflect@?$crc_helper@$0CA@$0A@@detail@boost@@SAII@Z 10015ce0 f i r2.obj
 0001:00014cf0       ??Y?$_Vector_iterator@V?$_Vector_val@U?$_Simple_types@V?$FastDelegate0@X@fastdelegate@@@std@@@std@@@std@@QAEAAV01@H@Z 10015cf0 f i r2.obj
 0001:00014d00       ??Z?$_Vector_iterator@V?$_Vector_val@U?$_Simple_types@V?$FastDelegate0@X@fastdelegate@@@std@@@std@@@std@@QAEAAV01@H@Z 10015d00 f i r2.obj
 0001:00014d10       ??Y?$_Vector_const_iterator@V?$_Vector_val@U?$_Simple_types@V?$FastDelegate0@X@fastdelegate@@@std@@@std@@@std@@QAEAAV01@H@Z 10015d10 f i r2.obj
 0001:00014d20       ??$implicit_cast@PAVCDetailManager@@PAV1@@detail@fastdelegate@@YAPAVCDetailManager@@PAV2@@Z 10015d20 f i r2.obj
 0001:00014d30       ??$bindmemfunc@VCDetailManager@@P81@AGXXZ@?$ClosurePtr@P8GenericClass@detail@fastdelegate@@AGXXZP6AXXZP6AXXZ@detail@fastdelegate@@QAEXPAVCDetailManager@@P83@AGXXZ@Z 10015d30 f i r2.obj
 0001:00014d40       ??$implicit_cast@PAVCHOM@@PAV1@@detail@fastdelegate@@YAPAVCHOM@@PAV2@@Z 10015d40 f i r2.obj
 0001:00014d50       ??$bindmemfunc@VCHOM@@P81@AGXXZ@?$ClosurePtr@P8GenericClass@detail@fastdelegate@@AGXXZP6AXXZP6AXXZ@detail@fastdelegate@@QAEXPAVCHOM@@P83@AGXXZ@Z 10015d50 f i r2.obj
 0001:00014d60       ?dec@?$intrusive_ptr@VCSkeletonWallmark@@Uintrusive_base@@@@IAEXXZ 10015d60 f i r2.obj
 0001:00014d80       ?set@?$intrusive_ptr@VCSkeletonWallmark@@Uintrusive_base@@@@QAEXABV1@@Z 10015d80 f i r2.obj
 0001:00014db0       ?get_final_xor_value@?$crc_optimal@$0CA@$0EMBBNLH@$0PPPPPPPP@$0PPPPPPPP@$00$00@boost@@QBEIXZ 10015db0 f i r2.obj
 0001:00014dc0       ?init_table@?$crc_table_t@$0CA@$0EMBBNLH@$00@detail@boost@@SAXXZ 10015dc0 f i r2.obj
 0001:00014e90       ??$forward@V?$FastDelegate0@X@fastdelegate@@@std@@YA$$QAV?$FastDelegate0@X@fastdelegate@@AAV12@@Z 10015e90 f i r2.obj
 0001:00014ea0       ??$emplace_back@V?$FastDelegate0@X@fastdelegate@@@?$vector@V?$FastDelegate0@X@fastdelegate@@V?$xalloc@V?$FastDelegate0@X@fastdelegate@@@@@std@@QAEX$$QAV?$FastDelegate0@X@fastdelegate@@@Z 10015ea0 f i r2.obj
 0001:00014ee0       ??$rotate@V?$_Vector_iterator@V?$_Vector_val@U?$_Simple_types@V?$FastDelegate0@X@fastdelegate@@@std@@@std@@@std@@@std@@YA?AV?$_Vector_iterator@V?$_Vector_val@U?$_Simple_types@V?$FastDelegate0@X@fastdelegate@@@std@@@std@@@0@V10@00@Z 10015ee0 f i r2.obj
 0001:00014f20       ??$forward@AAU_REG_INFO@@@std@@YAAAU_REG_INFO@@AAU1@@Z 10015f20 f i r2.obj
 0001:00014f30       ??$construct@U_REG_INFO@@AAU1@@?$allocator_traits@V?$xalloc@U_REG_INFO@@@@@std@@SAXAAV?$xalloc@U_REG_INFO@@@@PAU_REG_INFO@@AAU3@@Z 10015f30 f i r2.obj
 0001:00014f50       ??$forward@ABU_REG_INFO@@@std@@YAABU_REG_INFO@@ABU1@@Z 10015f50 f i r2.obj
 0001:00014f60       ??$construct@U_REG_INFO@@ABU1@@?$allocator_traits@V?$xalloc@U_REG_INFO@@@@@std@@SAXAAV?$xalloc@U_REG_INFO@@@@PAU_REG_INFO@@ABU3@@Z 10015f60 f i r2.obj
 0001:00014f80       ??$_Ptr_cat@PAVIRender_Sector@@PAV1@@std@@YA?AU_Scalar_ptr_iterator_tag@0@PAPAVIRender_Sector@@0@Z 10015f80 f i r2.obj
 0001:00014f90       ??$_Destroy_range@U?$_Wrap_alloc@V?$xalloc@PAVIRender_Sector@@@@@std@@@std@@YAXPAPAVIRender_Sector@@0AAU?$_Wrap_alloc@V?$xalloc@PAVIRender_Sector@@@@@0@U_Scalar_ptr_iterator_tag@0@@Z 10015f90 f i r2.obj
 0001:00014fa0       ??$_Ptr_cat@PAVlight@@PAV1@@std@@YA?AU_Scalar_ptr_iterator_tag@0@PAPAVlight@@0@Z 10015fa0 f i r2.obj
 0001:00014fb0       ??$_Destroy_range@U?$_Wrap_alloc@V?$xalloc@PAVlight@@@@@std@@@std@@YAXPAPAVlight@@0AAU?$_Wrap_alloc@V?$xalloc@PAVlight@@@@@0@U_Scalar_ptr_iterator_tag@0@@Z 10015fb0 f i r2.obj
 0001:00014fc0       ??$_Ptr_cat@PAVIRender_Portal@@PAV1@@std@@YA?AU_Scalar_ptr_iterator_tag@0@PAPAVIRender_Portal@@0@Z 10015fc0 f i r2.obj
 0001:00014fd0       ??$_Destroy_range@U?$_Wrap_alloc@V?$xalloc@PAVIRender_Portal@@@@@std@@@std@@YAXPAPAVIRender_Portal@@0AAU?$_Wrap_alloc@V?$xalloc@PAVIRender_Portal@@@@@0@U_Scalar_ptr_iterator_tag@0@@Z 10015fd0 f i r2.obj
 0001:00014fe0       ??$_Ptr_cat@UFSlideWindowItem@@U1@@std@@YA?AU_Nonscalar_ptr_iterator_tag@0@PAUFSlideWindowItem@@0@Z 10015fe0 f i r2.obj
 0001:00014ff0       ??$_Destroy_range@U?$_Wrap_alloc@V?$xalloc@UFSlideWindowItem@@@@@std@@@std@@YAXPAUFSlideWindowItem@@0AAU?$_Wrap_alloc@V?$xalloc@UFSlideWindowItem@@@@@0@U_Nonscalar_ptr_iterator_tag@0@@Z 10015ff0 f i r2.obj
 0001:00015000       ??$_Ptr_cat@V?$svector@U_D3DVERTEXELEMENT9@@$0EB@@@V1@@std@@YA?AU_Nonscalar_ptr_iterator_tag@0@PAV?$svector@U_D3DVERTEXELEMENT9@@$0EB@@@0@Z 10016000 f i r2.obj
 0001:00015010       ??$_Destroy_range@U?$_Wrap_alloc@V?$xalloc@V?$svector@U_D3DVERTEXELEMENT9@@$0EB@@@@@@std@@@std@@YAXPAV?$svector@U_D3DVERTEXELEMENT9@@$0EB@@@0AAU?$_Wrap_alloc@V?$xalloc@V?$svector@U_D3DVERTEXELEMENT9@@$0EB@@@@@@0@U_Nonscalar_ptr_iterator_tag@0@@Z 10016010 f i r2.obj
 0001:00015020       ??$_Ptr_cat@PAUIDirect3DVertexBuffer9@@PAU1@@std@@YA?AU_Scalar_ptr_iterator_tag@0@PAPAUIDirect3DVertexBuffer9@@0@Z 10016020 f i r2.obj
 0001:00015030       ??$_Destroy_range@U?$_Wrap_alloc@V?$xalloc@PAUIDirect3DVertexBuffer9@@@@@std@@@std@@YAXPAPAUIDirect3DVertexBuffer9@@0AAU?$_Wrap_alloc@V?$xalloc@PAUIDirect3DVertexBuffer9@@@@@0@U_Scalar_ptr_iterator_tag@0@@Z 10016030 f i r2.obj
 0001:00015040       ??$_Ptr_cat@PAUIDirect3DIndexBuffer9@@PAU1@@std@@YA?AU_Scalar_ptr_iterator_tag@0@PAPAUIDirect3DIndexBuffer9@@0@Z 10016040 f i r2.obj
 0001:00015050       ??$_Destroy_range@U?$_Wrap_alloc@V?$xalloc@PAUIDirect3DIndexBuffer9@@@@@std@@@std@@YAXPAPAUIDirect3DIndexBuffer9@@0AAU?$_Wrap_alloc@V?$xalloc@PAUIDirect3DIndexBuffer9@@@@@0@U_Scalar_ptr_iterator_tag@0@@Z 10016050 f i r2.obj
 0001:00015060       ??$_Ptr_cat@Ucascade@sun@@U12@@std@@YA?AU_Nonscalar_ptr_iterator_tag@0@PAUcascade@sun@@0@Z 10016060 f i r2.obj
 0001:00015070       ??$_Destroy_range@U?$_Wrap_alloc@V?$xalloc@Ucascade@sun@@@@@std@@@std@@YAXPAUcascade@sun@@0AAU?$_Wrap_alloc@V?$xalloc@Ucascade@sun@@@@@0@U_Nonscalar_ptr_iterator_tag@0@@Z 10016070 f i r2.obj
 0001:000150c0       ??$_Uninitialized_move@PAU_REG_INFO@@PAU1@U?$_Wrap_alloc@V?$xalloc@U_REG_INFO@@@@@std@@@std@@YAPAU_REG_INFO@@PAU1@00AAU?$_Wrap_alloc@V?$xalloc@U_REG_INFO@@@@@0@@Z 100160c0 f i r2.obj
 0001:000150e0       ?reflect@?$reflector@$0CA@@detail@boost@@SAII@Z 100160e0 f i r2.obj
 0001:00015110       ?_Reserve@?$vector@V?$FastDelegate0@X@fastdelegate@@V?$xalloc@V?$FastDelegate0@X@fastdelegate@@@@@std@@IAEXI@Z 10016110 f i r2.obj
 0001:00015180       ?_Orphan_range@?$vector@V?$FastDelegate0@X@fastdelegate@@V?$xalloc@V?$FastDelegate0@X@fastdelegate@@@@@std@@IBEXPAV?$FastDelegate0@X@fastdelegate@@0@Z 10016180 f i r2.obj
 0001:00015190       ?reflect@?$crc_helper@$07$00@detail@boost@@SAEE@Z 10016190 f i r2.obj
 0001:000151e0       ?_Unused_capacity@?$vector@V?$FastDelegate0@X@fastdelegate@@V?$xalloc@V?$FastDelegate0@X@fastdelegate@@@@@std@@QBEIXZ 100161e0 f i r2.obj
 0001:000151f0       ?size@?$vector@V?$FastDelegate0@X@fastdelegate@@V?$xalloc@V?$FastDelegate0@X@fastdelegate@@@@@std@@QBEIXZ 100161f0 f i r2.obj
 0001:00015200       ?max_size@?$vector@V?$FastDelegate0@X@fastdelegate@@V?$xalloc@V?$FastDelegate0@X@fastdelegate@@@@@std@@QBEIXZ 10016200 f i r2.obj
 0001:00015210       ?_Grow_to@?$vector@V?$FastDelegate0@X@fastdelegate@@V?$xalloc@V?$FastDelegate0@X@fastdelegate@@@@@std@@IBEII@Z 10016210 f i r2.obj
 0001:00015250       ?_Reallocate@?$vector@V?$FastDelegate0@X@fastdelegate@@V?$xalloc@V?$FastDelegate0@X@fastdelegate@@@@@std@@IAEXI@Z 10016250 f i r2.obj
 0001:00015310       ?_Xlen@?$vector@V?$FastDelegate0@X@fastdelegate@@V?$xalloc@V?$FastDelegate0@X@fastdelegate@@@@@std@@IBEXXZ 10016310 f i r2.obj
 0001:00015320       ?capacity@?$vector@V?$FastDelegate0@X@fastdelegate@@V?$xalloc@V?$FastDelegate0@X@fastdelegate@@@@@std@@QBEIXZ 10016320 f i r2.obj
 0001:00015330       ?allocate@?$_Wrap_alloc@V?$xalloc@V?$FastDelegate0@X@fastdelegate@@@@@std@@QAEPAV?$FastDelegate0@X@fastdelegate@@I@Z 10016330 f i r2.obj
 0001:00015350       ?max_size@?$_Wrap_alloc@V?$xalloc@V?$FastDelegate0@X@fastdelegate@@@@@std@@QBEIXZ 10016350 f i r2.obj
 0001:00015360       ?allocate@?$xalloc@V?$FastDelegate0@X@fastdelegate@@@@QBEPAV?$FastDelegate0@X@fastdelegate@@IPBX@Z 10016360 f i r2.obj
 0001:00015380       ?max_size@?$allocator_traits@V?$xalloc@V?$FastDelegate0@X@fastdelegate@@@@@std@@SAIABV?$xalloc@V?$FastDelegate0@X@fastdelegate@@@@@Z 10016380 f i r2.obj
 0001:00015390       ??$Convert@VCDetailManager@@P81@AGXXZP8GenericClass@detail@fastdelegate@@AEXXZ@?$SimplifyMemFunc@$03@detail@fastdelegate@@SAPAVGenericClass@12@PAVCDetailManager@@P84@AGXXZAAP8312@AEXXZ@Z 10016390 f i r2.obj
 0001:000153a0       ??$Convert@VCHOM@@P81@AGXXZP8GenericClass@detail@fastdelegate@@AEXXZ@?$SimplifyMemFunc@$03@detail@fastdelegate@@SAPAVGenericClass@12@PAVCHOM@@P84@AGXXZAAP8312@AEXXZ@Z 100163a0 f i r2.obj
 0001:000153b0       ??$_release@VCSkeletonWallmark@@@intrusive_base@@QAEXPAVCSkeletonWallmark@@@Z 100163b0 f i r2.obj
 0001:00015400       ??$construct@V?$FastDelegate0@X@fastdelegate@@V12@@?$_Wrap_alloc@V?$xalloc@V?$FastDelegate0@X@fastdelegate@@@@@std@@QAEXPAV?$FastDelegate0@X@fastdelegate@@$$QAV23@@Z 10016400 f i r2.obj
 0001:00015430       ??$_Iter_cat@V?$_Vector_iterator@V?$_Vector_val@U?$_Simple_types@V?$FastDelegate0@X@fastdelegate@@@std@@@std@@@std@@@std@@YA?AUrandom_access_iterator_tag@0@ABV?$_Vector_iterator@V?$_Vector_val@U?$_Simple_types@V?$FastDelegate0@X@fastdelegate@@@std@@@std@@@0@@Z 10016430 f i r2.obj
 0001:00015440       ??$_Rotate@PAV?$FastDelegate0@X@fastdelegate@@@std@@YAXPAV?$FastDelegate0@X@fastdelegate@@00Urandom_access_iterator_tag@0@@Z 10016440 f i r2.obj
 0001:00015460       ??$distance@V?$_Vector_iterator@V?$_Vector_val@U?$_Simple_types@V?$FastDelegate0@X@fastdelegate@@@std@@@std@@@std@@@std@@YAHV?$_Vector_iterator@V?$_Vector_val@U?$_Simple_types@V?$FastDelegate0@X@fastdelegate@@@std@@@std@@@0@0@Z 10016460 f i r2.obj
 0001:00015470       ??$advance@V?$_Vector_iterator@V?$_Vector_val@U?$_Simple_types@V?$FastDelegate0@X@fastdelegate@@@std@@@std@@@std@@H@std@@YAXAAV?$_Vector_iterator@V?$_Vector_val@U?$_Simple_types@V?$FastDelegate0@X@fastdelegate@@@std@@@std@@@0@H@Z 10016470 f i r2.obj
 0001:00015480       ??$_Fn@V?$xalloc@U_REG_INFO@@@@U_REG_INFO@@AAU2@@_Alloc_construct@std@@SAXHAAV?$xalloc@U_REG_INFO@@@@PAU_REG_INFO@@AAU3@@Z 10016480 f i r2.obj
 0001:000154a0       ??$_Fn@V?$xalloc@U_REG_INFO@@@@U_REG_INFO@@ABU2@@_Alloc_construct@std@@SAXHAAV?$xalloc@U_REG_INFO@@@@PAU_REG_INFO@@ABU3@@Z 100164a0 f i r2.obj
 0001:000154c0       ??$destroy@UFSlideWindowItem@@@?$_Wrap_alloc@V?$xalloc@UFSlideWindowItem@@@@@std@@QAEXPAUFSlideWindowItem@@@Z 100164c0 f i r2.obj
 0001:000154d0       ??$destroy@V?$svector@U_D3DVERTEXELEMENT9@@$0EB@@@@?$_Wrap_alloc@V?$xalloc@V?$svector@U_D3DVERTEXELEMENT9@@$0EB@@@@@@std@@QAEXPAV?$svector@U_D3DVERTEXELEMENT9@@$0EB@@@@Z 100164d0 f i r2.obj
 0001:000154e0       ??$destroy@Ucascade@sun@@@?$_Wrap_alloc@V?$xalloc@Ucascade@sun@@@@@std@@QAEXPAUcascade@sun@@@Z 100164e0 f i r2.obj
 0001:00015520       ??$_Unchecked@PAU_REG_INFO@@@std@@YAPAU_REG_INFO@@PAU1@@Z 10016520 f i r2.obj
 0001:00015530       ??$_Uninit_move@PAU_REG_INFO@@PAU1@U?$_Wrap_alloc@V?$xalloc@U_REG_INFO@@@@@std@@@std@@YAPAU_REG_INFO@@PAU1@00AAU?$_Wrap_alloc@V?$xalloc@U_REG_INFO@@@@@0@@Z 10016530 f i r2.obj
 0001:00015550       ??$_Rechecked@PAU_REG_INFO@@PAU1@@std@@YAAAPAU_REG_INFO@@AAPAU1@PAU1@@Z 10016550 f i r2.obj
 0001:00015560       ?reflect@?$reflector@$07@detail@boost@@SAEE@Z 10016560 f i r2.obj
 0001:000155b0       ??$_Umove@PAV?$FastDelegate0@X@fastdelegate@@@?$vector@V?$FastDelegate0@X@fastdelegate@@V?$xalloc@V?$FastDelegate0@X@fastdelegate@@@@@std@@IAEPAV?$FastDelegate0@X@fastdelegate@@PAV23@00@Z 100165b0 f i r2.obj
 0001:000155d0       ??$xr_alloc@V?$FastDelegate0@X@fastdelegate@@@@YAPAV?$FastDelegate0@X@fastdelegate@@I@Z 100165d0 f i r2.obj
 0001:000155f0       ??$_Fn@V?$xalloc@V?$FastDelegate0@X@fastdelegate@@@@@_Alloc_max_size@std@@SAIHABV?$xalloc@V?$FastDelegate0@X@fastdelegate@@@@@Z 100165f0 f i r2.obj
 0001:00015600       ?construct@?$xalloc@U_REG_INFO@@@@QAEXPAU_REG_INFO@@ABU2@@Z 10016600 f i r2.obj
 0001:00015620       ?max_size@?$xalloc@V?$FastDelegate0@X@fastdelegate@@@@QBEIXZ 10016620 f i r2.obj
 0001:00015630       ??$xr_delete@VCSkeletonWallmark@@@@YAXAAPAVCSkeletonWallmark@@@Z 10016630 f i r2.obj
 0001:00015660       ??$construct@V?$FastDelegate0@X@fastdelegate@@V12@@?$allocator_traits@V?$xalloc@V?$FastDelegate0@X@fastdelegate@@@@@std@@SAXAAV?$xalloc@V?$FastDelegate0@X@fastdelegate@@@@PAV?$FastDelegate0@X@fastdelegate@@$$QAV34@@Z 10016660 f i r2.obj
 0001:00015680       ??$_Dist_type@PAV?$FastDelegate0@X@fastdelegate@@@std@@YAPAHPAV?$FastDelegate0@X@fastdelegate@@@Z 10016680 f i r2.obj
 0001:00015690       ??$_Val_type@PAV?$FastDelegate0@X@fastdelegate@@@std@@YAPAV?$FastDelegate0@X@fastdelegate@@PAV12@@Z 10016690 f i r2.obj
 0001:000156a0       ??$_Rotate@PAV?$FastDelegate0@X@fastdelegate@@HV12@@std@@YAXPAV?$FastDelegate0@X@fastdelegate@@00PAH0@Z 100166a0 f i r2.obj
 0001:00015760       ??$_Distance2@V?$_Vector_iterator@V?$_Vector_val@U?$_Simple_types@V?$FastDelegate0@X@fastdelegate@@@std@@@std@@@std@@H@std@@YAXV?$_Vector_iterator@V?$_Vector_val@U?$_Simple_types@V?$FastDelegate0@X@fastdelegate@@@std@@@std@@@0@0AAHUrandom_access_iterator_tag@0@@Z 10016760 f i r2.obj
 0001:00015770       ??$_Advance@V?$_Vector_iterator@V?$_Vector_val@U?$_Simple_types@V?$FastDelegate0@X@fastdelegate@@@std@@@std@@@std@@H@std@@YAXAAV?$_Vector_iterator@V?$_Vector_val@U?$_Simple_types@V?$FastDelegate0@X@fastdelegate@@@std@@@std@@@0@HUrandom_access_iterator_tag@0@@Z 10016770 f i r2.obj
 0001:00015780       ??$destroy@UFSlideWindowItem@@@?$allocator_traits@V?$xalloc@UFSlideWindowItem@@@@@std@@SAXAAV?$xalloc@UFSlideWindowItem@@@@PAUFSlideWindowItem@@@Z 10016780 f i r2.obj
 0001:00015790       ??$destroy@V?$svector@U_D3DVERTEXELEMENT9@@$0EB@@@@?$allocator_traits@V?$xalloc@V?$svector@U_D3DVERTEXELEMENT9@@$0EB@@@@@@std@@SAXAAV?$xalloc@V?$svector@U_D3DVERTEXELEMENT9@@$0EB@@@@@PAV?$svector@U_D3DVERTEXELEMENT9@@$0EB@@@@Z 10016790 f i r2.obj
 0001:000157a0       ??$destroy@Ucascade@sun@@@?$allocator_traits@V?$xalloc@Ucascade@sun@@@@@std@@SAXAAV?$xalloc@Ucascade@sun@@@@PAUcascade@sun@@@Z 100167a0 f i r2.obj
 0001:000157d0       ??$_Val_type@PAU_REG_INFO@@@std@@YAPAU_REG_INFO@@PAU1@@Z 100167d0 f i r2.obj
 0001:000157e0       ??$_Uninit_move@PAU_REG_INFO@@PAU1@V?$xalloc@U_REG_INFO@@@@U1@@std@@YAPAU_REG_INFO@@PAU1@00AAU?$_Wrap_alloc@V?$xalloc@U_REG_INFO@@@@@0@0U_Nonscalar_ptr_iterator_tag@0@@Z 100167e0 f i r2.obj
 0001:00015850       ??$_Uninitialized_move@PAV?$FastDelegate0@X@fastdelegate@@PAV12@U?$_Wrap_alloc@V?$xalloc@V?$FastDelegate0@X@fastdelegate@@@@@std@@@std@@YAPAV?$FastDelegate0@X@fastdelegate@@PAV12@00AAU?$_Wrap_alloc@V?$xalloc@V?$FastDelegate0@X@fastdelegate@@@@@0@@Z 10016850 f i r2.obj
 0001:00015870       ??$_Construct@U_REG_INFO@@ABU1@@std@@YAXPAU_REG_INFO@@ABU1@@Z 10016870 f i r2.obj
 0001:00015890       ??G?$_Vector_iterator@V?$_Vector_val@U?$_Simple_types@V?$FastDelegate0@X@fastdelegate@@@std@@@std@@@std@@QBEHABV?$_Vector_const_iterator@V?$_Vector_val@U?$_Simple_types@V?$FastDelegate0@X@fastdelegate@@@std@@@std@@@1@@Z 10016890 f i r2.obj
 0001:000158a0       ??R?$xr_special_free@$0A@VCSkeletonWallmark@@@@QAEXAAPAVCSkeletonWallmark@@@Z 100168a0 f i r2.obj
 0001:000158c0       ??_GCSkeletonWallmark@@QAEPAXI@Z 100168c0 f i r2.obj
 0001:000158d0       ??G?$_Vector_const_iterator@V?$_Vector_val@U?$_Simple_types@V?$FastDelegate0@X@fastdelegate@@@std@@@std@@@std@@QBEHABV01@@Z 100168d0 f i r2.obj
 0001:000158e0       ??$_Fn@V?$xalloc@V?$FastDelegate0@X@fastdelegate@@@@V?$FastDelegate0@X@fastdelegate@@V23@@_Alloc_construct@std@@SAXHAAV?$xalloc@V?$FastDelegate0@X@fastdelegate@@@@PAV?$FastDelegate0@X@fastdelegate@@$$QAV34@@Z 100168e0 f i r2.obj
 0001:00015910       ??$iter_swap@PAV?$FastDelegate0@X@fastdelegate@@PAV12@@std@@YAXPAV?$FastDelegate0@X@fastdelegate@@0@Z 10016910 f i r2.obj
 0001:00015930       ??$_Fn@V?$xalloc@UFSlideWindowItem@@@@UFSlideWindowItem@@@_Alloc_destroy@std@@SAXHAAV?$xalloc@UFSlideWindowItem@@@@PAUFSlideWindowItem@@@Z 10016930 f i r2.obj
 0001:00015940       ??$_Fn@V?$xalloc@V?$svector@U_D3DVERTEXELEMENT9@@$0EB@@@@@V?$svector@U_D3DVERTEXELEMENT9@@$0EB@@@@_Alloc_destroy@std@@SAXHAAV?$xalloc@V?$svector@U_D3DVERTEXELEMENT9@@$0EB@@@@@PAV?$svector@U_D3DVERTEXELEMENT9@@$0EB@@@@Z 10016940 f i r2.obj
 0001:00015950       ??$_Fn@V?$xalloc@Ucascade@sun@@@@Ucascade@sun@@@_Alloc_destroy@std@@SAXHAAV?$xalloc@Ucascade@sun@@@@PAUcascade@sun@@@Z 10016950 f i r2.obj
 0001:00015980       ??$construct@U_REG_INFO@@U1@@?$_Wrap_alloc@V?$xalloc@U_REG_INFO@@@@@std@@QAEXPAU_REG_INFO@@$$QAU2@@Z 10016980 f i r2.obj
 0001:000159a0       ??$_Unchecked@PAV?$FastDelegate0@X@fastdelegate@@@std@@YAPAV?$FastDelegate0@X@fastdelegate@@PAV12@@Z 100169a0 f i r2.obj
 0001:000159b0       ??$_Uninit_move@PAV?$FastDelegate0@X@fastdelegate@@PAV12@U?$_Wrap_alloc@V?$xalloc@V?$FastDelegate0@X@fastdelegate@@@@@std@@@std@@YAPAV?$FastDelegate0@X@fastdelegate@@PAV12@00AAU?$_Wrap_alloc@V?$xalloc@V?$FastDelegate0@X@fastdelegate@@@@@0@@Z 100169b0 f i r2.obj
 0001:000159d0       ??$_Rechecked@PAV?$FastDelegate0@X@fastdelegate@@PAV12@@std@@YAAAPAV?$FastDelegate0@X@fastdelegate@@AAPAV12@PAV12@@Z 100169d0 f i r2.obj
 0001:000159e0       ?construct@?$xalloc@V?$FastDelegate0@X@fastdelegate@@@@QAEXPAV?$FastDelegate0@X@fastdelegate@@ABV23@@Z 100169e0 f i r2.obj
 0001:00015a10       ?destroy@?$xalloc@UFSlideWindowItem@@@@QAEXPAUFSlideWindowItem@@@Z 10016a10 f i r2.obj
 0001:00015a20       ?destroy@?$xalloc@V?$svector@U_D3DVERTEXELEMENT9@@$0EB@@@@@QAEXPAV?$svector@U_D3DVERTEXELEMENT9@@$0EB@@@@Z 10016a20 f i r2.obj
 0001:00015a30       ?destroy@?$xalloc@Ucascade@sun@@@@QAEXPAUcascade@sun@@@Z 10016a30 f i r2.obj
 0001:00015a70       ??$swap@V?$FastDelegate0@X@fastdelegate@@@std@@YAXAAV?$FastDelegate0@X@fastdelegate@@0@Z 10016a70 f i r2.obj
 0001:00015a90       ??$forward@U_REG_INFO@@@std@@YA$$QAU_REG_INFO@@AAU1@@Z 10016a90 f i r2.obj
 0001:00015aa0       ??$construct@U_REG_INFO@@U1@@?$allocator_traits@V?$xalloc@U_REG_INFO@@@@@std@@SAXAAV?$xalloc@U_REG_INFO@@@@PAU_REG_INFO@@$$QAU3@@Z 10016aa0 f i r2.obj
 0001:00015ac0       ??$_Uninit_move@PAV?$FastDelegate0@X@fastdelegate@@PAV12@V?$xalloc@V?$FastDelegate0@X@fastdelegate@@@@V12@@std@@YAPAV?$FastDelegate0@X@fastdelegate@@PAV12@00AAU?$_Wrap_alloc@V?$xalloc@V?$FastDelegate0@X@fastdelegate@@@@@0@0U_Nonscalar_ptr_iterator_tag@0@@Z 10016ac0 f i r2.obj
 0001:00015b30       ??$_Construct@V?$FastDelegate0@X@fastdelegate@@ABV12@@std@@YAXPAV?$FastDelegate0@X@fastdelegate@@ABV12@@Z 10016b30 f i r2.obj
 0001:00015b50       ??$_Destroy@UFSlideWindowItem@@@std@@YAXPAUFSlideWindowItem@@@Z 10016b50 f i r2.obj
 0001:00015b60       ??$_Destroy@V?$svector@U_D3DVERTEXELEMENT9@@$0EB@@@@std@@YAXPAV?$svector@U_D3DVERTEXELEMENT9@@$0EB@@@@Z 10016b60 f i r2.obj
 0001:00015b70       ??$_Destroy@Ucascade@sun@@@std@@YAXPAUcascade@sun@@@Z 10016b70 f i r2.obj
 0001:00015ba0       ??_Gcascade@sun@@QAEPAXI@Z 10016ba0 f i r2.obj
 0001:00015be0       ??1cascade@sun@@QAE@XZ     10016be0 f i r2.obj
 0001:00015c10       ??0?$FastDelegate0@X@fastdelegate@@QAE@ABV01@@Z 10016c10 f i r2.obj
 0001:00015c30       ??$_Move@AAV?$FastDelegate0@X@fastdelegate@@@std@@YA$$QAV?$FastDelegate0@X@fastdelegate@@AAV12@@Z 10016c30 f i r2.obj
 0001:00015c40       ??$_Fn@V?$xalloc@U_REG_INFO@@@@U_REG_INFO@@U2@@_Alloc_construct@std@@SAXHAAV?$xalloc@U_REG_INFO@@@@PAU_REG_INFO@@$$QAU3@@Z 10016c40 f i r2.obj
 0001:00015c60       ??$forward@ABV?$FastDelegate0@X@fastdelegate@@@std@@YAABV?$FastDelegate0@X@fastdelegate@@ABV12@@Z 10016c60 f i r2.obj
 0001:00015c70       ?active_phase@CRender@@UAEIXZ 10016c70 f i r2.obj
 0001:00015c80       ?Logging@CModelPool@@QAEXH@Z 10016c80 f i r2.obj
 0001:00015c90       ?model_Logging@CRender@@UAEXH@Z 10016c90 f i r2.obj
 0001:00015ca0       ?phase_wet_rain@CRender@@UAEXXZ 10016ca0 f i r2.obj
 0001:00015cb0       ?getShaderPath@CRender@@UAEPBDXZ 10016cb0 f i r2.obj
 0001:00015cc0       ?get_dx_level@CRender@@UAEKXZ 10016cc0 f i r2.obj
 0001:00015cd0       ?is_sun_static@CRender@@UAE_NXZ 10016cd0 f i r2.obj
 0001:00015ce0       ?get_generation@CRender@@UAE?AW4GenerationLevel@IRender_interface@@XZ 10016ce0 f i r2.obj
 0001:00015cf0       ??$_Destroy@Uray@sun@@@std@@YAXPAUray@sun@@@Z 10016cf0 f i r2.obj
 0001:00015d00       ?destroy@?$xalloc@Uray@sun@@@@QAEXPAUray@sun@@@Z 10016d00 f i r2.obj
 0001:00015d10       ??$_Fn@V?$xalloc@Uray@sun@@@@Uray@sun@@@_Alloc_destroy@std@@SAXHAAV?$xalloc@Uray@sun@@@@PAUray@sun@@@Z 10016d10 f i r2.obj
 0001:00015d20       ??$destroy@Uray@sun@@@?$allocator_traits@V?$xalloc@Uray@sun@@@@@std@@SAXAAV?$xalloc@Uray@sun@@@@PAUray@sun@@@Z 10016d20 f i r2.obj
 0001:00015d30       ??$destroy@Uray@sun@@@?$_Wrap_alloc@V?$xalloc@Uray@sun@@@@@std@@QAEXPAUray@sun@@@Z 10016d30 f i r2.obj
 0001:00015d40       ??$_Destroy_range@U?$_Wrap_alloc@V?$xalloc@Uray@sun@@@@@std@@@std@@YAXPAUray@sun@@0AAU?$_Wrap_alloc@V?$xalloc@Uray@sun@@@@@0@U_Nonscalar_ptr_iterator_tag@0@@Z 10016d40 f i r2.obj
 0001:00015d50       ??$_Ptr_cat@Uray@sun@@U12@@std@@YA?AU_Nonscalar_ptr_iterator_tag@0@PAUray@sun@@0@Z 10016d50 f i r2.obj
 0001:00015d60       ??$_Destroy_range@U?$_Wrap_alloc@V?$xalloc@Uray@sun@@@@@std@@@std@@YAXPAUray@sun@@0AAU?$_Wrap_alloc@V?$xalloc@Uray@sun@@@@@0@@Z 10016d60 f i r2.obj
 0001:00015d70       ?_Destroy@?$vector@Uray@sun@@V?$xalloc@Uray@sun@@@@@std@@IAEXPAUray@sun@@0@Z 10016d70 f i r2.obj
 0001:00015d80       ??$xr_free@Uray@sun@@@@YAXAAPAUray@sun@@@Z 10016d80 f i r2.obj
 0001:00015da0       ?deallocate@?$xalloc@Uray@sun@@@@QBEXPAUray@sun@@I@Z 10016da0 f i r2.obj
 0001:00015dc0       ?deallocate@?$_Wrap_alloc@V?$xalloc@Uray@sun@@@@@std@@QAEXPAUray@sun@@I@Z 10016dc0 f i r2.obj
 0001:00015de0       ??0?$xalloc@Uray@sun@@@@QAE@XZ 10016de0 f i r2.obj
 0001:00015df0       ??0?$_Wrap_alloc@V?$xalloc@Uray@sun@@@@@std@@QAE@XZ 10016df0 f i r2.obj
 0001:00015e00       ?_Getal@?$_Vector_alloc@$0A@U?$_Vec_base_types@Uray@sun@@V?$xalloc@Uray@sun@@@@@std@@@std@@QBE?AU?$_Wrap_alloc@V?$xalloc@Uray@sun@@@@@2@XZ 10016e00 f i r2.obj
 0001:00015e10       ?_Tidy@?$vector@Uray@sun@@V?$xalloc@Uray@sun@@@@@std@@IAEXXZ 10016e10 f i r2.obj
 0001:00015e40       ??1?$vector@Uray@sun@@V?$xalloc@Uray@sun@@@@@std@@QAE@XZ 10016e40 f i r2.obj
 0001:00015e70       ??1?$xr_vector@Uray@sun@@V?$xalloc@Uray@sun@@@@@@QAE@XZ 10016e70 f i r2.obj
 0001:00015ea0       ?SetMementoFrom@DelegateMemento@fastdelegate@@IAEXABV12@@Z 10016ea0 f i r2.obj
 0001:00015ec0       ??$CopyFrom@V?$FastDelegate0@X@fastdelegate@@@?$ClosurePtr@P8GenericClass@detail@fastdelegate@@AGXXZP6AXXZP6AXXZ@detail@fastdelegate@@QAEXPAV?$FastDelegate0@X@2@ABVDelegateMemento@2@@Z 10016ec0 f i r2.obj
 0001:00015ee0       ??4?$FastDelegate0@X@fastdelegate@@QAEXABV01@@Z 10016ee0 f i r2.obj
 0001:00015f00       ??$_Destroy@V?$FastDelegate0@X@fastdelegate@@@std@@YAXPAV?$FastDelegate0@X@fastdelegate@@@Z 10016f00 f i r2.obj
 0001:00015f10       ?destroy@?$xalloc@V?$FastDelegate0@X@fastdelegate@@@@QAEXPAV?$FastDelegate0@X@fastdelegate@@@Z 10016f10 f i r2.obj
 0001:00015f20       ??$_Fn@V?$xalloc@V?$FastDelegate0@X@fastdelegate@@@@V?$FastDelegate0@X@fastdelegate@@@_Alloc_destroy@std@@SAXHAAV?$xalloc@V?$FastDelegate0@X@fastdelegate@@@@PAV?$FastDelegate0@X@fastdelegate@@@Z 10016f20 f i r2.obj
 0001:00015f30       ??$destroy@V?$FastDelegate0@X@fastdelegate@@@?$allocator_traits@V?$xalloc@V?$FastDelegate0@X@fastdelegate@@@@@std@@SAXAAV?$xalloc@V?$FastDelegate0@X@fastdelegate@@@@PAV?$FastDelegate0@X@fastdelegate@@@Z 10016f30 f i r2.obj
 0001:00015f40       ??$destroy@V?$FastDelegate0@X@fastdelegate@@@?$_Wrap_alloc@V?$xalloc@V?$FastDelegate0@X@fastdelegate@@@@@std@@QAEXPAV?$FastDelegate0@X@fastdelegate@@@Z 10016f40 f i r2.obj
 0001:00015f50       ??$_Destroy_range@U?$_Wrap_alloc@V?$xalloc@V?$FastDelegate0@X@fastdelegate@@@@@std@@@std@@YAXPAV?$FastDelegate0@X@fastdelegate@@0AAU?$_Wrap_alloc@V?$xalloc@V?$FastDelegate0@X@fastdelegate@@@@@0@U_Nonscalar_ptr_iterator_tag@0@@Z 10016f50 f i r2.obj
 0001:00015f60       ??$_Ptr_cat@V?$FastDelegate0@X@fastdelegate@@V12@@std@@YA?AU_Nonscalar_ptr_iterator_tag@0@PAV?$FastDelegate0@X@fastdelegate@@0@Z 10016f60 f i r2.obj
 0001:00015f70       ??$_Destroy_range@U?$_Wrap_alloc@V?$xalloc@V?$FastDelegate0@X@fastdelegate@@@@@std@@@std@@YAXPAV?$FastDelegate0@X@fastdelegate@@0AAU?$_Wrap_alloc@V?$xalloc@V?$FastDelegate0@X@fastdelegate@@@@@0@@Z 10016f70 f i r2.obj
 0001:00015f80       ?_Destroy@?$vector@V?$FastDelegate0@X@fastdelegate@@V?$xalloc@V?$FastDelegate0@X@fastdelegate@@@@@std@@IAEXPAV?$FastDelegate0@X@fastdelegate@@0@Z 10016f80 f i r2.obj
 0001:00015f90       ??$xr_free@V?$FastDelegate0@X@fastdelegate@@@@YAXAAPAV?$FastDelegate0@X@fastdelegate@@@Z 10016f90 f i r2.obj
 0001:00015fb0       ?deallocate@?$xalloc@V?$FastDelegate0@X@fastdelegate@@@@QBEXPAV?$FastDelegate0@X@fastdelegate@@I@Z 10016fb0 f i r2.obj
 0001:00015fd0       ?deallocate@?$_Wrap_alloc@V?$xalloc@V?$FastDelegate0@X@fastdelegate@@@@@std@@QAEXPAV?$FastDelegate0@X@fastdelegate@@I@Z 10016fd0 f i r2.obj
 0001:00015ff0       ?_Unchecked@?$_Vector_iterator@V?$_Vector_val@U?$_Simple_types@V?$FastDelegate0@X@fastdelegate@@@std@@@std@@@std@@QBEPAV?$FastDelegate0@X@fastdelegate@@XZ 10016ff0 f i r2.obj
 0001:00016000       ??$_Unchecked@V?$_Vector_val@U?$_Simple_types@V?$FastDelegate0@X@fastdelegate@@@std@@@std@@@std@@YAPAV?$FastDelegate0@X@fastdelegate@@V?$_Vector_iterator@V?$_Vector_val@U?$_Simple_types@V?$FastDelegate0@X@fastdelegate@@@std@@@std@@@0@@Z 10017000 f i r2.obj
 0001:00016010       ?_Compat@?$_Vector_const_iterator@V?$_Vector_val@U?$_Simple_types@V?$FastDelegate0@X@fastdelegate@@@std@@@std@@@std@@QBEXABV12@@Z 10017010 f i r2.obj
 0001:00016020       ??8?$_Vector_const_iterator@V?$_Vector_val@U?$_Simple_types@V?$FastDelegate0@X@fastdelegate@@@std@@@std@@@std@@QBE_NABV01@@Z 10017020 f i r2.obj
 0001:00016030       ??9?$_Vector_const_iterator@V?$_Vector_val@U?$_Simple_types@V?$FastDelegate0@X@fastdelegate@@@std@@@std@@@std@@QBE_NABV01@@Z 10017030 f i r2.obj
 0001:00016040       ??0?$xalloc@V?$FastDelegate0@X@fastdelegate@@@@QAE@XZ 10017040 f i r2.obj
 0001:00016050       ??0?$_Wrap_alloc@V?$xalloc@V?$FastDelegate0@X@fastdelegate@@@@@std@@QAE@XZ 10017050 f i r2.obj
 0001:00016060       ?_Getal@?$_Vector_alloc@$0A@U?$_Vec_base_types@V?$FastDelegate0@X@fastdelegate@@V?$xalloc@V?$FastDelegate0@X@fastdelegate@@@@@std@@@std@@QBE?AU?$_Wrap_alloc@V?$xalloc@V?$FastDelegate0@X@fastdelegate@@@@@2@XZ 10017060 f i r2.obj
 0001:00016070       ?end@?$vector@V?$FastDelegate0@X@fastdelegate@@V?$xalloc@V?$FastDelegate0@X@fastdelegate@@@@@std@@QAE?AV?$_Vector_iterator@V?$_Vector_val@U?$_Simple_types@V?$FastDelegate0@X@fastdelegate@@@std@@@std@@@2@XZ 10017070 f i r2.obj
 0001:00016080       ??0DelegateMemento@fastdelegate@@QAE@XZ 10017080 f i r2.obj
 0001:00016090       ??0?$ClosurePtr@P8GenericClass@detail@fastdelegate@@AGXXZP6AXXZP6AXXZ@detail@fastdelegate@@QAE@XZ 10017090 f i r2.obj
 0001:000160a0       ??$_Destroy_range@U?$_Wrap_alloc@V?$xalloc@U_REG_INFO@@@@@std@@@std@@YAXPAU_REG_INFO@@0AAU?$_Wrap_alloc@V?$xalloc@U_REG_INFO@@@@@0@U_Nonscalar_ptr_iterator_tag@0@@Z 100170a0 f i r2.obj
 0001:000160b0       ??$_Ptr_cat@U_REG_INFO@@U1@@std@@YA?AU_Nonscalar_ptr_iterator_tag@0@PAU_REG_INFO@@0@Z 100170b0 f i r2.obj
 0001:000160c0       ??$_Destroy_range@U?$_Wrap_alloc@V?$xalloc@U_REG_INFO@@@@@std@@@std@@YAXPAU_REG_INFO@@0AAU?$_Wrap_alloc@V?$xalloc@U_REG_INFO@@@@@0@@Z 100170c0 f i r2.obj
 0001:000160d0       ?_Destroy@?$vector@U_REG_INFO@@V?$xalloc@U_REG_INFO@@@@@std@@IAEXPAU_REG_INFO@@0@Z 100170d0 f i r2.obj
 0001:000160e0       ??$xr_free@U_REG_INFO@@@@YAXAAPAU_REG_INFO@@@Z 100170e0 f i r2.obj
 0001:00016100       ?deallocate@?$xalloc@U_REG_INFO@@@@QBEXPAU_REG_INFO@@I@Z 10017100 f i r2.obj
 0001:00016120       ?deallocate@?$_Wrap_alloc@V?$xalloc@U_REG_INFO@@@@@std@@QAEXPAU_REG_INFO@@I@Z 10017120 f i r2.obj
 0001:00016140       ??$_Destroy@U_REG_INFO@@@std@@YAXPAU_REG_INFO@@@Z 10017140 f i r2.obj
 0001:00016150       ?destroy@?$xalloc@U_REG_INFO@@@@QAEXPAU_REG_INFO@@@Z 10017150 f i r2.obj
 0001:00016160       ??$_Fn@V?$xalloc@U_REG_INFO@@@@U_REG_INFO@@@_Alloc_destroy@std@@SAXHAAV?$xalloc@U_REG_INFO@@@@PAU_REG_INFO@@@Z 10017160 f i r2.obj
 0001:00016170       ??$destroy@U_REG_INFO@@@?$allocator_traits@V?$xalloc@U_REG_INFO@@@@@std@@SAXAAV?$xalloc@U_REG_INFO@@@@PAU_REG_INFO@@@Z 10017170 f i r2.obj
 0001:00016180       ??$destroy@U_REG_INFO@@@?$_Wrap_alloc@V?$xalloc@U_REG_INFO@@@@@std@@QAEXPAU_REG_INFO@@@Z 10017180 f i r2.obj
 0001:00016190       ??$xr_free@U?$_vector2@H@@@@YAXAAPAU?$_vector2@H@@@Z 10017190 f i r2.obj
 0001:000161b0       ?deallocate@?$xalloc@U?$_vector2@H@@@@QBEXPAU?$_vector2@H@@I@Z 100171b0 f i r2.obj
 0001:000161d0       ?deallocate@?$_Wrap_alloc@V?$xalloc@U?$_vector2@H@@@@@std@@QAEXPAU?$_vector2@H@@I@Z 100171d0 f i r2.obj
 0001:000161f0       ??0?$_Wrap_alloc@V?$xalloc@U?$_vector2@H@@@@@std@@QAE@XZ 100171f0 f i r2.obj
 0001:00016200       ?_Getal@?$_Vector_alloc@$0A@U?$_Vec_base_types@U?$_vector2@H@@V?$xalloc@U?$_vector2@H@@@@@std@@@std@@QBE?AU?$_Wrap_alloc@V?$xalloc@U?$_vector2@H@@@@@2@XZ 10017200 f i r2.obj
 0001:00016210       ??$_Destroy@U?$_vector2@H@@@std@@YAXPAU?$_vector2@H@@@Z 10017210 f i r2.obj
 0001:00016220       ?destroy@?$xalloc@U?$_vector2@H@@@@QAEXPAU?$_vector2@H@@@Z 10017220 f i r2.obj
 0001:00016230       ??$_Fn@V?$xalloc@U?$_vector2@H@@@@U?$_vector2@H@@@_Alloc_destroy@std@@SAXHAAV?$xalloc@U?$_vector2@H@@@@PAU?$_vector2@H@@@Z 10017230 f i r2.obj
 0001:00016240       ??$destroy@U?$_vector2@H@@@?$allocator_traits@V?$xalloc@U?$_vector2@H@@@@@std@@SAXAAV?$xalloc@U?$_vector2@H@@@@PAU?$_vector2@H@@@Z 10017240 f i r2.obj
 0001:00016250       ??$destroy@U?$_vector2@H@@@?$_Wrap_alloc@V?$xalloc@U?$_vector2@H@@@@@std@@QAEXPAU?$_vector2@H@@@Z 10017250 f i r2.obj
 0001:00016260       ??$_Destroy_range@U?$_Wrap_alloc@V?$xalloc@U?$_vector2@H@@@@@std@@@std@@YAXPAU?$_vector2@H@@0AAU?$_Wrap_alloc@V?$xalloc@U?$_vector2@H@@@@@0@U_Nonscalar_ptr_iterator_tag@0@@Z 10017260 f i r2.obj
 0001:00016270       ??$_Ptr_cat@U?$_vector2@H@@U1@@std@@YA?AU_Nonscalar_ptr_iterator_tag@0@PAU?$_vector2@H@@0@Z 10017270 f i r2.obj
 0001:00016280       ??$_Destroy_range@U?$_Wrap_alloc@V?$xalloc@U?$_vector2@H@@@@@std@@@std@@YAXPAU?$_vector2@H@@0AAU?$_Wrap_alloc@V?$xalloc@U?$_vector2@H@@@@@0@@Z 10017280 f i r2.obj
 0001:00016290       ?_Destroy@?$vector@U?$_vector2@H@@V?$xalloc@U?$_vector2@H@@@@@std@@IAEXPAU?$_vector2@H@@0@Z 10017290 f i r2.obj
 0001:000162a0       ??0?$xalloc@U?$_vector2@H@@@@QAE@XZ 100172a0 f i r2.obj
 0001:000162b0       ??$xr_free@USMAP_Rect@@@@YAXAAPAUSMAP_Rect@@@Z 100172b0 f i r2.obj
 0001:000162d0       ?deallocate@?$xalloc@USMAP_Rect@@@@QBEXPAUSMAP_Rect@@I@Z 100172d0 f i r2.obj
 0001:000162f0       ?deallocate@?$_Wrap_alloc@V?$xalloc@USMAP_Rect@@@@@std@@QAEXPAUSMAP_Rect@@I@Z 100172f0 f i r2.obj
 0001:00016310       ??0?$_Wrap_alloc@V?$xalloc@USMAP_Rect@@@@@std@@QAE@XZ 10017310 f i r2.obj
 0001:00016320       ?_Getal@?$_Vector_alloc@$0A@U?$_Vec_base_types@USMAP_Rect@@V?$xalloc@USMAP_Rect@@@@@std@@@std@@QBE?AU?$_Wrap_alloc@V?$xalloc@USMAP_Rect@@@@@2@XZ 10017320 f i r2.obj
 0001:00016330       ??$_Destroy@USMAP_Rect@@@std@@YAXPAUSMAP_Rect@@@Z 10017330 f i r2.obj
 0001:00016340       ?destroy@?$xalloc@USMAP_Rect@@@@QAEXPAUSMAP_Rect@@@Z 10017340 f i r2.obj
 0001:00016350       ??$_Fn@V?$xalloc@USMAP_Rect@@@@USMAP_Rect@@@_Alloc_destroy@std@@SAXHAAV?$xalloc@USMAP_Rect@@@@PAUSMAP_Rect@@@Z 10017350 f i r2.obj
 0001:00016360       ??$destroy@USMAP_Rect@@@?$allocator_traits@V?$xalloc@USMAP_Rect@@@@@std@@SAXAAV?$xalloc@USMAP_Rect@@@@PAUSMAP_Rect@@@Z 10017360 f i r2.obj
 0001:00016370       ??$destroy@USMAP_Rect@@@?$_Wrap_alloc@V?$xalloc@USMAP_Rect@@@@@std@@QAEXPAUSMAP_Rect@@@Z 10017370 f i r2.obj
 0001:00016380       ??$_Destroy_range@U?$_Wrap_alloc@V?$xalloc@USMAP_Rect@@@@@std@@@std@@YAXPAUSMAP_Rect@@0AAU?$_Wrap_alloc@V?$xalloc@USMAP_Rect@@@@@0@U_Nonscalar_ptr_iterator_tag@0@@Z 10017380 f i r2.obj
 0001:00016390       ??$_Ptr_cat@USMAP_Rect@@U1@@std@@YA?AU_Nonscalar_ptr_iterator_tag@0@PAUSMAP_Rect@@0@Z 10017390 f i r2.obj
 0001:000163a0       ??$_Destroy_range@U?$_Wrap_alloc@V?$xalloc@USMAP_Rect@@@@@std@@@std@@YAXPAUSMAP_Rect@@0AAU?$_Wrap_alloc@V?$xalloc@USMAP_Rect@@@@@0@@Z 100173a0 f i r2.obj
 0001:000163b0       ?_Destroy@?$vector@USMAP_Rect@@V?$xalloc@USMAP_Rect@@@@@std@@IAEXPAUSMAP_Rect@@0@Z 100173b0 f i r2.obj
 0001:000163c0       ??0?$xalloc@USMAP_Rect@@@@QAE@XZ 100173c0 f i r2.obj
 0001:000163d0       ??$xr_free@PAVIRender_Visual@@@@YAXAAPAPAVIRender_Visual@@@Z 100173d0 f i r2.obj
 0001:000163f0       ?deallocate@?$xalloc@PAVIRender_Visual@@@@QBEXPAPAVIRender_Visual@@I@Z 100173f0 f i r2.obj
 0001:00016410       ?deallocate@?$_Wrap_alloc@V?$xalloc@PAVIRender_Visual@@@@@std@@QAEXPAPAVIRender_Visual@@I@Z 10017410 f i r2.obj
 0001:00016430       ??0?$_Wrap_alloc@V?$xalloc@PAVIRender_Visual@@@@@std@@QAE@XZ 10017430 f i r2.obj
 0001:00016440       ?_Getal@?$_Vector_alloc@$0A@U?$_Vec_base_types@PAVIRender_Visual@@V?$xalloc@PAVIRender_Visual@@@@@std@@@std@@QBE?AU?$_Wrap_alloc@V?$xalloc@PAVIRender_Visual@@@@@2@XZ 10017440 f i r2.obj
 0001:00016450       ??$_Destroy_range@U?$_Wrap_alloc@V?$xalloc@PAVIRender_Visual@@@@@std@@@std@@YAXPAPAVIRender_Visual@@0AAU?$_Wrap_alloc@V?$xalloc@PAVIRender_Visual@@@@@0@U_Scalar_ptr_iterator_tag@0@@Z 10017450 f i r2.obj
 0001:00016460       ??$_Destroy_range@U?$_Wrap_alloc@V?$xalloc@PAVIRender_Visual@@@@@std@@@std@@YAXPAPAVIRender_Visual@@0AAU?$_Wrap_alloc@V?$xalloc@PAVIRender_Visual@@@@@0@@Z 10017460 f i r2.obj
 0001:00016470       ?_Destroy@?$vector@PAVIRender_Visual@@V?$xalloc@PAVIRender_Visual@@@@@std@@IAEXPAPAVIRender_Visual@@0@Z 10017470 f i r2.obj
 0001:00016480       ??0?$xalloc@PAVIRender_Visual@@@@QAE@XZ 10017480 f i r2.obj
 0001:00016490       ??0?$_Wrap_alloc@V?$doug_lea_alloc@V?$_box3@M@@@@@std@@QAE@XZ 10017490 f i r2.obj
 0001:000164a0       ?_Getal@?$_Vector_alloc@$0A@U?$_Vec_base_types@V?$_box3@M@@V?$doug_lea_alloc@V?$_box3@M@@@@@std@@@std@@QBE?AU?$_Wrap_alloc@V?$doug_lea_alloc@V?$_box3@M@@@@@2@XZ 100174a0 f i r2.obj
 0001:000164b0       ??$_Destroy@V?$_box3@M@@@std@@YAXPAV?$_box3@M@@@Z 100174b0 f i r2.obj
 0001:000164c0       ?destroy@?$doug_lea_alloc@V?$_box3@M@@@@QAEXPAV?$_box3@M@@@Z 100174c0 f i r2.obj
 0001:000164d0       ??$_Fn@V?$doug_lea_alloc@V?$_box3@M@@@@V?$_box3@M@@@_Alloc_destroy@std@@SAXHAAV?$doug_lea_alloc@V?$_box3@M@@@@PAV?$_box3@M@@@Z 100174d0 f i r2.obj
 0001:000164e0       ??$destroy@V?$_box3@M@@@?$allocator_traits@V?$doug_lea_alloc@V?$_box3@M@@@@@std@@SAXAAV?$doug_lea_alloc@V?$_box3@M@@@@PAV?$_box3@M@@@Z 100174e0 f i r2.obj
 0001:000164f0       ??$destroy@V?$_box3@M@@@?$_Wrap_alloc@V?$doug_lea_alloc@V?$_box3@M@@@@@std@@QAEXPAV?$_box3@M@@@Z 100174f0 f i r2.obj
 0001:00016500       ??$_Destroy_range@U?$_Wrap_alloc@V?$doug_lea_alloc@V?$_box3@M@@@@@std@@@std@@YAXPAV?$_box3@M@@0AAU?$_Wrap_alloc@V?$doug_lea_alloc@V?$_box3@M@@@@@0@U_Nonscalar_ptr_iterator_tag@0@@Z 10017500 f i r2.obj
 0001:00016510       ??$_Ptr_cat@V?$_box3@M@@V1@@std@@YA?AU_Nonscalar_ptr_iterator_tag@0@PAV?$_box3@M@@0@Z 10017510 f i r2.obj
 0001:00016520       ??$_Destroy_range@U?$_Wrap_alloc@V?$doug_lea_alloc@V?$_box3@M@@@@@std@@@std@@YAXPAV?$_box3@M@@0AAU?$_Wrap_alloc@V?$doug_lea_alloc@V?$_box3@M@@@@@0@@Z 10017520 f i r2.obj
 0001:00016530       ?_Destroy@?$vector@V?$_box3@M@@V?$doug_lea_alloc@V?$_box3@M@@@@@std@@IAEXPAV?$_box3@M@@0@Z 10017530 f i r2.obj
 0001:00016540       ??0?$doug_lea_alloc@V?$_box3@M@@@@QAE@XZ 10017540 f i r2.obj
 0001:00016550       ??0?$xalloc@U_REG_INFO@@@@QAE@XZ 10017550 f i r2.obj
 0001:00016560       ??0?$_Wrap_alloc@V?$xalloc@U_REG_INFO@@@@@std@@QAE@XZ 10017560 f i r2.obj
 0001:00016570       ?_Getal@?$_Vector_alloc@$0A@U?$_Vec_base_types@U_REG_INFO@@V?$xalloc@U_REG_INFO@@@@@std@@@std@@QBE?AU?$_Wrap_alloc@V?$xalloc@U_REG_INFO@@@@@2@XZ 10017570 f i r2.obj
 0001:00016580       ??0?$_Vector_const_iterator@V?$_Vector_val@U?$_Simple_types@PAVIRender_Visual@@@std@@@std@@@std@@QAE@PAPAVIRender_Visual@@PBU_Container_base0@1@@Z 10017580 f i r2.obj
 0001:00016590       ??0?$_Vector_iterator@V?$_Vector_val@U?$_Simple_types@PAVIRender_Visual@@@std@@@std@@@std@@QAE@PAPAVIRender_Visual@@PBU_Container_base0@1@@Z 10017590 f i r2.obj
 0001:000165a0       ?begin@?$vector@PAVIRender_Visual@@V?$xalloc@PAVIRender_Visual@@@@@std@@QAE?AV?$_Vector_iterator@V?$_Vector_val@U?$_Simple_types@PAVIRender_Visual@@@std@@@std@@@2@XZ 100175a0 f i r2.obj
 0001:000165b0       ??Y?$_Vector_const_iterator@V?$_Vector_val@U?$_Simple_types@PAVIRender_Visual@@@std@@@std@@@std@@QAEAAV01@H@Z 100175b0 f i r2.obj
 0001:000165c0       ??Y?$_Vector_iterator@V?$_Vector_val@U?$_Simple_types@PAVIRender_Visual@@@std@@@std@@@std@@QAEAAV01@H@Z 100175c0 f i r2.obj
 0001:000165d0       ??H?$_Vector_iterator@V?$_Vector_val@U?$_Simple_types@PAVIRender_Visual@@@std@@@std@@@std@@QBE?AV01@H@Z 100175d0 f i r2.obj
 0001:000165f0       ??$move@AAV?$FastDelegate0@X@fastdelegate@@@std@@YA$$QAV?$FastDelegate0@X@fastdelegate@@AAV12@@Z 100175f0 f i r2.obj
 0001:00016600       ?size@?$basic_string@DU?$char_traits@D@std@@V?$xalloc@D@@@std@@QBEIXZ 10017600 f i r2.obj
 0001:00016610       ?make_string@@YA?AV?$basic_string@DU?$char_traits@D@std@@V?$allocator@D@2@@std@@PBDZZ 10017610 f i r2.obj
 0001:00016690       ??1CPSLibrary@@QAE@XZ      10017690 f i r2.obj
 0001:000166f0       ??0library_interface@particles_systems@@QAE@XZ 100176f0 f i r2.obj
 0001:00016700       ??0?$_Vector_val@U?$_Simple_types@PAVCPEDef@PS@@@std@@@std@@QAE@XZ 10017700 f i r2.obj
 0001:00016720       ??0?$_Vector_alloc@$0A@U?$_Vec_base_types@PAVCPEDef@PS@@V?$xalloc@PAVCPEDef@PS@@@@@std@@@std@@QAE@ABV?$xalloc@PAVCPEDef@PS@@@@@Z 10017720 f i r2.obj
 0001:00016740       ??0?$vector@PAVCPEDef@PS@@V?$xalloc@PAVCPEDef@PS@@@@@std@@QAE@XZ 10017740 f i r2.obj
 0001:00016760       ??0?$xr_vector@PAVCPEDef@PS@@V?$xalloc@PAVCPEDef@PS@@@@@@QAE@XZ 10017760 f i r2.obj
 0001:00016780       ?_Tidy@?$vector@PAVCPEDef@PS@@V?$xalloc@PAVCPEDef@PS@@@@@std@@IAEXXZ 10017780 f i r2.obj
 0001:000167b0       ??1?$vector@PAVCPEDef@PS@@V?$xalloc@PAVCPEDef@PS@@@@@std@@QAE@XZ 100177b0 f i r2.obj
 0001:000167e0       ??1?$xr_vector@PAVCPEDef@PS@@V?$xalloc@PAVCPEDef@PS@@@@@@QAE@XZ 100177e0 f i r2.obj
 0001:00016810       ??0?$_Vector_val@U?$_Simple_types@PAVCPGDef@PS@@@std@@@std@@QAE@XZ 10017810 f i r2.obj
 0001:00016830       ??0?$_Vector_alloc@$0A@U?$_Vec_base_types@PAVCPGDef@PS@@V?$xalloc@PAVCPGDef@PS@@@@@std@@@std@@QAE@ABV?$xalloc@PAVCPGDef@PS@@@@@Z 10017830 f i r2.obj
 0001:00016850       ??0?$vector@PAVCPGDef@PS@@V?$xalloc@PAVCPGDef@PS@@@@@std@@QAE@XZ 10017850 f i r2.obj
 0001:00016870       ??0?$xr_vector@PAVCPGDef@PS@@V?$xalloc@PAVCPGDef@PS@@@@@@QAE@XZ 10017870 f i r2.obj
 0001:00016890       ?_Tidy@?$vector@PAVCPGDef@PS@@V?$xalloc@PAVCPGDef@PS@@@@@std@@IAEXXZ 10017890 f i r2.obj
 0001:000168c0       ??1?$vector@PAVCPGDef@PS@@V?$xalloc@PAVCPGDef@PS@@@@@std@@QAE@XZ 100178c0 f i r2.obj
 0001:000168f0       ??1?$xr_vector@PAVCPGDef@PS@@V?$xalloc@PAVCPGDef@PS@@@@@@QAE@XZ 100178f0 f i r2.obj
 0001:00016920       ??0CPSLibrary@@QAE@XZ      10017920 f i r2.obj
 0001:00016960       ??1R_dsgraph_structure@@UAE@XZ 10017960 f i r2.obj
 0001:00017060       ?set_Transform@R_dsgraph_structure@@UAEXPAU?$_matrix@M@@@Z 10018060 f i r2.obj
 0001:00017070       ?set_HUD@R_dsgraph_structure@@UAEXH@Z 10018070 f i r2.obj
 0001:00017080       ?get_HUD@R_dsgraph_structure@@UAEHXZ 10018080 f i r2.obj
 0001:00017090       ?set_Invisible@R_dsgraph_structure@@UAEXH@Z 10018090 f i r2.obj
 0001:000170a0       ?memory_usage@R_dsgraph_structure@@UAEIXZ 100180a0 f i r2.obj
 0001:000170e0       ??_ER_dsgraph_structure@@UAEPAXI@Z 100180e0 f i * CIL library *:* CIL module *
 0001:000170e0       ??_GR_dsgraph_structure@@UAEPAXI@Z 100180e0 f i r2.obj
 0001:00017110       ??0?$FixedMAP@PAUIDirect3DVertexShader9@@UmapNormalPS@R_dsgraph@@Udoug_lea_allocator@@@@QAE@XZ 10018110 f i r2.obj
 0001:00017130       ??0mapNormalVS@R_dsgraph@@QAE@XZ 10018130 f i r2.obj
 0001:00017150       ??1?$FixedMAP@PAUIDirect3DVertexShader9@@UmapNormalPS@R_dsgraph@@Udoug_lea_allocator@@@@QAE@XZ 10018150 f i r2.obj
 0001:00017160       ??1mapNormalVS@R_dsgraph@@QAE@XZ 10018160 f i r2.obj
 0001:00017170       ??0?$FixedMAP@PAUIDirect3DVertexShader9@@UmapMatrixPS@R_dsgraph@@Udoug_lea_allocator@@@@QAE@XZ 10018170 f i r2.obj
 0001:00017190       ??0mapMatrixVS@R_dsgraph@@QAE@XZ 10018190 f i r2.obj
 0001:000171b0       ??1?$FixedMAP@PAUIDirect3DVertexShader9@@UmapMatrixPS@R_dsgraph@@Udoug_lea_allocator@@@@QAE@XZ 100181b0 f i r2.obj
 0001:000171c0       ??1mapMatrixVS@R_dsgraph@@QAE@XZ 100181c0 f i r2.obj
 0001:000171d0       ??0?$FixedMAP@MU_LodItem@R_dsgraph@@Udoug_lea_allocator@@@@QAE@XZ 100181d0 f i r2.obj
 0001:000171f0       ??1?$FixedMAP@MU_LodItem@R_dsgraph@@Udoug_lea_allocator@@@@QAE@XZ 100181f0 f i r2.obj
 0001:00017210       ??0?$FixedMAP@MU_MatrixItemS@R_dsgraph@@Udoug_lea_allocator@@@@QAE@XZ 10018210 f i r2.obj
 0001:00017230       ??1?$FixedMAP@MU_MatrixItemS@R_dsgraph@@Udoug_lea_allocator@@@@QAE@XZ 10018230 f i r2.obj
 0001:00017250       ??0?$_Vector_val@U?$_Simple_types@PAUTNode@?$FixedMAP@PAUIDirect3DVertexShader9@@UmapNormalPS@R_dsgraph@@Udoug_lea_allocator@@@@@std@@@std@@QAE@XZ 10018250 f i r2.obj
 0001:00017270       ??0?$_Vector_alloc@$0A@U?$_Vec_base_types@PAUTNode@?$FixedMAP@PAUIDirect3DVertexShader9@@UmapNormalPS@R_dsgraph@@Udoug_lea_allocator@@@@V?$doug_lea_alloc@PAUTNode@?$FixedMAP@PAUIDirect3DVertexShader9@@UmapNormalPS@R_dsgraph@@Udoug_lea_allocator@@@@@@@std@@@std@@QAE@ABV?$doug_lea_alloc@PAUTNode@?$FixedMAP@PAUIDirect3DVertexShader9@@UmapNormalPS@R_dsgraph@@Udoug_lea_allocator@@@@@@@Z 10018270 f i r2.obj
 0001:00017290       ??0?$vector@PAUTNode@?$FixedMAP@PAUIDirect3DVertexShader9@@UmapNormalPS@R_dsgraph@@Udoug_lea_allocator@@@@V?$doug_lea_alloc@PAUTNode@?$FixedMAP@PAUIDirect3DVertexShader9@@UmapNormalPS@R_dsgraph@@Udoug_lea_allocator@@@@@@@std@@QAE@XZ 10018290 f i r2.obj
 0001:000172b0       ??0?$xr_vector@PAUTNode@?$FixedMAP@PAUIDirect3DVertexShader9@@UmapNormalPS@R_dsgraph@@Udoug_lea_allocator@@@@V?$doug_lea_alloc@PAUTNode@?$FixedMAP@PAUIDirect3DVertexShader9@@UmapNormalPS@R_dsgraph@@Udoug_lea_allocator@@@@@@@@QAE@XZ 100182b0 f i r2.obj
 0001:000172d0       ?deallocate@?$doug_lea_alloc@PAUTNode@?$FixedMAP@PAUIDirect3DVertexShader9@@UmapNormalPS@R_dsgraph@@Udoug_lea_allocator@@@@@@QBEXPAPAUTNode@?$FixedMAP@PAUIDirect3DVertexShader9@@UmapNormalPS@R_dsgraph@@Udoug_lea_allocator@@@@I@Z 100182d0 f i r2.obj
 0001:000172e0       ?deallocate@?$_Wrap_alloc@V?$doug_lea_alloc@PAUTNode@?$FixedMAP@PAUIDirect3DVertexShader9@@UmapNormalPS@R_dsgraph@@Udoug_lea_allocator@@@@@@@std@@QAEXPAPAUTNode@?$FixedMAP@PAUIDirect3DVertexShader9@@UmapNormalPS@R_dsgraph@@Udoug_lea_allocator@@@@I@Z 100182e0 f i r2.obj
 0001:000172f0       ?_Tidy@?$vector@PAUTNode@?$FixedMAP@PAUIDirect3DVertexShader9@@UmapNormalPS@R_dsgraph@@Udoug_lea_allocator@@@@V?$doug_lea_alloc@PAUTNode@?$FixedMAP@PAUIDirect3DVertexShader9@@UmapNormalPS@R_dsgraph@@Udoug_lea_allocator@@@@@@@std@@IAEXXZ 100182f0 f i r2.obj
 0001:00017320       ??1?$vector@PAUTNode@?$FixedMAP@PAUIDirect3DVertexShader9@@UmapNormalPS@R_dsgraph@@Udoug_lea_allocator@@@@V?$doug_lea_alloc@PAUTNode@?$FixedMAP@PAUIDirect3DVertexShader9@@UmapNormalPS@R_dsgraph@@Udoug_lea_allocator@@@@@@@std@@QAE@XZ 10018320 f i r2.obj
 0001:00017350       ??1?$xr_vector@PAUTNode@?$FixedMAP@PAUIDirect3DVertexShader9@@UmapNormalPS@R_dsgraph@@Udoug_lea_allocator@@@@V?$doug_lea_alloc@PAUTNode@?$FixedMAP@PAUIDirect3DVertexShader9@@UmapNormalPS@R_dsgraph@@Udoug_lea_allocator@@@@@@@@QAE@XZ 10018350 f i r2.obj
 0001:00017380       ??0?$_Vector_val@U?$_Simple_types@PAUTNode@?$FixedMAP@PAUIDirect3DPixelShader9@@UmapNormalCS@R_dsgraph@@Udoug_lea_allocator@@@@@std@@@std@@QAE@XZ 10018380 f i r2.obj
 0001:000173a0       ??0?$_Vector_alloc@$0A@U?$_Vec_base_types@PAUTNode@?$FixedMAP@PAUIDirect3DPixelShader9@@UmapNormalCS@R_dsgraph@@Udoug_lea_allocator@@@@V?$doug_lea_alloc@PAUTNode@?$FixedMAP@PAUIDirect3DPixelShader9@@UmapNormalCS@R_dsgraph@@Udoug_lea_allocator@@@@@@@std@@@std@@QAE@ABV?$doug_lea_alloc@PAUTNode@?$FixedMAP@PAUIDirect3DPixelShader9@@UmapNormalCS@R_dsgraph@@Udoug_lea_allocator@@@@@@@Z 100183a0 f i r2.obj
 0001:000173c0       ??0?$vector@PAUTNode@?$FixedMAP@PAUIDirect3DPixelShader9@@UmapNormalCS@R_dsgraph@@Udoug_lea_allocator@@@@V?$doug_lea_alloc@PAUTNode@?$FixedMAP@PAUIDirect3DPixelShader9@@UmapNormalCS@R_dsgraph@@Udoug_lea_allocator@@@@@@@std@@QAE@XZ 100183c0 f i r2.obj
 0001:000173e0       ??0?$xr_vector@PAUTNode@?$FixedMAP@PAUIDirect3DPixelShader9@@UmapNormalCS@R_dsgraph@@Udoug_lea_allocator@@@@V?$doug_lea_alloc@PAUTNode@?$FixedMAP@PAUIDirect3DPixelShader9@@UmapNormalCS@R_dsgraph@@Udoug_lea_allocator@@@@@@@@QAE@XZ 100183e0 f i r2.obj
 0001:00017400       ?deallocate@?$doug_lea_alloc@PAUTNode@?$FixedMAP@PAUIDirect3DPixelShader9@@UmapNormalCS@R_dsgraph@@Udoug_lea_allocator@@@@@@QBEXPAPAUTNode@?$FixedMAP@PAUIDirect3DPixelShader9@@UmapNormalCS@R_dsgraph@@Udoug_lea_allocator@@@@I@Z 10018400 f i r2.obj
 0001:00017410       ?deallocate@?$_Wrap_alloc@V?$doug_lea_alloc@PAUTNode@?$FixedMAP@PAUIDirect3DPixelShader9@@UmapNormalCS@R_dsgraph@@Udoug_lea_allocator@@@@@@@std@@QAEXPAPAUTNode@?$FixedMAP@PAUIDirect3DPixelShader9@@UmapNormalCS@R_dsgraph@@Udoug_lea_allocator@@@@I@Z 10018410 f i r2.obj
 0001:00017420       ?_Tidy@?$vector@PAUTNode@?$FixedMAP@PAUIDirect3DPixelShader9@@UmapNormalCS@R_dsgraph@@Udoug_lea_allocator@@@@V?$doug_lea_alloc@PAUTNode@?$FixedMAP@PAUIDirect3DPixelShader9@@UmapNormalCS@R_dsgraph@@Udoug_lea_allocator@@@@@@@std@@IAEXXZ 10018420 f i r2.obj
 0001:00017450       ??1?$vector@PAUTNode@?$FixedMAP@PAUIDirect3DPixelShader9@@UmapNormalCS@R_dsgraph@@Udoug_lea_allocator@@@@V?$doug_lea_alloc@PAUTNode@?$FixedMAP@PAUIDirect3DPixelShader9@@UmapNormalCS@R_dsgraph@@Udoug_lea_allocator@@@@@@@std@@QAE@XZ 10018450 f i r2.obj
 0001:00017480       ??1?$xr_vector@PAUTNode@?$FixedMAP@PAUIDirect3DPixelShader9@@UmapNormalCS@R_dsgraph@@Udoug_lea_allocator@@@@V?$doug_lea_alloc@PAUTNode@?$FixedMAP@PAUIDirect3DPixelShader9@@UmapNormalCS@R_dsgraph@@Udoug_lea_allocator@@@@@@@@QAE@XZ 10018480 f i r2.obj
 0001:000174b0       ??0?$_Vector_val@U?$_Simple_types@PAUTNode@?$FixedMAP@PAVR_constant_table@@UmapNormalStates@R_dsgraph@@Udoug_lea_allocator@@@@@std@@@std@@QAE@XZ 100184b0 f i r2.obj
 0001:000174d0       ??0?$_Vector_alloc@$0A@U?$_Vec_base_types@PAUTNode@?$FixedMAP@PAVR_constant_table@@UmapNormalStates@R_dsgraph@@Udoug_lea_allocator@@@@V?$doug_lea_alloc@PAUTNode@?$FixedMAP@PAVR_constant_table@@UmapNormalStates@R_dsgraph@@Udoug_lea_allocator@@@@@@@std@@@std@@QAE@ABV?$doug_lea_alloc@PAUTNode@?$FixedMAP@PAVR_constant_table@@UmapNormalStates@R_dsgraph@@Udoug_lea_allocator@@@@@@@Z 100184d0 f i r2.obj
 0001:000174f0       ??0?$vector@PAUTNode@?$FixedMAP@PAVR_constant_table@@UmapNormalStates@R_dsgraph@@Udoug_lea_allocator@@@@V?$doug_lea_alloc@PAUTNode@?$FixedMAP@PAVR_constant_table@@UmapNormalStates@R_dsgraph@@Udoug_lea_allocator@@@@@@@std@@QAE@XZ 100184f0 f i r2.obj
 0001:00017510       ??0?$xr_vector@PAUTNode@?$FixedMAP@PAVR_constant_table@@UmapNormalStates@R_dsgraph@@Udoug_lea_allocator@@@@V?$doug_lea_alloc@PAUTNode@?$FixedMAP@PAVR_constant_table@@UmapNormalStates@R_dsgraph@@Udoug_lea_allocator@@@@@@@@QAE@XZ 10018510 f i r2.obj
 0001:00017530       ?deallocate@?$doug_lea_alloc@PAUTNode@?$FixedMAP@PAVR_constant_table@@UmapNormalStates@R_dsgraph@@Udoug_lea_allocator@@@@@@QBEXPAPAUTNode@?$FixedMAP@PAVR_constant_table@@UmapNormalStates@R_dsgraph@@Udoug_lea_allocator@@@@I@Z 10018530 f i r2.obj
 0001:00017540       ?deallocate@?$_Wrap_alloc@V?$doug_lea_alloc@PAUTNode@?$FixedMAP@PAVR_constant_table@@UmapNormalStates@R_dsgraph@@Udoug_lea_allocator@@@@@@@std@@QAEXPAPAUTNode@?$FixedMAP@PAVR_constant_table@@UmapNormalStates@R_dsgraph@@Udoug_lea_allocator@@@@I@Z 10018540 f i r2.obj
 0001:00017550       ?_Tidy@?$vector@PAUTNode@?$FixedMAP@PAVR_constant_table@@UmapNormalStates@R_dsgraph@@Udoug_lea_allocator@@@@V?$doug_lea_alloc@PAUTNode@?$FixedMAP@PAVR_constant_table@@UmapNormalStates@R_dsgraph@@Udoug_lea_allocator@@@@@@@std@@IAEXXZ 10018550 f i r2.obj
 0001:00017580       ??1?$vector@PAUTNode@?$FixedMAP@PAVR_constant_table@@UmapNormalStates@R_dsgraph@@Udoug_lea_allocator@@@@V?$doug_lea_alloc@PAUTNode@?$FixedMAP@PAVR_constant_table@@UmapNormalStates@R_dsgraph@@Udoug_lea_allocator@@@@@@@std@@QAE@XZ 10018580 f i r2.obj
 0001:000175b0       ??1?$xr_vector@PAUTNode@?$FixedMAP@PAVR_constant_table@@UmapNormalStates@R_dsgraph@@Udoug_lea_allocator@@@@V?$doug_lea_alloc@PAUTNode@?$FixedMAP@PAVR_constant_table@@UmapNormalStates@R_dsgraph@@Udoug_lea_allocator@@@@@@@@QAE@XZ 100185b0 f i r2.obj
 0001:000175e0       ??0?$_Vector_val@U?$_Simple_types@PAUTNode@?$FixedMAP@PAUIDirect3DStateBlock9@@UmapNormalTextures@R_dsgraph@@Udoug_lea_allocator@@@@@std@@@std@@QAE@XZ 100185e0 f i r2.obj
 0001:00017600       ??0?$_Vector_alloc@$0A@U?$_Vec_base_types@PAUTNode@?$FixedMAP@PAUIDirect3DStateBlock9@@UmapNormalTextures@R_dsgraph@@Udoug_lea_allocator@@@@V?$doug_lea_alloc@PAUTNode@?$FixedMAP@PAUIDirect3DStateBlock9@@UmapNormalTextures@R_dsgraph@@Udoug_lea_allocator@@@@@@@std@@@std@@QAE@ABV?$doug_lea_alloc@PAUTNode@?$FixedMAP@PAUIDirect3DStateBlock9@@UmapNormalTextures@R_dsgraph@@Udoug_lea_allocator@@@@@@@Z 10018600 f i r2.obj
 0001:00017620       ??0?$vector@PAUTNode@?$FixedMAP@PAUIDirect3DStateBlock9@@UmapNormalTextures@R_dsgraph@@Udoug_lea_allocator@@@@V?$doug_lea_alloc@PAUTNode@?$FixedMAP@PAUIDirect3DStateBlock9@@UmapNormalTextures@R_dsgraph@@Udoug_lea_allocator@@@@@@@std@@QAE@XZ 10018620 f i r2.obj
 0001:00017640       ??0?$xr_vector@PAUTNode@?$FixedMAP@PAUIDirect3DStateBlock9@@UmapNormalTextures@R_dsgraph@@Udoug_lea_allocator@@@@V?$doug_lea_alloc@PAUTNode@?$FixedMAP@PAUIDirect3DStateBlock9@@UmapNormalTextures@R_dsgraph@@Udoug_lea_allocator@@@@@@@@QAE@XZ 10018640 f i r2.obj
 0001:00017660       ?deallocate@?$doug_lea_alloc@PAUTNode@?$FixedMAP@PAUIDirect3DStateBlock9@@UmapNormalTextures@R_dsgraph@@Udoug_lea_allocator@@@@@@QBEXPAPAUTNode@?$FixedMAP@PAUIDirect3DStateBlock9@@UmapNormalTextures@R_dsgraph@@Udoug_lea_allocator@@@@I@Z 10018660 f i r2.obj
 0001:00017670       ?deallocate@?$_Wrap_alloc@V?$doug_lea_alloc@PAUTNode@?$FixedMAP@PAUIDirect3DStateBlock9@@UmapNormalTextures@R_dsgraph@@Udoug_lea_allocator@@@@@@@std@@QAEXPAPAUTNode@?$FixedMAP@PAUIDirect3DStateBlock9@@UmapNormalTextures@R_dsgraph@@Udoug_lea_allocator@@@@I@Z 10018670 f i r2.obj
 0001:00017680       ?_Tidy@?$vector@PAUTNode@?$FixedMAP@PAUIDirect3DStateBlock9@@UmapNormalTextures@R_dsgraph@@Udoug_lea_allocator@@@@V?$doug_lea_alloc@PAUTNode@?$FixedMAP@PAUIDirect3DStateBlock9@@UmapNormalTextures@R_dsgraph@@Udoug_lea_allocator@@@@@@@std@@IAEXXZ 10018680 f i r2.obj
 0001:000176b0       ??1?$vector@PAUTNode@?$FixedMAP@PAUIDirect3DStateBlock9@@UmapNormalTextures@R_dsgraph@@Udoug_lea_allocator@@@@V?$doug_lea_alloc@PAUTNode@?$FixedMAP@PAUIDirect3DStateBlock9@@UmapNormalTextures@R_dsgraph@@Udoug_lea_allocator@@@@@@@std@@QAE@XZ 100186b0 f i r2.obj
 0001:000176e0       ??1?$xr_vector@PAUTNode@?$FixedMAP@PAUIDirect3DStateBlock9@@UmapNormalTextures@R_dsgraph@@Udoug_lea_allocator@@@@V?$doug_lea_alloc@PAUTNode@?$FixedMAP@PAUIDirect3DStateBlock9@@UmapNormalTextures@R_dsgraph@@Udoug_lea_allocator@@@@@@@@QAE@XZ 100186e0 f i r2.obj
 0001:00017710       ??0?$_Vector_val@U?$_Simple_types@PAUTNode@?$FixedMAP@PAUSTextureList@@UmapNormalItems@R_dsgraph@@Udoug_lea_allocator@@@@@std@@@std@@QAE@XZ 10018710 f i r2.obj
 0001:00017730       ??0?$_Vector_alloc@$0A@U?$_Vec_base_types@PAUTNode@?$FixedMAP@PAUSTextureList@@UmapNormalItems@R_dsgraph@@Udoug_lea_allocator@@@@V?$doug_lea_alloc@PAUTNode@?$FixedMAP@PAUSTextureList@@UmapNormalItems@R_dsgraph@@Udoug_lea_allocator@@@@@@@std@@@std@@QAE@ABV?$doug_lea_alloc@PAUTNode@?$FixedMAP@PAUSTextureList@@UmapNormalItems@R_dsgraph@@Udoug_lea_allocator@@@@@@@Z 10018730 f i r2.obj
 0001:00017750       ??0?$vector@PAUTNode@?$FixedMAP@PAUSTextureList@@UmapNormalItems@R_dsgraph@@Udoug_lea_allocator@@@@V?$doug_lea_alloc@PAUTNode@?$FixedMAP@PAUSTextureList@@UmapNormalItems@R_dsgraph@@Udoug_lea_allocator@@@@@@@std@@QAE@XZ 10018750 f i r2.obj
 0001:00017770       ??0?$xr_vector@PAUTNode@?$FixedMAP@PAUSTextureList@@UmapNormalItems@R_dsgraph@@Udoug_lea_allocator@@@@V?$doug_lea_alloc@PAUTNode@?$FixedMAP@PAUSTextureList@@UmapNormalItems@R_dsgraph@@Udoug_lea_allocator@@@@@@@@QAE@XZ 10018770 f i r2.obj
 0001:00017790       ?deallocate@?$doug_lea_alloc@PAUTNode@?$FixedMAP@PAUSTextureList@@UmapNormalItems@R_dsgraph@@Udoug_lea_allocator@@@@@@QBEXPAPAUTNode@?$FixedMAP@PAUSTextureList@@UmapNormalItems@R_dsgraph@@Udoug_lea_allocator@@@@I@Z 10018790 f i r2.obj
 0001:000177a0       ?deallocate@?$_Wrap_alloc@V?$doug_lea_alloc@PAUTNode@?$FixedMAP@PAUSTextureList@@UmapNormalItems@R_dsgraph@@Udoug_lea_allocator@@@@@@@std@@QAEXPAPAUTNode@?$FixedMAP@PAUSTextureList@@UmapNormalItems@R_dsgraph@@Udoug_lea_allocator@@@@I@Z 100187a0 f i r2.obj
 0001:000177b0       ?_Tidy@?$vector@PAUTNode@?$FixedMAP@PAUSTextureList@@UmapNormalItems@R_dsgraph@@Udoug_lea_allocator@@@@V?$doug_lea_alloc@PAUTNode@?$FixedMAP@PAUSTextureList@@UmapNormalItems@R_dsgraph@@Udoug_lea_allocator@@@@@@@std@@IAEXXZ 100187b0 f i r2.obj
 0001:000177e0       ??1?$vector@PAUTNode@?$FixedMAP@PAUSTextureList@@UmapNormalItems@R_dsgraph@@Udoug_lea_allocator@@@@V?$doug_lea_alloc@PAUTNode@?$FixedMAP@PAUSTextureList@@UmapNormalItems@R_dsgraph@@Udoug_lea_allocator@@@@@@@std@@QAE@XZ 100187e0 f i r2.obj
 0001:00017810       ??1?$xr_vector@PAUTNode@?$FixedMAP@PAUSTextureList@@UmapNormalItems@R_dsgraph@@Udoug_lea_allocator@@@@V?$doug_lea_alloc@PAUTNode@?$FixedMAP@PAUSTextureList@@UmapNormalItems@R_dsgraph@@Udoug_lea_allocator@@@@@@@@QAE@XZ 10018810 f i r2.obj
 0001:00017840       ??0?$_Vector_val@U?$_Simple_types@PAUTNode@?$FixedMAP@PAUIDirect3DVertexShader9@@UmapMatrixPS@R_dsgraph@@Udoug_lea_allocator@@@@@std@@@std@@QAE@XZ 10018840 f i r2.obj
 0001:00017860       ??0?$_Vector_alloc@$0A@U?$_Vec_base_types@PAUTNode@?$FixedMAP@PAUIDirect3DVertexShader9@@UmapMatrixPS@R_dsgraph@@Udoug_lea_allocator@@@@V?$doug_lea_alloc@PAUTNode@?$FixedMAP@PAUIDirect3DVertexShader9@@UmapMatrixPS@R_dsgraph@@Udoug_lea_allocator@@@@@@@std@@@std@@QAE@ABV?$doug_lea_alloc@PAUTNode@?$FixedMAP@PAUIDirect3DVertexShader9@@UmapMatrixPS@R_dsgraph@@Udoug_lea_allocator@@@@@@@Z 10018860 f i r2.obj
 0001:00017880       ??0?$vector@PAUTNode@?$FixedMAP@PAUIDirect3DVertexShader9@@UmapMatrixPS@R_dsgraph@@Udoug_lea_allocator@@@@V?$doug_lea_alloc@PAUTNode@?$FixedMAP@PAUIDirect3DVertexShader9@@UmapMatrixPS@R_dsgraph@@Udoug_lea_allocator@@@@@@@std@@QAE@XZ 10018880 f i r2.obj
 0001:000178a0       ??0?$xr_vector@PAUTNode@?$FixedMAP@PAUIDirect3DVertexShader9@@UmapMatrixPS@R_dsgraph@@Udoug_lea_allocator@@@@V?$doug_lea_alloc@PAUTNode@?$FixedMAP@PAUIDirect3DVertexShader9@@UmapMatrixPS@R_dsgraph@@Udoug_lea_allocator@@@@@@@@QAE@XZ 100188a0 f i r2.obj
 0001:000178c0       ?deallocate@?$doug_lea_alloc@PAUTNode@?$FixedMAP@PAUIDirect3DVertexShader9@@UmapMatrixPS@R_dsgraph@@Udoug_lea_allocator@@@@@@QBEXPAPAUTNode@?$FixedMAP@PAUIDirect3DVertexShader9@@UmapMatrixPS@R_dsgraph@@Udoug_lea_allocator@@@@I@Z 100188c0 f i r2.obj
 0001:000178d0       ?deallocate@?$_Wrap_alloc@V?$doug_lea_alloc@PAUTNode@?$FixedMAP@PAUIDirect3DVertexShader9@@UmapMatrixPS@R_dsgraph@@Udoug_lea_allocator@@@@@@@std@@QAEXPAPAUTNode@?$FixedMAP@PAUIDirect3DVertexShader9@@UmapMatrixPS@R_dsgraph@@Udoug_lea_allocator@@@@I@Z 100188d0 f i r2.obj
 0001:000178e0       ?_Tidy@?$vector@PAUTNode@?$FixedMAP@PAUIDirect3DVertexShader9@@UmapMatrixPS@R_dsgraph@@Udoug_lea_allocator@@@@V?$doug_lea_alloc@PAUTNode@?$FixedMAP@PAUIDirect3DVertexShader9@@UmapMatrixPS@R_dsgraph@@Udoug_lea_allocator@@@@@@@std@@IAEXXZ 100188e0 f i r2.obj
 0001:00017910       ??1?$vector@PAUTNode@?$FixedMAP@PAUIDirect3DVertexShader9@@UmapMatrixPS@R_dsgraph@@Udoug_lea_allocator@@@@V?$doug_lea_alloc@PAUTNode@?$FixedMAP@PAUIDirect3DVertexShader9@@UmapMatrixPS@R_dsgraph@@Udoug_lea_allocator@@@@@@@std@@QAE@XZ 10018910 f i r2.obj
 0001:00017940       ??1?$xr_vector@PAUTNode@?$FixedMAP@PAUIDirect3DVertexShader9@@UmapMatrixPS@R_dsgraph@@Udoug_lea_allocator@@@@V?$doug_lea_alloc@PAUTNode@?$FixedMAP@PAUIDirect3DVertexShader9@@UmapMatrixPS@R_dsgraph@@Udoug_lea_allocator@@@@@@@@QAE@XZ 10018940 f i r2.obj
 0001:00017970       ??0?$_Vector_val@U?$_Simple_types@PAUTNode@?$FixedMAP@PAUIDirect3DPixelShader9@@UmapMatrixCS@R_dsgraph@@Udoug_lea_allocator@@@@@std@@@std@@QAE@XZ 10018970 f i r2.obj
 0001:00017990       ??0?$_Vector_alloc@$0A@U?$_Vec_base_types@PAUTNode@?$FixedMAP@PAUIDirect3DPixelShader9@@UmapMatrixCS@R_dsgraph@@Udoug_lea_allocator@@@@V?$doug_lea_alloc@PAUTNode@?$FixedMAP@PAUIDirect3DPixelShader9@@UmapMatrixCS@R_dsgraph@@Udoug_lea_allocator@@@@@@@std@@@std@@QAE@ABV?$doug_lea_alloc@PAUTNode@?$FixedMAP@PAUIDirect3DPixelShader9@@UmapMatrixCS@R_dsgraph@@Udoug_lea_allocator@@@@@@@Z 10018990 f i r2.obj
 0001:000179b0       ??0?$vector@PAUTNode@?$FixedMAP@PAUIDirect3DPixelShader9@@UmapMatrixCS@R_dsgraph@@Udoug_lea_allocator@@@@V?$doug_lea_alloc@PAUTNode@?$FixedMAP@PAUIDirect3DPixelShader9@@UmapMatrixCS@R_dsgraph@@Udoug_lea_allocator@@@@@@@std@@QAE@XZ 100189b0 f i r2.obj
 0001:000179d0       ??0?$xr_vector@PAUTNode@?$FixedMAP@PAUIDirect3DPixelShader9@@UmapMatrixCS@R_dsgraph@@Udoug_lea_allocator@@@@V?$doug_lea_alloc@PAUTNode@?$FixedMAP@PAUIDirect3DPixelShader9@@UmapMatrixCS@R_dsgraph@@Udoug_lea_allocator@@@@@@@@QAE@XZ 100189d0 f i r2.obj
 0001:000179f0       ?deallocate@?$doug_lea_alloc@PAUTNode@?$FixedMAP@PAUIDirect3DPixelShader9@@UmapMatrixCS@R_dsgraph@@Udoug_lea_allocator@@@@@@QBEXPAPAUTNode@?$FixedMAP@PAUIDirect3DPixelShader9@@UmapMatrixCS@R_dsgraph@@Udoug_lea_allocator@@@@I@Z 100189f0 f i r2.obj
 0001:00017a00       ?deallocate@?$_Wrap_alloc@V?$doug_lea_alloc@PAUTNode@?$FixedMAP@PAUIDirect3DPixelShader9@@UmapMatrixCS@R_dsgraph@@Udoug_lea_allocator@@@@@@@std@@QAEXPAPAUTNode@?$FixedMAP@PAUIDirect3DPixelShader9@@UmapMatrixCS@R_dsgraph@@Udoug_lea_allocator@@@@I@Z 10018a00 f i r2.obj
 0001:00017a10       ?_Tidy@?$vector@PAUTNode@?$FixedMAP@PAUIDirect3DPixelShader9@@UmapMatrixCS@R_dsgraph@@Udoug_lea_allocator@@@@V?$doug_lea_alloc@PAUTNode@?$FixedMAP@PAUIDirect3DPixelShader9@@UmapMatrixCS@R_dsgraph@@Udoug_lea_allocator@@@@@@@std@@IAEXXZ 10018a10 f i r2.obj
 0001:00017a40       ??1?$vector@PAUTNode@?$FixedMAP@PAUIDirect3DPixelShader9@@UmapMatrixCS@R_dsgraph@@Udoug_lea_allocator@@@@V?$doug_lea_alloc@PAUTNode@?$FixedMAP@PAUIDirect3DPixelShader9@@UmapMatrixCS@R_dsgraph@@Udoug_lea_allocator@@@@@@@std@@QAE@XZ 10018a40 f i r2.obj
 0001:00017a70       ??1?$xr_vector@PAUTNode@?$FixedMAP@PAUIDirect3DPixelShader9@@UmapMatrixCS@R_dsgraph@@Udoug_lea_allocator@@@@V?$doug_lea_alloc@PAUTNode@?$FixedMAP@PAUIDirect3DPixelShader9@@UmapMatrixCS@R_dsgraph@@Udoug_lea_allocator@@@@@@@@QAE@XZ 10018a70 f i r2.obj
 0001:00017aa0       ??0?$_Vector_val@U?$_Simple_types@PAUTNode@?$FixedMAP@PAVR_constant_table@@UmapMatrixStates@R_dsgraph@@Udoug_lea_allocator@@@@@std@@@std@@QAE@XZ 10018aa0 f i r2.obj
 0001:00017ac0       ??0?$_Vector_alloc@$0A@U?$_Vec_base_types@PAUTNode@?$FixedMAP@PAVR_constant_table@@UmapMatrixStates@R_dsgraph@@Udoug_lea_allocator@@@@V?$doug_lea_alloc@PAUTNode@?$FixedMAP@PAVR_constant_table@@UmapMatrixStates@R_dsgraph@@Udoug_lea_allocator@@@@@@@std@@@std@@QAE@ABV?$doug_lea_alloc@PAUTNode@?$FixedMAP@PAVR_constant_table@@UmapMatrixStates@R_dsgraph@@Udoug_lea_allocator@@@@@@@Z 10018ac0 f i r2.obj
 0001:00017ae0       ??0?$vector@PAUTNode@?$FixedMAP@PAVR_constant_table@@UmapMatrixStates@R_dsgraph@@Udoug_lea_allocator@@@@V?$doug_lea_alloc@PAUTNode@?$FixedMAP@PAVR_constant_table@@UmapMatrixStates@R_dsgraph@@Udoug_lea_allocator@@@@@@@std@@QAE@XZ 10018ae0 f i r2.obj
 0001:00017b00       ??0?$xr_vector@PAUTNode@?$FixedMAP@PAVR_constant_table@@UmapMatrixStates@R_dsgraph@@Udoug_lea_allocator@@@@V?$doug_lea_alloc@PAUTNode@?$FixedMAP@PAVR_constant_table@@UmapMatrixStates@R_dsgraph@@Udoug_lea_allocator@@@@@@@@QAE@XZ 10018b00 f i r2.obj
 0001:00017b20       ?deallocate@?$doug_lea_alloc@PAUTNode@?$FixedMAP@PAVR_constant_table@@UmapMatrixStates@R_dsgraph@@Udoug_lea_allocator@@@@@@QBEXPAPAUTNode@?$FixedMAP@PAVR_constant_table@@UmapMatrixStates@R_dsgraph@@Udoug_lea_allocator@@@@I@Z 10018b20 f i r2.obj
 0001:00017b30       ?deallocate@?$_Wrap_alloc@V?$doug_lea_alloc@PAUTNode@?$FixedMAP@PAVR_constant_table@@UmapMatrixStates@R_dsgraph@@Udoug_lea_allocator@@@@@@@std@@QAEXPAPAUTNode@?$FixedMAP@PAVR_constant_table@@UmapMatrixStates@R_dsgraph@@Udoug_lea_allocator@@@@I@Z 10018b30 f i r2.obj
 0001:00017b40       ?_Tidy@?$vector@PAUTNode@?$FixedMAP@PAVR_constant_table@@UmapMatrixStates@R_dsgraph@@Udoug_lea_allocator@@@@V?$doug_lea_alloc@PAUTNode@?$FixedMAP@PAVR_constant_table@@UmapMatrixStates@R_dsgraph@@Udoug_lea_allocator@@@@@@@std@@IAEXXZ 10018b40 f i r2.obj
 0001:00017b70       ??1?$vector@PAUTNode@?$FixedMAP@PAVR_constant_table@@UmapMatrixStates@R_dsgraph@@Udoug_lea_allocator@@@@V?$doug_lea_alloc@PAUTNode@?$FixedMAP@PAVR_constant_table@@UmapMatrixStates@R_dsgraph@@Udoug_lea_allocator@@@@@@@std@@QAE@XZ 10018b70 f i r2.obj
 0001:00017ba0       ??1?$xr_vector@PAUTNode@?$FixedMAP@PAVR_constant_table@@UmapMatrixStates@R_dsgraph@@Udoug_lea_allocator@@@@V?$doug_lea_alloc@PAUTNode@?$FixedMAP@PAVR_constant_table@@UmapMatrixStates@R_dsgraph@@Udoug_lea_allocator@@@@@@@@QAE@XZ 10018ba0 f i r2.obj
 0001:00017bd0       ??0?$_Vector_val@U?$_Simple_types@PAUTNode@?$FixedMAP@PAUIDirect3DStateBlock9@@UmapMatrixTextures@R_dsgraph@@Udoug_lea_allocator@@@@@std@@@std@@QAE@XZ 10018bd0 f i r2.obj
 0001:00017bf0       ??0?$_Vector_alloc@$0A@U?$_Vec_base_types@PAUTNode@?$FixedMAP@PAUIDirect3DStateBlock9@@UmapMatrixTextures@R_dsgraph@@Udoug_lea_allocator@@@@V?$doug_lea_alloc@PAUTNode@?$FixedMAP@PAUIDirect3DStateBlock9@@UmapMatrixTextures@R_dsgraph@@Udoug_lea_allocator@@@@@@@std@@@std@@QAE@ABV?$doug_lea_alloc@PAUTNode@?$FixedMAP@PAUIDirect3DStateBlock9@@UmapMatrixTextures@R_dsgraph@@Udoug_lea_allocator@@@@@@@Z 10018bf0 f i r2.obj
 0001:00017c10       ??0?$vector@PAUTNode@?$FixedMAP@PAUIDirect3DStateBlock9@@UmapMatrixTextures@R_dsgraph@@Udoug_lea_allocator@@@@V?$doug_lea_alloc@PAUTNode@?$FixedMAP@PAUIDirect3DStateBlock9@@UmapMatrixTextures@R_dsgraph@@Udoug_lea_allocator@@@@@@@std@@QAE@XZ 10018c10 f i r2.obj
 0001:00017c30       ??0?$xr_vector@PAUTNode@?$FixedMAP@PAUIDirect3DStateBlock9@@UmapMatrixTextures@R_dsgraph@@Udoug_lea_allocator@@@@V?$doug_lea_alloc@PAUTNode@?$FixedMAP@PAUIDirect3DStateBlock9@@UmapMatrixTextures@R_dsgraph@@Udoug_lea_allocator@@@@@@@@QAE@XZ 10018c30 f i r2.obj
 0001:00017c50       ?deallocate@?$doug_lea_alloc@PAUTNode@?$FixedMAP@PAUIDirect3DStateBlock9@@UmapMatrixTextures@R_dsgraph@@Udoug_lea_allocator@@@@@@QBEXPAPAUTNode@?$FixedMAP@PAUIDirect3DStateBlock9@@UmapMatrixTextures@R_dsgraph@@Udoug_lea_allocator@@@@I@Z 10018c50 f i r2.obj
 0001:00017c60       ?deallocate@?$_Wrap_alloc@V?$doug_lea_alloc@PAUTNode@?$FixedMAP@PAUIDirect3DStateBlock9@@UmapMatrixTextures@R_dsgraph@@Udoug_lea_allocator@@@@@@@std@@QAEXPAPAUTNode@?$FixedMAP@PAUIDirect3DStateBlock9@@UmapMatrixTextures@R_dsgraph@@Udoug_lea_allocator@@@@I@Z 10018c60 f i r2.obj
 0001:00017c70       ?_Tidy@?$vector@PAUTNode@?$FixedMAP@PAUIDirect3DStateBlock9@@UmapMatrixTextures@R_dsgraph@@Udoug_lea_allocator@@@@V?$doug_lea_alloc@PAUTNode@?$FixedMAP@PAUIDirect3DStateBlock9@@UmapMatrixTextures@R_dsgraph@@Udoug_lea_allocator@@@@@@@std@@IAEXXZ 10018c70 f i r2.obj
 0001:00017ca0       ??1?$vector@PAUTNode@?$FixedMAP@PAUIDirect3DStateBlock9@@UmapMatrixTextures@R_dsgraph@@Udoug_lea_allocator@@@@V?$doug_lea_alloc@PAUTNode@?$FixedMAP@PAUIDirect3DStateBlock9@@UmapMatrixTextures@R_dsgraph@@Udoug_lea_allocator@@@@@@@std@@QAE@XZ 10018ca0 f i r2.obj
 0001:00017cd0       ??1?$xr_vector@PAUTNode@?$FixedMAP@PAUIDirect3DStateBlock9@@UmapMatrixTextures@R_dsgraph@@Udoug_lea_allocator@@@@V?$doug_lea_alloc@PAUTNode@?$FixedMAP@PAUIDirect3DStateBlock9@@UmapMatrixTextures@R_dsgraph@@Udoug_lea_allocator@@@@@@@@QAE@XZ 10018cd0 f i r2.obj
 0001:00017d00       ??0?$_Vector_val@U?$_Simple_types@PAUTNode@?$FixedMAP@PAUSTextureList@@UmapMatrixItems@R_dsgraph@@Udoug_lea_allocator@@@@@std@@@std@@QAE@XZ 10018d00 f i r2.obj
 0001:00017d20       ??0?$_Vector_alloc@$0A@U?$_Vec_base_types@PAUTNode@?$FixedMAP@PAUSTextureList@@UmapMatrixItems@R_dsgraph@@Udoug_lea_allocator@@@@V?$doug_lea_alloc@PAUTNode@?$FixedMAP@PAUSTextureList@@UmapMatrixItems@R_dsgraph@@Udoug_lea_allocator@@@@@@@std@@@std@@QAE@ABV?$doug_lea_alloc@PAUTNode@?$FixedMAP@PAUSTextureList@@UmapMatrixItems@R_dsgraph@@Udoug_lea_allocator@@@@@@@Z 10018d20 f i r2.obj
 0001:00017d40       ??0?$vector@PAUTNode@?$FixedMAP@PAUSTextureList@@UmapMatrixItems@R_dsgraph@@Udoug_lea_allocator@@@@V?$doug_lea_alloc@PAUTNode@?$FixedMAP@PAUSTextureList@@UmapMatrixItems@R_dsgraph@@Udoug_lea_allocator@@@@@@@std@@QAE@XZ 10018d40 f i r2.obj
 0001:00017d60       ??0?$xr_vector@PAUTNode@?$FixedMAP@PAUSTextureList@@UmapMatrixItems@R_dsgraph@@Udoug_lea_allocator@@@@V?$doug_lea_alloc@PAUTNode@?$FixedMAP@PAUSTextureList@@UmapMatrixItems@R_dsgraph@@Udoug_lea_allocator@@@@@@@@QAE@XZ 10018d60 f i r2.obj
 0001:00017d80       ?deallocate@?$doug_lea_alloc@PAUTNode@?$FixedMAP@PAUSTextureList@@UmapMatrixItems@R_dsgraph@@Udoug_lea_allocator@@@@@@QBEXPAPAUTNode@?$FixedMAP@PAUSTextureList@@UmapMatrixItems@R_dsgraph@@Udoug_lea_allocator@@@@I@Z 10018d80 f i r2.obj
 0001:00017d90       ?deallocate@?$_Wrap_alloc@V?$doug_lea_alloc@PAUTNode@?$FixedMAP@PAUSTextureList@@UmapMatrixItems@R_dsgraph@@Udoug_lea_allocator@@@@@@@std@@QAEXPAPAUTNode@?$FixedMAP@PAUSTextureList@@UmapMatrixItems@R_dsgraph@@Udoug_lea_allocator@@@@I@Z 10018d90 f i r2.obj
 0001:00017da0       ?_Tidy@?$vector@PAUTNode@?$FixedMAP@PAUSTextureList@@UmapMatrixItems@R_dsgraph@@Udoug_lea_allocator@@@@V?$doug_lea_alloc@PAUTNode@?$FixedMAP@PAUSTextureList@@UmapMatrixItems@R_dsgraph@@Udoug_lea_allocator@@@@@@@std@@IAEXXZ 10018da0 f i r2.obj
 0001:00017dd0       ??1?$vector@PAUTNode@?$FixedMAP@PAUSTextureList@@UmapMatrixItems@R_dsgraph@@Udoug_lea_allocator@@@@V?$doug_lea_alloc@PAUTNode@?$FixedMAP@PAUSTextureList@@UmapMatrixItems@R_dsgraph@@Udoug_lea_allocator@@@@@@@std@@QAE@XZ 10018dd0 f i r2.obj
 0001:00017e00       ??1?$xr_vector@PAUTNode@?$FixedMAP@PAUSTextureList@@UmapMatrixItems@R_dsgraph@@Udoug_lea_allocator@@@@V?$doug_lea_alloc@PAUTNode@?$FixedMAP@PAUSTextureList@@UmapMatrixItems@R_dsgraph@@Udoug_lea_allocator@@@@@@@@QAE@XZ 10018e00 f i r2.obj
 0001:00017e30       ??0?$_Vector_val@U?$_Simple_types@U_LodItem@R_dsgraph@@@std@@@std@@QAE@XZ 10018e30 f i r2.obj
 0001:00017e50       ??0?$_Vector_alloc@$0A@U?$_Vec_base_types@U_LodItem@R_dsgraph@@V?$doug_lea_alloc@U_LodItem@R_dsgraph@@@@@std@@@std@@QAE@ABV?$doug_lea_alloc@U_LodItem@R_dsgraph@@@@@Z 10018e50 f i r2.obj
 0001:00017e70       ??0?$vector@U_LodItem@R_dsgraph@@V?$doug_lea_alloc@U_LodItem@R_dsgraph@@@@@std@@QAE@XZ 10018e70 f i r2.obj
 0001:00017e90       ??0?$xr_vector@U_LodItem@R_dsgraph@@V?$doug_lea_alloc@U_LodItem@R_dsgraph@@@@@@QAE@XZ 10018e90 f i r2.obj
 0001:00017eb0       ?deallocate@?$doug_lea_alloc@U_LodItem@R_dsgraph@@@@QBEXPAU_LodItem@R_dsgraph@@I@Z 10018eb0 f i r2.obj
 0001:00017ec0       ?deallocate@?$_Wrap_alloc@V?$doug_lea_alloc@U_LodItem@R_dsgraph@@@@@std@@QAEXPAU_LodItem@R_dsgraph@@I@Z 10018ec0 f i r2.obj
 0001:00017ed0       ?_Tidy@?$vector@U_LodItem@R_dsgraph@@V?$doug_lea_alloc@U_LodItem@R_dsgraph@@@@@std@@IAEXXZ 10018ed0 f i r2.obj
 0001:00017f00       ??1?$vector@U_LodItem@R_dsgraph@@V?$doug_lea_alloc@U_LodItem@R_dsgraph@@@@@std@@QAE@XZ 10018f00 f i r2.obj
 0001:00017f30       ??1?$xr_vector@U_LodItem@R_dsgraph@@V?$doug_lea_alloc@U_LodItem@R_dsgraph@@@@@@QAE@XZ 10018f30 f i r2.obj
 0001:00017f60       ??0?$_Vector_val@U?$_Simple_types@H@std@@@std@@QAE@XZ 10018f60 f i r2.obj
 0001:00017f80       ??0?$_Vector_alloc@$0A@U?$_Vec_base_types@HV?$doug_lea_alloc@H@@@std@@@std@@QAE@ABV?$doug_lea_alloc@H@@@Z 10018f80 f i r2.obj
 0001:00017fa0       ??0?$vector@HV?$doug_lea_alloc@H@@@std@@QAE@XZ 10018fa0 f i r2.obj
 0001:00017fc0       ??0?$xr_vector@HV?$doug_lea_alloc@H@@@@QAE@XZ 10018fc0 f i r2.obj
 0001:00017fe0       ?deallocate@?$doug_lea_alloc@H@@QBEXPAHI@Z 10018fe0 f i r2.obj
 0001:00017ff0       ?deallocate@?$_Wrap_alloc@V?$doug_lea_alloc@H@@@std@@QAEXPAHI@Z 10018ff0 f i r2.obj
 0001:00018000       ?_Tidy@?$vector@HV?$doug_lea_alloc@H@@@std@@IAEXXZ 10019000 f i r2.obj
 0001:00018030       ??1?$vector@HV?$doug_lea_alloc@H@@@std@@QAE@XZ 10019030 f i r2.obj
 0001:00018060       ??1?$xr_vector@HV?$doug_lea_alloc@H@@@@QAE@XZ 10019060 f i r2.obj
 0001:00018090       ??0?$_Vector_val@U?$_Simple_types@PAVISpatial@@@std@@@std@@QAE@XZ 10019090 f i r2.obj
 0001:000180b0       ??0?$_Vector_alloc@$0A@U?$_Vec_base_types@PAVISpatial@@V?$xalloc@PAVISpatial@@@@@std@@@std@@QAE@ABV?$xalloc@PAVISpatial@@@@@Z 100190b0 f i r2.obj
 0001:000180d0       ??0?$vector@PAVISpatial@@V?$xalloc@PAVISpatial@@@@@std@@QAE@XZ 100190d0 f i r2.obj
 0001:000180f0       ??0?$xr_vector@PAVISpatial@@V?$xalloc@PAVISpatial@@@@@@QAE@XZ 100190f0 f i r2.obj
 0001:00018110       ??$xr_free@PAVISpatial@@@@YAXAAPAPAVISpatial@@@Z 10019110 f i r2.obj
 0001:00018130       ?deallocate@?$xalloc@PAVISpatial@@@@QBEXPAPAVISpatial@@I@Z 10019130 f i r2.obj
 0001:00018150       ?deallocate@?$_Wrap_alloc@V?$xalloc@PAVISpatial@@@@@std@@QAEXPAPAVISpatial@@I@Z 10019150 f i r2.obj
 0001:00018170       ?_Tidy@?$vector@PAVISpatial@@V?$xalloc@PAVISpatial@@@@@std@@IAEXXZ 10019170 f i r2.obj
 0001:000181a0       ??1?$vector@PAVISpatial@@V?$xalloc@PAVISpatial@@@@@std@@QAE@XZ 100191a0 f i r2.obj
 0001:000181d0       ??1?$xr_vector@PAVISpatial@@V?$xalloc@PAVISpatial@@@@@@QAE@XZ 100191d0 f i r2.obj
 0001:00018200       ??0?$_Vector_val@U?$_Simple_types@PAVIRender_Visual@@@std@@@std@@QAE@XZ 10019200 f i r2.obj
 0001:00018220       ??0?$_Vector_alloc@$0A@U?$_Vec_base_types@PAVIRender_Visual@@V?$doug_lea_alloc@PAVIRender_Visual@@@@@std@@@std@@QAE@ABV?$doug_lea_alloc@PAVIRender_Visual@@@@@Z 10019220 f i r2.obj
 0001:00018240       ??0?$vector@PAVIRender_Visual@@V?$doug_lea_alloc@PAVIRender_Visual@@@@@std@@QAE@XZ 10019240 f i r2.obj
 0001:00018260       ??0?$xr_vector@PAVIRender_Visual@@V?$doug_lea_alloc@PAVIRender_Visual@@@@@@QAE@XZ 10019260 f i r2.obj
 0001:00018280       ?deallocate@?$doug_lea_alloc@PAVIRender_Visual@@@@QBEXPAPAVIRender_Visual@@I@Z 10019280 f i r2.obj
 0001:00018290       ?deallocate@?$_Wrap_alloc@V?$doug_lea_alloc@PAVIRender_Visual@@@@@std@@QAEXPAPAVIRender_Visual@@I@Z 10019290 f i r2.obj
 0001:000182a0       ?_Tidy@?$vector@PAVIRender_Visual@@V?$doug_lea_alloc@PAVIRender_Visual@@@@@std@@IAEXXZ 100192a0 f i r2.obj
 0001:000182d0       ??1?$vector@PAVIRender_Visual@@V?$doug_lea_alloc@PAVIRender_Visual@@@@@std@@QAE@XZ 100192d0 f i r2.obj
 0001:00018300       ??1?$xr_vector@PAVIRender_Visual@@V?$doug_lea_alloc@PAVIRender_Visual@@@@@@QAE@XZ 10019300 f i r2.obj
 0001:00018330       ?r_pmask@R_dsgraph_structure@@QAEX_N00@Z 10019330 f i r2.obj
 0001:00018360       ??0R_dsgraph_structure@@QAE@XZ 10019360 f i r2.obj
 0001:00018650       ?occlude@CHOM@@QAEXAAV?$_box2@M@@@Z 10019650 f i r2.obj
 0001:00018660       ??D?$resptr_core@UShader@@Uresptrcode_shader@@@@QBEAAUShader@@XZ 10019660 f i r2.obj
 0001:00018670       ?begin@?$svector@U_D3DVERTEXELEMENT9@@$0EB@@@QAEPAU_D3DVERTEXELEMENT9@@XZ 10019670 f i r2.obj
 0001:00018680       _powf                      10019680 f i r2.obj
 0001:00018690       ?u_diffuse2s@@YAMMMM@Z     10019690 f i r2.obj
 0001:000186b0       ??0?$_Vector_const_iterator@V?$_Vector_val@U?$_Simple_types@V?$FastDelegate0@X@fastdelegate@@@std@@@std@@@std@@QAE@PAV?$FastDelegate0@X@fastdelegate@@PBU_Container_base0@1@@Z 100196b0 f i r2.obj
 0001:000186c0       ??0?$_Vector_iterator@V?$_Vector_val@U?$_Simple_types@V?$FastDelegate0@X@fastdelegate@@@std@@@std@@@std@@QAE@PAV?$FastDelegate0@X@fastdelegate@@PBU_Container_base0@1@@Z 100196c0 f i r2.obj
 0001:000186d0       ?begin@?$vector@V?$FastDelegate0@X@fastdelegate@@V?$xalloc@V?$FastDelegate0@X@fastdelegate@@@@@std@@QAE?AV?$_Vector_iterator@V?$_Vector_val@U?$_Simple_types@V?$FastDelegate0@X@fastdelegate@@@std@@@std@@@2@XZ 100196d0 f i r2.obj
 0001:000186e0       ??0?$doug_lea_alloc@PAUTNode@?$FixedMAP@PAUIDirect3DVertexShader9@@UmapNormalPS@R_dsgraph@@Udoug_lea_allocator@@@@@@QAE@XZ 100196e0 f i r2.obj
 0001:000186f0       ??0?$_Wrap_alloc@V?$doug_lea_alloc@PAUTNode@?$FixedMAP@PAUIDirect3DVertexShader9@@UmapNormalPS@R_dsgraph@@Udoug_lea_allocator@@@@@@@std@@QAE@XZ 100196f0 f i r2.obj
 0001:00018700       ?_Getal@?$_Vector_alloc@$0A@U?$_Vec_base_types@PAUTNode@?$FixedMAP@PAUIDirect3DVertexShader9@@UmapNormalPS@R_dsgraph@@Udoug_lea_allocator@@@@V?$doug_lea_alloc@PAUTNode@?$FixedMAP@PAUIDirect3DVertexShader9@@UmapNormalPS@R_dsgraph@@Udoug_lea_allocator@@@@@@@std@@@std@@QBE?AU?$_Wrap_alloc@V?$doug_lea_alloc@PAUTNode@?$FixedMAP@PAUIDirect3DVertexShader9@@UmapNormalPS@R_dsgraph@@Udoug_lea_allocator@@@@@@@2@XZ 10019700 f i r2.obj
 0001:00018710       ??$_Destroy_range@U?$_Wrap_alloc@V?$doug_lea_alloc@PAUTNode@?$FixedMAP@PAUIDirect3DVertexShader9@@UmapNormalPS@R_dsgraph@@Udoug_lea_allocator@@@@@@@std@@@std@@YAXPAPAUTNode@?$FixedMAP@PAUIDirect3DVertexShader9@@UmapNormalPS@R_dsgraph@@Udoug_lea_allocator@@@@0AAU?$_Wrap_alloc@V?$doug_lea_alloc@PAUTNode@?$FixedMAP@PAUIDirect3DVertexShader9@@UmapNormalPS@R_dsgraph@@Udoug_lea_allocator@@@@@@@0@U_Scalar_ptr_iterator_tag@0@@Z 10019710 f i r2.obj
 0001:00018720       ??$_Ptr_cat@PAUTNode@?$FixedMAP@PAUIDirect3DVertexShader9@@UmapNormalPS@R_dsgraph@@Udoug_lea_allocator@@@@PAU12@@std@@YA?AU_Scalar_ptr_iterator_tag@0@PAPAUTNode@?$FixedMAP@PAUIDirect3DVertexShader9@@UmapNormalPS@R_dsgraph@@Udoug_lea_allocator@@@@0@Z 10019720 f i r2.obj
 0001:00018730       ??$_Destroy_range@U?$_Wrap_alloc@V?$doug_lea_alloc@PAUTNode@?$FixedMAP@PAUIDirect3DVertexShader9@@UmapNormalPS@R_dsgraph@@Udoug_lea_allocator@@@@@@@std@@@std@@YAXPAPAUTNode@?$FixedMAP@PAUIDirect3DVertexShader9@@UmapNormalPS@R_dsgraph@@Udoug_lea_allocator@@@@0AAU?$_Wrap_alloc@V?$doug_lea_alloc@PAUTNode@?$FixedMAP@PAUIDirect3DVertexShader9@@UmapNormalPS@R_dsgraph@@Udoug_lea_allocator@@@@@@@0@@Z 10019730 f i r2.obj
 0001:00018740       ?_Destroy@?$vector@PAUTNode@?$FixedMAP@PAUIDirect3DVertexShader9@@UmapNormalPS@R_dsgraph@@Udoug_lea_allocator@@@@V?$doug_lea_alloc@PAUTNode@?$FixedMAP@PAUIDirect3DVertexShader9@@UmapNormalPS@R_dsgraph@@Udoug_lea_allocator@@@@@@@std@@IAEXPAPAUTNode@?$FixedMAP@PAUIDirect3DVertexShader9@@UmapNormalPS@R_dsgraph@@Udoug_lea_allocator@@@@0@Z 10019740 f i r2.obj
 0001:00018750       ?clear@?$vector@PAUTNode@?$FixedMAP@PAUIDirect3DVertexShader9@@UmapNormalPS@R_dsgraph@@Udoug_lea_allocator@@@@V?$doug_lea_alloc@PAUTNode@?$FixedMAP@PAUIDirect3DVertexShader9@@UmapNormalPS@R_dsgraph@@Udoug_lea_allocator@@@@@@@std@@QAEXXZ 10019750 f i r2.obj
 0001:00018760       ?clear_and_free@?$xr_vector@PAUTNode@?$FixedMAP@PAUIDirect3DVertexShader9@@UmapNormalPS@R_dsgraph@@Udoug_lea_allocator@@@@V?$doug_lea_alloc@PAUTNode@?$FixedMAP@PAUIDirect3DVertexShader9@@UmapNormalPS@R_dsgraph@@Udoug_lea_allocator@@@@@@@@QAEXXZ 10019760 f i r2.obj
 0001:00018770       ?clear@?$xr_vector@PAUTNode@?$FixedMAP@PAUIDirect3DVertexShader9@@UmapNormalPS@R_dsgraph@@Udoug_lea_allocator@@@@V?$doug_lea_alloc@PAUTNode@?$FixedMAP@PAUIDirect3DVertexShader9@@UmapNormalPS@R_dsgraph@@Udoug_lea_allocator@@@@@@@@QAEXXZ 10019770 f i r2.obj
 0001:00018780       ??0?$doug_lea_alloc@PAUTNode@?$FixedMAP@PAUIDirect3DPixelShader9@@UmapNormalCS@R_dsgraph@@Udoug_lea_allocator@@@@@@QAE@XZ 10019780 f i r2.obj
 0001:00018790       ??0?$_Wrap_alloc@V?$doug_lea_alloc@PAUTNode@?$FixedMAP@PAUIDirect3DPixelShader9@@UmapNormalCS@R_dsgraph@@Udoug_lea_allocator@@@@@@@std@@QAE@XZ 10019790 f i r2.obj
 0001:000187a0       ?_Getal@?$_Vector_alloc@$0A@U?$_Vec_base_types@PAUTNode@?$FixedMAP@PAUIDirect3DPixelShader9@@UmapNormalCS@R_dsgraph@@Udoug_lea_allocator@@@@V?$doug_lea_alloc@PAUTNode@?$FixedMAP@PAUIDirect3DPixelShader9@@UmapNormalCS@R_dsgraph@@Udoug_lea_allocator@@@@@@@std@@@std@@QBE?AU?$_Wrap_alloc@V?$doug_lea_alloc@PAUTNode@?$FixedMAP@PAUIDirect3DPixelShader9@@UmapNormalCS@R_dsgraph@@Udoug_lea_allocator@@@@@@@2@XZ 100197a0 f i r2.obj
 0001:000187b0       ??$_Destroy_range@U?$_Wrap_alloc@V?$doug_lea_alloc@PAUTNode@?$FixedMAP@PAUIDirect3DPixelShader9@@UmapNormalCS@R_dsgraph@@Udoug_lea_allocator@@@@@@@std@@@std@@YAXPAPAUTNode@?$FixedMAP@PAUIDirect3DPixelShader9@@UmapNormalCS@R_dsgraph@@Udoug_lea_allocator@@@@0AAU?$_Wrap_alloc@V?$doug_lea_alloc@PAUTNode@?$FixedMAP@PAUIDirect3DPixelShader9@@UmapNormalCS@R_dsgraph@@Udoug_lea_allocator@@@@@@@0@U_Scalar_ptr_iterator_tag@0@@Z 100197b0 f i r2.obj
 0001:000187c0       ??$_Ptr_cat@PAUTNode@?$FixedMAP@PAUIDirect3DPixelShader9@@UmapNormalCS@R_dsgraph@@Udoug_lea_allocator@@@@PAU12@@std@@YA?AU_Scalar_ptr_iterator_tag@0@PAPAUTNode@?$FixedMAP@PAUIDirect3DPixelShader9@@UmapNormalCS@R_dsgraph@@Udoug_lea_allocator@@@@0@Z 100197c0 f i r2.obj
 0001:000187d0       ??$_Destroy_range@U?$_Wrap_alloc@V?$doug_lea_alloc@PAUTNode@?$FixedMAP@PAUIDirect3DPixelShader9@@UmapNormalCS@R_dsgraph@@Udoug_lea_allocator@@@@@@@std@@@std@@YAXPAPAUTNode@?$FixedMAP@PAUIDirect3DPixelShader9@@UmapNormalCS@R_dsgraph@@Udoug_lea_allocator@@@@0AAU?$_Wrap_alloc@V?$doug_lea_alloc@PAUTNode@?$FixedMAP@PAUIDirect3DPixelShader9@@UmapNormalCS@R_dsgraph@@Udoug_lea_allocator@@@@@@@0@@Z 100197d0 f i r2.obj
 0001:000187e0       ?_Destroy@?$vector@PAUTNode@?$FixedMAP@PAUIDirect3DPixelShader9@@UmapNormalCS@R_dsgraph@@Udoug_lea_allocator@@@@V?$doug_lea_alloc@PAUTNode@?$FixedMAP@PAUIDirect3DPixelShader9@@UmapNormalCS@R_dsgraph@@Udoug_lea_allocator@@@@@@@std@@IAEXPAPAUTNode@?$FixedMAP@PAUIDirect3DPixelShader9@@UmapNormalCS@R_dsgraph@@Udoug_lea_allocator@@@@0@Z 100197e0 f i r2.obj
 0001:000187f0       ?clear@?$vector@PAUTNode@?$FixedMAP@PAUIDirect3DPixelShader9@@UmapNormalCS@R_dsgraph@@Udoug_lea_allocator@@@@V?$doug_lea_alloc@PAUTNode@?$FixedMAP@PAUIDirect3DPixelShader9@@UmapNormalCS@R_dsgraph@@Udoug_lea_allocator@@@@@@@std@@QAEXXZ 100197f0 f i r2.obj
 0001:00018800       ?clear_and_free@?$xr_vector@PAUTNode@?$FixedMAP@PAUIDirect3DPixelShader9@@UmapNormalCS@R_dsgraph@@Udoug_lea_allocator@@@@V?$doug_lea_alloc@PAUTNode@?$FixedMAP@PAUIDirect3DPixelShader9@@UmapNormalCS@R_dsgraph@@Udoug_lea_allocator@@@@@@@@QAEXXZ 10019800 f i r2.obj
 0001:00018810       ?clear@?$xr_vector@PAUTNode@?$FixedMAP@PAUIDirect3DPixelShader9@@UmapNormalCS@R_dsgraph@@Udoug_lea_allocator@@@@V?$doug_lea_alloc@PAUTNode@?$FixedMAP@PAUIDirect3DPixelShader9@@UmapNormalCS@R_dsgraph@@Udoug_lea_allocator@@@@@@@@QAEXXZ 10019810 f i r2.obj
 0001:00018820       ??0?$doug_lea_alloc@PAUTNode@?$FixedMAP@PAVR_constant_table@@UmapNormalStates@R_dsgraph@@Udoug_lea_allocator@@@@@@QAE@XZ 10019820 f i r2.obj
 0001:00018830       ??0?$_Wrap_alloc@V?$doug_lea_alloc@PAUTNode@?$FixedMAP@PAVR_constant_table@@UmapNormalStates@R_dsgraph@@Udoug_lea_allocator@@@@@@@std@@QAE@XZ 10019830 f i r2.obj
 0001:00018840       ?_Getal@?$_Vector_alloc@$0A@U?$_Vec_base_types@PAUTNode@?$FixedMAP@PAVR_constant_table@@UmapNormalStates@R_dsgraph@@Udoug_lea_allocator@@@@V?$doug_lea_alloc@PAUTNode@?$FixedMAP@PAVR_constant_table@@UmapNormalStates@R_dsgraph@@Udoug_lea_allocator@@@@@@@std@@@std@@QBE?AU?$_Wrap_alloc@V?$doug_lea_alloc@PAUTNode@?$FixedMAP@PAVR_constant_table@@UmapNormalStates@R_dsgraph@@Udoug_lea_allocator@@@@@@@2@XZ 10019840 f i r2.obj
 0001:00018850       ??$_Destroy_range@U?$_Wrap_alloc@V?$doug_lea_alloc@PAUTNode@?$FixedMAP@PAVR_constant_table@@UmapNormalStates@R_dsgraph@@Udoug_lea_allocator@@@@@@@std@@@std@@YAXPAPAUTNode@?$FixedMAP@PAVR_constant_table@@UmapNormalStates@R_dsgraph@@Udoug_lea_allocator@@@@0AAU?$_Wrap_alloc@V?$doug_lea_alloc@PAUTNode@?$FixedMAP@PAVR_constant_table@@UmapNormalStates@R_dsgraph@@Udoug_lea_allocator@@@@@@@0@U_Scalar_ptr_iterator_tag@0@@Z 10019850 f i r2.obj
 0001:00018860       ??$_Ptr_cat@PAUTNode@?$FixedMAP@PAVR_constant_table@@UmapNormalStates@R_dsgraph@@Udoug_lea_allocator@@@@PAU12@@std@@YA?AU_Scalar_ptr_iterator_tag@0@PAPAUTNode@?$FixedMAP@PAVR_constant_table@@UmapNormalStates@R_dsgraph@@Udoug_lea_allocator@@@@0@Z 10019860 f i r2.obj
 0001:00018870       ??$_Destroy_range@U?$_Wrap_alloc@V?$doug_lea_alloc@PAUTNode@?$FixedMAP@PAVR_constant_table@@UmapNormalStates@R_dsgraph@@Udoug_lea_allocator@@@@@@@std@@@std@@YAXPAPAUTNode@?$FixedMAP@PAVR_constant_table@@UmapNormalStates@R_dsgraph@@Udoug_lea_allocator@@@@0AAU?$_Wrap_alloc@V?$doug_lea_alloc@PAUTNode@?$FixedMAP@PAVR_constant_table@@UmapNormalStates@R_dsgraph@@Udoug_lea_allocator@@@@@@@0@@Z 10019870 f i r2.obj
 0001:00018880       ?_Destroy@?$vector@PAUTNode@?$FixedMAP@PAVR_constant_table@@UmapNormalStates@R_dsgraph@@Udoug_lea_allocator@@@@V?$doug_lea_alloc@PAUTNode@?$FixedMAP@PAVR_constant_table@@UmapNormalStates@R_dsgraph@@Udoug_lea_allocator@@@@@@@std@@IAEXPAPAUTNode@?$FixedMAP@PAVR_constant_table@@UmapNormalStates@R_dsgraph@@Udoug_lea_allocator@@@@0@Z 10019880 f i r2.obj
 0001:00018890       ?clear@?$vector@PAUTNode@?$FixedMAP@PAVR_constant_table@@UmapNormalStates@R_dsgraph@@Udoug_lea_allocator@@@@V?$doug_lea_alloc@PAUTNode@?$FixedMAP@PAVR_constant_table@@UmapNormalStates@R_dsgraph@@Udoug_lea_allocator@@@@@@@std@@QAEXXZ 10019890 f i r2.obj
 0001:000188a0       ?clear_and_free@?$xr_vector@PAUTNode@?$FixedMAP@PAVR_constant_table@@UmapNormalStates@R_dsgraph@@Udoug_lea_allocator@@@@V?$doug_lea_alloc@PAUTNode@?$FixedMAP@PAVR_constant_table@@UmapNormalStates@R_dsgraph@@Udoug_lea_allocator@@@@@@@@QAEXXZ 100198a0 f i r2.obj
 0001:000188b0       ?clear@?$xr_vector@PAUTNode@?$FixedMAP@PAVR_constant_table@@UmapNormalStates@R_dsgraph@@Udoug_lea_allocator@@@@V?$doug_lea_alloc@PAUTNode@?$FixedMAP@PAVR_constant_table@@UmapNormalStates@R_dsgraph@@Udoug_lea_allocator@@@@@@@@QAEXXZ 100198b0 f i r2.obj
 0001:000188c0       ??0?$doug_lea_alloc@PAUTNode@?$FixedMAP@PAUIDirect3DStateBlock9@@UmapNormalTextures@R_dsgraph@@Udoug_lea_allocator@@@@@@QAE@XZ 100198c0 f i r2.obj
 0001:000188d0       ??0?$_Wrap_alloc@V?$doug_lea_alloc@PAUTNode@?$FixedMAP@PAUIDirect3DStateBlock9@@UmapNormalTextures@R_dsgraph@@Udoug_lea_allocator@@@@@@@std@@QAE@XZ 100198d0 f i r2.obj
 0001:000188e0       ?_Getal@?$_Vector_alloc@$0A@U?$_Vec_base_types@PAUTNode@?$FixedMAP@PAUIDirect3DStateBlock9@@UmapNormalTextures@R_dsgraph@@Udoug_lea_allocator@@@@V?$doug_lea_alloc@PAUTNode@?$FixedMAP@PAUIDirect3DStateBlock9@@UmapNormalTextures@R_dsgraph@@Udoug_lea_allocator@@@@@@@std@@@std@@QBE?AU?$_Wrap_alloc@V?$doug_lea_alloc@PAUTNode@?$FixedMAP@PAUIDirect3DStateBlock9@@UmapNormalTextures@R_dsgraph@@Udoug_lea_allocator@@@@@@@2@XZ 100198e0 f i r2.obj
 0001:000188f0       ??$_Destroy_range@U?$_Wrap_alloc@V?$doug_lea_alloc@PAUTNode@?$FixedMAP@PAUIDirect3DStateBlock9@@UmapNormalTextures@R_dsgraph@@Udoug_lea_allocator@@@@@@@std@@@std@@YAXPAPAUTNode@?$FixedMAP@PAUIDirect3DStateBlock9@@UmapNormalTextures@R_dsgraph@@Udoug_lea_allocator@@@@0AAU?$_Wrap_alloc@V?$doug_lea_alloc@PAUTNode@?$FixedMAP@PAUIDirect3DStateBlock9@@UmapNormalTextures@R_dsgraph@@Udoug_lea_allocator@@@@@@@0@U_Scalar_ptr_iterator_tag@0@@Z 100198f0 f i r2.obj
 0001:00018900       ??$_Ptr_cat@PAUTNode@?$FixedMAP@PAUIDirect3DStateBlock9@@UmapNormalTextures@R_dsgraph@@Udoug_lea_allocator@@@@PAU12@@std@@YA?AU_Scalar_ptr_iterator_tag@0@PAPAUTNode@?$FixedMAP@PAUIDirect3DStateBlock9@@UmapNormalTextures@R_dsgraph@@Udoug_lea_allocator@@@@0@Z 10019900 f i r2.obj
 0001:00018910       ??$_Destroy_range@U?$_Wrap_alloc@V?$doug_lea_alloc@PAUTNode@?$FixedMAP@PAUIDirect3DStateBlock9@@UmapNormalTextures@R_dsgraph@@Udoug_lea_allocator@@@@@@@std@@@std@@YAXPAPAUTNode@?$FixedMAP@PAUIDirect3DStateBlock9@@UmapNormalTextures@R_dsgraph@@Udoug_lea_allocator@@@@0AAU?$_Wrap_alloc@V?$doug_lea_alloc@PAUTNode@?$FixedMAP@PAUIDirect3DStateBlock9@@UmapNormalTextures@R_dsgraph@@Udoug_lea_allocator@@@@@@@0@@Z 10019910 f i r2.obj
 0001:00018920       ?_Destroy@?$vector@PAUTNode@?$FixedMAP@PAUIDirect3DStateBlock9@@UmapNormalTextures@R_dsgraph@@Udoug_lea_allocator@@@@V?$doug_lea_alloc@PAUTNode@?$FixedMAP@PAUIDirect3DStateBlock9@@UmapNormalTextures@R_dsgraph@@Udoug_lea_allocator@@@@@@@std@@IAEXPAPAUTNode@?$FixedMAP@PAUIDirect3DStateBlock9@@UmapNormalTextures@R_dsgraph@@Udoug_lea_allocator@@@@0@Z 10019920 f i r2.obj
 0001:00018930       ?clear@?$vector@PAUTNode@?$FixedMAP@PAUIDirect3DStateBlock9@@UmapNormalTextures@R_dsgraph@@Udoug_lea_allocator@@@@V?$doug_lea_alloc@PAUTNode@?$FixedMAP@PAUIDirect3DStateBlock9@@UmapNormalTextures@R_dsgraph@@Udoug_lea_allocator@@@@@@@std@@QAEXXZ 10019930 f i r2.obj
 0001:00018940       ?clear_and_free@?$xr_vector@PAUTNode@?$FixedMAP@PAUIDirect3DStateBlock9@@UmapNormalTextures@R_dsgraph@@Udoug_lea_allocator@@@@V?$doug_lea_alloc@PAUTNode@?$FixedMAP@PAUIDirect3DStateBlock9@@UmapNormalTextures@R_dsgraph@@Udoug_lea_allocator@@@@@@@@QAEXXZ 10019940 f i r2.obj
 0001:00018950       ?clear@?$xr_vector@PAUTNode@?$FixedMAP@PAUIDirect3DStateBlock9@@UmapNormalTextures@R_dsgraph@@Udoug_lea_allocator@@@@V?$doug_lea_alloc@PAUTNode@?$FixedMAP@PAUIDirect3DStateBlock9@@UmapNormalTextures@R_dsgraph@@Udoug_lea_allocator@@@@@@@@QAEXXZ 10019950 f i r2.obj
 0001:00018960       ??0?$doug_lea_alloc@PAUTNode@?$FixedMAP@PAUSTextureList@@UmapNormalItems@R_dsgraph@@Udoug_lea_allocator@@@@@@QAE@XZ 10019960 f i r2.obj
 0001:00018970       ??0?$_Wrap_alloc@V?$doug_lea_alloc@PAUTNode@?$FixedMAP@PAUSTextureList@@UmapNormalItems@R_dsgraph@@Udoug_lea_allocator@@@@@@@std@@QAE@XZ 10019970 f i r2.obj
 0001:00018980       ?_Getal@?$_Vector_alloc@$0A@U?$_Vec_base_types@PAUTNode@?$FixedMAP@PAUSTextureList@@UmapNormalItems@R_dsgraph@@Udoug_lea_allocator@@@@V?$doug_lea_alloc@PAUTNode@?$FixedMAP@PAUSTextureList@@UmapNormalItems@R_dsgraph@@Udoug_lea_allocator@@@@@@@std@@@std@@QBE?AU?$_Wrap_alloc@V?$doug_lea_alloc@PAUTNode@?$FixedMAP@PAUSTextureList@@UmapNormalItems@R_dsgraph@@Udoug_lea_allocator@@@@@@@2@XZ 10019980 f i r2.obj
 0001:00018990       ??$_Destroy_range@U?$_Wrap_alloc@V?$doug_lea_alloc@PAUTNode@?$FixedMAP@PAUSTextureList@@UmapNormalItems@R_dsgraph@@Udoug_lea_allocator@@@@@@@std@@@std@@YAXPAPAUTNode@?$FixedMAP@PAUSTextureList@@UmapNormalItems@R_dsgraph@@Udoug_lea_allocator@@@@0AAU?$_Wrap_alloc@V?$doug_lea_alloc@PAUTNode@?$FixedMAP@PAUSTextureList@@UmapNormalItems@R_dsgraph@@Udoug_lea_allocator@@@@@@@0@U_Scalar_ptr_iterator_tag@0@@Z 10019990 f i r2.obj
 0001:000189a0       ??$_Ptr_cat@PAUTNode@?$FixedMAP@PAUSTextureList@@UmapNormalItems@R_dsgraph@@Udoug_lea_allocator@@@@PAU12@@std@@YA?AU_Scalar_ptr_iterator_tag@0@PAPAUTNode@?$FixedMAP@PAUSTextureList@@UmapNormalItems@R_dsgraph@@Udoug_lea_allocator@@@@0@Z 100199a0 f i r2.obj
 0001:000189b0       ??$_Destroy_range@U?$_Wrap_alloc@V?$doug_lea_alloc@PAUTNode@?$FixedMAP@PAUSTextureList@@UmapNormalItems@R_dsgraph@@Udoug_lea_allocator@@@@@@@std@@@std@@YAXPAPAUTNode@?$FixedMAP@PAUSTextureList@@UmapNormalItems@R_dsgraph@@Udoug_lea_allocator@@@@0AAU?$_Wrap_alloc@V?$doug_lea_alloc@PAUTNode@?$FixedMAP@PAUSTextureList@@UmapNormalItems@R_dsgraph@@Udoug_lea_allocator@@@@@@@0@@Z 100199b0 f i r2.obj
 0001:000189c0       ?_Destroy@?$vector@PAUTNode@?$FixedMAP@PAUSTextureList@@UmapNormalItems@R_dsgraph@@Udoug_lea_allocator@@@@V?$doug_lea_alloc@PAUTNode@?$FixedMAP@PAUSTextureList@@UmapNormalItems@R_dsgraph@@Udoug_lea_allocator@@@@@@@std@@IAEXPAPAUTNode@?$FixedMAP@PAUSTextureList@@UmapNormalItems@R_dsgraph@@Udoug_lea_allocator@@@@0@Z 100199c0 f i r2.obj
 0001:000189d0       ?clear@?$vector@PAUTNode@?$FixedMAP@PAUSTextureList@@UmapNormalItems@R_dsgraph@@Udoug_lea_allocator@@@@V?$doug_lea_alloc@PAUTNode@?$FixedMAP@PAUSTextureList@@UmapNormalItems@R_dsgraph@@Udoug_lea_allocator@@@@@@@std@@QAEXXZ 100199d0 f i r2.obj
 0001:000189e0       ?clear_and_free@?$xr_vector@PAUTNode@?$FixedMAP@PAUSTextureList@@UmapNormalItems@R_dsgraph@@Udoug_lea_allocator@@@@V?$doug_lea_alloc@PAUTNode@?$FixedMAP@PAUSTextureList@@UmapNormalItems@R_dsgraph@@Udoug_lea_allocator@@@@@@@@QAEXXZ 100199e0 f i r2.obj
 0001:000189f0       ?clear@?$xr_vector@PAUTNode@?$FixedMAP@PAUSTextureList@@UmapNormalItems@R_dsgraph@@Udoug_lea_allocator@@@@V?$doug_lea_alloc@PAUTNode@?$FixedMAP@PAUSTextureList@@UmapNormalItems@R_dsgraph@@Udoug_lea_allocator@@@@@@@@QAEXXZ 100199f0 f i r2.obj
 0001:00018a00       ??0?$doug_lea_alloc@PAUTNode@?$FixedMAP@PAUIDirect3DVertexShader9@@UmapMatrixPS@R_dsgraph@@Udoug_lea_allocator@@@@@@QAE@XZ 10019a00 f i r2.obj
 0001:00018a10       ??0?$_Wrap_alloc@V?$doug_lea_alloc@PAUTNode@?$FixedMAP@PAUIDirect3DVertexShader9@@UmapMatrixPS@R_dsgraph@@Udoug_lea_allocator@@@@@@@std@@QAE@XZ 10019a10 f i r2.obj
 0001:00018a20       ?_Getal@?$_Vector_alloc@$0A@U?$_Vec_base_types@PAUTNode@?$FixedMAP@PAUIDirect3DVertexShader9@@UmapMatrixPS@R_dsgraph@@Udoug_lea_allocator@@@@V?$doug_lea_alloc@PAUTNode@?$FixedMAP@PAUIDirect3DVertexShader9@@UmapMatrixPS@R_dsgraph@@Udoug_lea_allocator@@@@@@@std@@@std@@QBE?AU?$_Wrap_alloc@V?$doug_lea_alloc@PAUTNode@?$FixedMAP@PAUIDirect3DVertexShader9@@UmapMatrixPS@R_dsgraph@@Udoug_lea_allocator@@@@@@@2@XZ 10019a20 f i r2.obj
 0001:00018a30       ??$_Destroy_range@U?$_Wrap_alloc@V?$doug_lea_alloc@PAUTNode@?$FixedMAP@PAUIDirect3DVertexShader9@@UmapMatrixPS@R_dsgraph@@Udoug_lea_allocator@@@@@@@std@@@std@@YAXPAPAUTNode@?$FixedMAP@PAUIDirect3DVertexShader9@@UmapMatrixPS@R_dsgraph@@Udoug_lea_allocator@@@@0AAU?$_Wrap_alloc@V?$doug_lea_alloc@PAUTNode@?$FixedMAP@PAUIDirect3DVertexShader9@@UmapMatrixPS@R_dsgraph@@Udoug_lea_allocator@@@@@@@0@U_Scalar_ptr_iterator_tag@0@@Z 10019a30 f i r2.obj
 0001:00018a40       ??$_Ptr_cat@PAUTNode@?$FixedMAP@PAUIDirect3DVertexShader9@@UmapMatrixPS@R_dsgraph@@Udoug_lea_allocator@@@@PAU12@@std@@YA?AU_Scalar_ptr_iterator_tag@0@PAPAUTNode@?$FixedMAP@PAUIDirect3DVertexShader9@@UmapMatrixPS@R_dsgraph@@Udoug_lea_allocator@@@@0@Z 10019a40 f i r2.obj
 0001:00018a50       ??$_Destroy_range@U?$_Wrap_alloc@V?$doug_lea_alloc@PAUTNode@?$FixedMAP@PAUIDirect3DVertexShader9@@UmapMatrixPS@R_dsgraph@@Udoug_lea_allocator@@@@@@@std@@@std@@YAXPAPAUTNode@?$FixedMAP@PAUIDirect3DVertexShader9@@UmapMatrixPS@R_dsgraph@@Udoug_lea_allocator@@@@0AAU?$_Wrap_alloc@V?$doug_lea_alloc@PAUTNode@?$FixedMAP@PAUIDirect3DVertexShader9@@UmapMatrixPS@R_dsgraph@@Udoug_lea_allocator@@@@@@@0@@Z 10019a50 f i r2.obj
 0001:00018a60       ?_Destroy@?$vector@PAUTNode@?$FixedMAP@PAUIDirect3DVertexShader9@@UmapMatrixPS@R_dsgraph@@Udoug_lea_allocator@@@@V?$doug_lea_alloc@PAUTNode@?$FixedMAP@PAUIDirect3DVertexShader9@@UmapMatrixPS@R_dsgraph@@Udoug_lea_allocator@@@@@@@std@@IAEXPAPAUTNode@?$FixedMAP@PAUIDirect3DVertexShader9@@UmapMatrixPS@R_dsgraph@@Udoug_lea_allocator@@@@0@Z 10019a60 f i r2.obj
 0001:00018a70       ?clear@?$vector@PAUTNode@?$FixedMAP@PAUIDirect3DVertexShader9@@UmapMatrixPS@R_dsgraph@@Udoug_lea_allocator@@@@V?$doug_lea_alloc@PAUTNode@?$FixedMAP@PAUIDirect3DVertexShader9@@UmapMatrixPS@R_dsgraph@@Udoug_lea_allocator@@@@@@@std@@QAEXXZ 10019a70 f i r2.obj
 0001:00018a80       ?clear_and_free@?$xr_vector@PAUTNode@?$FixedMAP@PAUIDirect3DVertexShader9@@UmapMatrixPS@R_dsgraph@@Udoug_lea_allocator@@@@V?$doug_lea_alloc@PAUTNode@?$FixedMAP@PAUIDirect3DVertexShader9@@UmapMatrixPS@R_dsgraph@@Udoug_lea_allocator@@@@@@@@QAEXXZ 10019a80 f i r2.obj
 0001:00018a90       ?clear@?$xr_vector@PAUTNode@?$FixedMAP@PAUIDirect3DVertexShader9@@UmapMatrixPS@R_dsgraph@@Udoug_lea_allocator@@@@V?$doug_lea_alloc@PAUTNode@?$FixedMAP@PAUIDirect3DVertexShader9@@UmapMatrixPS@R_dsgraph@@Udoug_lea_allocator@@@@@@@@QAEXXZ 10019a90 f i r2.obj
 0001:00018aa0       ??0?$doug_lea_alloc@PAUTNode@?$FixedMAP@PAUIDirect3DPixelShader9@@UmapMatrixCS@R_dsgraph@@Udoug_lea_allocator@@@@@@QAE@XZ 10019aa0 f i r2.obj
 0001:00018ab0       ??0?$_Wrap_alloc@V?$doug_lea_alloc@PAUTNode@?$FixedMAP@PAUIDirect3DPixelShader9@@UmapMatrixCS@R_dsgraph@@Udoug_lea_allocator@@@@@@@std@@QAE@XZ 10019ab0 f i r2.obj
 0001:00018ac0       ?_Getal@?$_Vector_alloc@$0A@U?$_Vec_base_types@PAUTNode@?$FixedMAP@PAUIDirect3DPixelShader9@@UmapMatrixCS@R_dsgraph@@Udoug_lea_allocator@@@@V?$doug_lea_alloc@PAUTNode@?$FixedMAP@PAUIDirect3DPixelShader9@@UmapMatrixCS@R_dsgraph@@Udoug_lea_allocator@@@@@@@std@@@std@@QBE?AU?$_Wrap_alloc@V?$doug_lea_alloc@PAUTNode@?$FixedMAP@PAUIDirect3DPixelShader9@@UmapMatrixCS@R_dsgraph@@Udoug_lea_allocator@@@@@@@2@XZ 10019ac0 f i r2.obj
 0001:00018ad0       ??$_Destroy_range@U?$_Wrap_alloc@V?$doug_lea_alloc@PAUTNode@?$FixedMAP@PAUIDirect3DPixelShader9@@UmapMatrixCS@R_dsgraph@@Udoug_lea_allocator@@@@@@@std@@@std@@YAXPAPAUTNode@?$FixedMAP@PAUIDirect3DPixelShader9@@UmapMatrixCS@R_dsgraph@@Udoug_lea_allocator@@@@0AAU?$_Wrap_alloc@V?$doug_lea_alloc@PAUTNode@?$FixedMAP@PAUIDirect3DPixelShader9@@UmapMatrixCS@R_dsgraph@@Udoug_lea_allocator@@@@@@@0@U_Scalar_ptr_iterator_tag@0@@Z 10019ad0 f i r2.obj
 0001:00018ae0       ??$_Ptr_cat@PAUTNode@?$FixedMAP@PAUIDirect3DPixelShader9@@UmapMatrixCS@R_dsgraph@@Udoug_lea_allocator@@@@PAU12@@std@@YA?AU_Scalar_ptr_iterator_tag@0@PAPAUTNode@?$FixedMAP@PAUIDirect3DPixelShader9@@UmapMatrixCS@R_dsgraph@@Udoug_lea_allocator@@@@0@Z 10019ae0 f i r2.obj
 0001:00018af0       ??$_Destroy_range@U?$_Wrap_alloc@V?$doug_lea_alloc@PAUTNode@?$FixedMAP@PAUIDirect3DPixelShader9@@UmapMatrixCS@R_dsgraph@@Udoug_lea_allocator@@@@@@@std@@@std@@YAXPAPAUTNode@?$FixedMAP@PAUIDirect3DPixelShader9@@UmapMatrixCS@R_dsgraph@@Udoug_lea_allocator@@@@0AAU?$_Wrap_alloc@V?$doug_lea_alloc@PAUTNode@?$FixedMAP@PAUIDirect3DPixelShader9@@UmapMatrixCS@R_dsgraph@@Udoug_lea_allocator@@@@@@@0@@Z 10019af0 f i r2.obj
 0001:00018b00       ?_Destroy@?$vector@PAUTNode@?$FixedMAP@PAUIDirect3DPixelShader9@@UmapMatrixCS@R_dsgraph@@Udoug_lea_allocator@@@@V?$doug_lea_alloc@PAUTNode@?$FixedMAP@PAUIDirect3DPixelShader9@@UmapMatrixCS@R_dsgraph@@Udoug_lea_allocator@@@@@@@std@@IAEXPAPAUTNode@?$FixedMAP@PAUIDirect3DPixelShader9@@UmapMatrixCS@R_dsgraph@@Udoug_lea_allocator@@@@0@Z 10019b00 f i r2.obj
 0001:00018b10       ?clear@?$vector@PAUTNode@?$FixedMAP@PAUIDirect3DPixelShader9@@UmapMatrixCS@R_dsgraph@@Udoug_lea_allocator@@@@V?$doug_lea_alloc@PAUTNode@?$FixedMAP@PAUIDirect3DPixelShader9@@UmapMatrixCS@R_dsgraph@@Udoug_lea_allocator@@@@@@@std@@QAEXXZ 10019b10 f i r2.obj
 0001:00018b20       ?clear_and_free@?$xr_vector@PAUTNode@?$FixedMAP@PAUIDirect3DPixelShader9@@UmapMatrixCS@R_dsgraph@@Udoug_lea_allocator@@@@V?$doug_lea_alloc@PAUTNode@?$FixedMAP@PAUIDirect3DPixelShader9@@UmapMatrixCS@R_dsgraph@@Udoug_lea_allocator@@@@@@@@QAEXXZ 10019b20 f i r2.obj
 0001:00018b30       ?clear@?$xr_vector@PAUTNode@?$FixedMAP@PAUIDirect3DPixelShader9@@UmapMatrixCS@R_dsgraph@@Udoug_lea_allocator@@@@V?$doug_lea_alloc@PAUTNode@?$FixedMAP@PAUIDirect3DPixelShader9@@UmapMatrixCS@R_dsgraph@@Udoug_lea_allocator@@@@@@@@QAEXXZ 10019b30 f i r2.obj
 0001:00018b40       ??0?$doug_lea_alloc@PAUTNode@?$FixedMAP@PAVR_constant_table@@UmapMatrixStates@R_dsgraph@@Udoug_lea_allocator@@@@@@QAE@XZ 10019b40 f i r2.obj
 0001:00018b50       ??0?$_Wrap_alloc@V?$doug_lea_alloc@PAUTNode@?$FixedMAP@PAVR_constant_table@@UmapMatrixStates@R_dsgraph@@Udoug_lea_allocator@@@@@@@std@@QAE@XZ 10019b50 f i r2.obj
 0001:00018b60       ?_Getal@?$_Vector_alloc@$0A@U?$_Vec_base_types@PAUTNode@?$FixedMAP@PAVR_constant_table@@UmapMatrixStates@R_dsgraph@@Udoug_lea_allocator@@@@V?$doug_lea_alloc@PAUTNode@?$FixedMAP@PAVR_constant_table@@UmapMatrixStates@R_dsgraph@@Udoug_lea_allocator@@@@@@@std@@@std@@QBE?AU?$_Wrap_alloc@V?$doug_lea_alloc@PAUTNode@?$FixedMAP@PAVR_constant_table@@UmapMatrixStates@R_dsgraph@@Udoug_lea_allocator@@@@@@@2@XZ 10019b60 f i r2.obj
 0001:00018b70       ??$_Destroy_range@U?$_Wrap_alloc@V?$doug_lea_alloc@PAUTNode@?$FixedMAP@PAVR_constant_table@@UmapMatrixStates@R_dsgraph@@Udoug_lea_allocator@@@@@@@std@@@std@@YAXPAPAUTNode@?$FixedMAP@PAVR_constant_table@@UmapMatrixStates@R_dsgraph@@Udoug_lea_allocator@@@@0AAU?$_Wrap_alloc@V?$doug_lea_alloc@PAUTNode@?$FixedMAP@PAVR_constant_table@@UmapMatrixStates@R_dsgraph@@Udoug_lea_allocator@@@@@@@0@U_Scalar_ptr_iterator_tag@0@@Z 10019b70 f i r2.obj
 0001:00018b80       ??$_Ptr_cat@PAUTNode@?$FixedMAP@PAVR_constant_table@@UmapMatrixStates@R_dsgraph@@Udoug_lea_allocator@@@@PAU12@@std@@YA?AU_Scalar_ptr_iterator_tag@0@PAPAUTNode@?$FixedMAP@PAVR_constant_table@@UmapMatrixStates@R_dsgraph@@Udoug_lea_allocator@@@@0@Z 10019b80 f i r2.obj
 0001:00018b90       ??$_Destroy_range@U?$_Wrap_alloc@V?$doug_lea_alloc@PAUTNode@?$FixedMAP@PAVR_constant_table@@UmapMatrixStates@R_dsgraph@@Udoug_lea_allocator@@@@@@@std@@@std@@YAXPAPAUTNode@?$FixedMAP@PAVR_constant_table@@UmapMatrixStates@R_dsgraph@@Udoug_lea_allocator@@@@0AAU?$_Wrap_alloc@V?$doug_lea_alloc@PAUTNode@?$FixedMAP@PAVR_constant_table@@UmapMatrixStates@R_dsgraph@@Udoug_lea_allocator@@@@@@@0@@Z 10019b90 f i r2.obj
 0001:00018ba0       ?_Destroy@?$vector@PAUTNode@?$FixedMAP@PAVR_constant_table@@UmapMatrixStates@R_dsgraph@@Udoug_lea_allocator@@@@V?$doug_lea_alloc@PAUTNode@?$FixedMAP@PAVR_constant_table@@UmapMatrixStates@R_dsgraph@@Udoug_lea_allocator@@@@@@@std@@IAEXPAPAUTNode@?$FixedMAP@PAVR_constant_table@@UmapMatrixStates@R_dsgraph@@Udoug_lea_allocator@@@@0@Z 10019ba0 f i r2.obj
 0001:00018bb0       ?clear@?$vector@PAUTNode@?$FixedMAP@PAVR_constant_table@@UmapMatrixStates@R_dsgraph@@Udoug_lea_allocator@@@@V?$doug_lea_alloc@PAUTNode@?$FixedMAP@PAVR_constant_table@@UmapMatrixStates@R_dsgraph@@Udoug_lea_allocator@@@@@@@std@@QAEXXZ 10019bb0 f i r2.obj
 0001:00018bc0       ?clear_and_free@?$xr_vector@PAUTNode@?$FixedMAP@PAVR_constant_table@@UmapMatrixStates@R_dsgraph@@Udoug_lea_allocator@@@@V?$doug_lea_alloc@PAUTNode@?$FixedMAP@PAVR_constant_table@@UmapMatrixStates@R_dsgraph@@Udoug_lea_allocator@@@@@@@@QAEXXZ 10019bc0 f i r2.obj
 0001:00018bd0       ?clear@?$xr_vector@PAUTNode@?$FixedMAP@PAVR_constant_table@@UmapMatrixStates@R_dsgraph@@Udoug_lea_allocator@@@@V?$doug_lea_alloc@PAUTNode@?$FixedMAP@PAVR_constant_table@@UmapMatrixStates@R_dsgraph@@Udoug_lea_allocator@@@@@@@@QAEXXZ 10019bd0 f i r2.obj
 0001:00018be0       ??0?$doug_lea_alloc@PAUTNode@?$FixedMAP@PAUIDirect3DStateBlock9@@UmapMatrixTextures@R_dsgraph@@Udoug_lea_allocator@@@@@@QAE@XZ 10019be0 f i r2.obj
 0001:00018bf0       ??0?$_Wrap_alloc@V?$doug_lea_alloc@PAUTNode@?$FixedMAP@PAUIDirect3DStateBlock9@@UmapMatrixTextures@R_dsgraph@@Udoug_lea_allocator@@@@@@@std@@QAE@XZ 10019bf0 f i r2.obj
 0001:00018c00       ?_Getal@?$_Vector_alloc@$0A@U?$_Vec_base_types@PAUTNode@?$FixedMAP@PAUIDirect3DStateBlock9@@UmapMatrixTextures@R_dsgraph@@Udoug_lea_allocator@@@@V?$doug_lea_alloc@PAUTNode@?$FixedMAP@PAUIDirect3DStateBlock9@@UmapMatrixTextures@R_dsgraph@@Udoug_lea_allocator@@@@@@@std@@@std@@QBE?AU?$_Wrap_alloc@V?$doug_lea_alloc@PAUTNode@?$FixedMAP@PAUIDirect3DStateBlock9@@UmapMatrixTextures@R_dsgraph@@Udoug_lea_allocator@@@@@@@2@XZ 10019c00 f i r2.obj
 0001:00018c10       ??$_Destroy_range@U?$_Wrap_alloc@V?$doug_lea_alloc@PAUTNode@?$FixedMAP@PAUIDirect3DStateBlock9@@UmapMatrixTextures@R_dsgraph@@Udoug_lea_allocator@@@@@@@std@@@std@@YAXPAPAUTNode@?$FixedMAP@PAUIDirect3DStateBlock9@@UmapMatrixTextures@R_dsgraph@@Udoug_lea_allocator@@@@0AAU?$_Wrap_alloc@V?$doug_lea_alloc@PAUTNode@?$FixedMAP@PAUIDirect3DStateBlock9@@UmapMatrixTextures@R_dsgraph@@Udoug_lea_allocator@@@@@@@0@U_Scalar_ptr_iterator_tag@0@@Z 10019c10 f i r2.obj
 0001:00018c20       ??$_Ptr_cat@PAUTNode@?$FixedMAP@PAUIDirect3DStateBlock9@@UmapMatrixTextures@R_dsgraph@@Udoug_lea_allocator@@@@PAU12@@std@@YA?AU_Scalar_ptr_iterator_tag@0@PAPAUTNode@?$FixedMAP@PAUIDirect3DStateBlock9@@UmapMatrixTextures@R_dsgraph@@Udoug_lea_allocator@@@@0@Z 10019c20 f i r2.obj
 0001:00018c30       ??$_Destroy_range@U?$_Wrap_alloc@V?$doug_lea_alloc@PAUTNode@?$FixedMAP@PAUIDirect3DStateBlock9@@UmapMatrixTextures@R_dsgraph@@Udoug_lea_allocator@@@@@@@std@@@std@@YAXPAPAUTNode@?$FixedMAP@PAUIDirect3DStateBlock9@@UmapMatrixTextures@R_dsgraph@@Udoug_lea_allocator@@@@0AAU?$_Wrap_alloc@V?$doug_lea_alloc@PAUTNode@?$FixedMAP@PAUIDirect3DStateBlock9@@UmapMatrixTextures@R_dsgraph@@Udoug_lea_allocator@@@@@@@0@@Z 10019c30 f i r2.obj
 0001:00018c40       ?_Destroy@?$vector@PAUTNode@?$FixedMAP@PAUIDirect3DStateBlock9@@UmapMatrixTextures@R_dsgraph@@Udoug_lea_allocator@@@@V?$doug_lea_alloc@PAUTNode@?$FixedMAP@PAUIDirect3DStateBlock9@@UmapMatrixTextures@R_dsgraph@@Udoug_lea_allocator@@@@@@@std@@IAEXPAPAUTNode@?$FixedMAP@PAUIDirect3DStateBlock9@@UmapMatrixTextures@R_dsgraph@@Udoug_lea_allocator@@@@0@Z 10019c40 f i r2.obj
 0001:00018c50       ?clear@?$vector@PAUTNode@?$FixedMAP@PAUIDirect3DStateBlock9@@UmapMatrixTextures@R_dsgraph@@Udoug_lea_allocator@@@@V?$doug_lea_alloc@PAUTNode@?$FixedMAP@PAUIDirect3DStateBlock9@@UmapMatrixTextures@R_dsgraph@@Udoug_lea_allocator@@@@@@@std@@QAEXXZ 10019c50 f i r2.obj
 0001:00018c60       ?clear_and_free@?$xr_vector@PAUTNode@?$FixedMAP@PAUIDirect3DStateBlock9@@UmapMatrixTextures@R_dsgraph@@Udoug_lea_allocator@@@@V?$doug_lea_alloc@PAUTNode@?$FixedMAP@PAUIDirect3DStateBlock9@@UmapMatrixTextures@R_dsgraph@@Udoug_lea_allocator@@@@@@@@QAEXXZ 10019c60 f i r2.obj
 0001:00018c70       ?clear@?$xr_vector@PAUTNode@?$FixedMAP@PAUIDirect3DStateBlock9@@UmapMatrixTextures@R_dsgraph@@Udoug_lea_allocator@@@@V?$doug_lea_alloc@PAUTNode@?$FixedMAP@PAUIDirect3DStateBlock9@@UmapMatrixTextures@R_dsgraph@@Udoug_lea_allocator@@@@@@@@QAEXXZ 10019c70 f i r2.obj
 0001:00018c80       ??0?$doug_lea_alloc@PAUTNode@?$FixedMAP@PAUSTextureList@@UmapMatrixItems@R_dsgraph@@Udoug_lea_allocator@@@@@@QAE@XZ 10019c80 f i r2.obj
 0001:00018c90       ??0?$_Wrap_alloc@V?$doug_lea_alloc@PAUTNode@?$FixedMAP@PAUSTextureList@@UmapMatrixItems@R_dsgraph@@Udoug_lea_allocator@@@@@@@std@@QAE@XZ 10019c90 f i r2.obj
 0001:00018ca0       ?_Getal@?$_Vector_alloc@$0A@U?$_Vec_base_types@PAUTNode@?$FixedMAP@PAUSTextureList@@UmapMatrixItems@R_dsgraph@@Udoug_lea_allocator@@@@V?$doug_lea_alloc@PAUTNode@?$FixedMAP@PAUSTextureList@@UmapMatrixItems@R_dsgraph@@Udoug_lea_allocator@@@@@@@std@@@std@@QBE?AU?$_Wrap_alloc@V?$doug_lea_alloc@PAUTNode@?$FixedMAP@PAUSTextureList@@UmapMatrixItems@R_dsgraph@@Udoug_lea_allocator@@@@@@@2@XZ 10019ca0 f i r2.obj
 0001:00018cb0       ??$_Destroy_range@U?$_Wrap_alloc@V?$doug_lea_alloc@PAUTNode@?$FixedMAP@PAUSTextureList@@UmapMatrixItems@R_dsgraph@@Udoug_lea_allocator@@@@@@@std@@@std@@YAXPAPAUTNode@?$FixedMAP@PAUSTextureList@@UmapMatrixItems@R_dsgraph@@Udoug_lea_allocator@@@@0AAU?$_Wrap_alloc@V?$doug_lea_alloc@PAUTNode@?$FixedMAP@PAUSTextureList@@UmapMatrixItems@R_dsgraph@@Udoug_lea_allocator@@@@@@@0@U_Scalar_ptr_iterator_tag@0@@Z 10019cb0 f i r2.obj
 0001:00018cc0       ??$_Ptr_cat@PAUTNode@?$FixedMAP@PAUSTextureList@@UmapMatrixItems@R_dsgraph@@Udoug_lea_allocator@@@@PAU12@@std@@YA?AU_Scalar_ptr_iterator_tag@0@PAPAUTNode@?$FixedMAP@PAUSTextureList@@UmapMatrixItems@R_dsgraph@@Udoug_lea_allocator@@@@0@Z 10019cc0 f i r2.obj
 0001:00018cd0       ??$_Destroy_range@U?$_Wrap_alloc@V?$doug_lea_alloc@PAUTNode@?$FixedMAP@PAUSTextureList@@UmapMatrixItems@R_dsgraph@@Udoug_lea_allocator@@@@@@@std@@@std@@YAXPAPAUTNode@?$FixedMAP@PAUSTextureList@@UmapMatrixItems@R_dsgraph@@Udoug_lea_allocator@@@@0AAU?$_Wrap_alloc@V?$doug_lea_alloc@PAUTNode@?$FixedMAP@PAUSTextureList@@UmapMatrixItems@R_dsgraph@@Udoug_lea_allocator@@@@@@@0@@Z 10019cd0 f i r2.obj
 0001:00018ce0       ?_Destroy@?$vector@PAUTNode@?$FixedMAP@PAUSTextureList@@UmapMatrixItems@R_dsgraph@@Udoug_lea_allocator@@@@V?$doug_lea_alloc@PAUTNode@?$FixedMAP@PAUSTextureList@@UmapMatrixItems@R_dsgraph@@Udoug_lea_allocator@@@@@@@std@@IAEXPAPAUTNode@?$FixedMAP@PAUSTextureList@@UmapMatrixItems@R_dsgraph@@Udoug_lea_allocator@@@@0@Z 10019ce0 f i r2.obj
 0001:00018cf0       ?clear@?$vector@PAUTNode@?$FixedMAP@PAUSTextureList@@UmapMatrixItems@R_dsgraph@@Udoug_lea_allocator@@@@V?$doug_lea_alloc@PAUTNode@?$FixedMAP@PAUSTextureList@@UmapMatrixItems@R_dsgraph@@Udoug_lea_allocator@@@@@@@std@@QAEXXZ 10019cf0 f i r2.obj
 0001:00018d00       ?clear_and_free@?$xr_vector@PAUTNode@?$FixedMAP@PAUSTextureList@@UmapMatrixItems@R_dsgraph@@Udoug_lea_allocator@@@@V?$doug_lea_alloc@PAUTNode@?$FixedMAP@PAUSTextureList@@UmapMatrixItems@R_dsgraph@@Udoug_lea_allocator@@@@@@@@QAEXXZ 10019d00 f i r2.obj
 0001:00018d10       ?clear@?$xr_vector@PAUTNode@?$FixedMAP@PAUSTextureList@@UmapMatrixItems@R_dsgraph@@Udoug_lea_allocator@@@@V?$doug_lea_alloc@PAUTNode@?$FixedMAP@PAUSTextureList@@UmapMatrixItems@R_dsgraph@@Udoug_lea_allocator@@@@@@@@QAEXXZ 10019d10 f i r2.obj
 0001:00018d20       ??0?$doug_lea_alloc@U_LodItem@R_dsgraph@@@@QAE@XZ 10019d20 f i r2.obj
 0001:00018d30       ??0?$_Wrap_alloc@V?$doug_lea_alloc@U_LodItem@R_dsgraph@@@@@std@@QAE@XZ 10019d30 f i r2.obj
 0001:00018d40       ?_Getal@?$_Vector_alloc@$0A@U?$_Vec_base_types@U_LodItem@R_dsgraph@@V?$doug_lea_alloc@U_LodItem@R_dsgraph@@@@@std@@@std@@QBE?AU?$_Wrap_alloc@V?$doug_lea_alloc@U_LodItem@R_dsgraph@@@@@2@XZ 10019d40 f i r2.obj
 0001:00018d50       ??$_Destroy@U_LodItem@R_dsgraph@@@std@@YAXPAU_LodItem@R_dsgraph@@@Z 10019d50 f i r2.obj
 0001:00018d60       ?destroy@?$doug_lea_alloc@U_LodItem@R_dsgraph@@@@QAEXPAU_LodItem@R_dsgraph@@@Z 10019d60 f i r2.obj
 0001:00018d70       ??$_Fn@V?$doug_lea_alloc@U_LodItem@R_dsgraph@@@@U_LodItem@R_dsgraph@@@_Alloc_destroy@std@@SAXHAAV?$doug_lea_alloc@U_LodItem@R_dsgraph@@@@PAU_LodItem@R_dsgraph@@@Z 10019d70 f i r2.obj
 0001:00018d80       ??$destroy@U_LodItem@R_dsgraph@@@?$allocator_traits@V?$doug_lea_alloc@U_LodItem@R_dsgraph@@@@@std@@SAXAAV?$doug_lea_alloc@U_LodItem@R_dsgraph@@@@PAU_LodItem@R_dsgraph@@@Z 10019d80 f i r2.obj
 0001:00018d90       ??$destroy@U_LodItem@R_dsgraph@@@?$_Wrap_alloc@V?$doug_lea_alloc@U_LodItem@R_dsgraph@@@@@std@@QAEXPAU_LodItem@R_dsgraph@@@Z 10019d90 f i r2.obj
 0001:00018da0       ??$_Destroy_range@U?$_Wrap_alloc@V?$doug_lea_alloc@U_LodItem@R_dsgraph@@@@@std@@@std@@YAXPAU_LodItem@R_dsgraph@@0AAU?$_Wrap_alloc@V?$doug_lea_alloc@U_LodItem@R_dsgraph@@@@@0@U_Nonscalar_ptr_iterator_tag@0@@Z 10019da0 f i r2.obj
 0001:00018db0       ??$_Ptr_cat@U_LodItem@R_dsgraph@@U12@@std@@YA?AU_Nonscalar_ptr_iterator_tag@0@PAU_LodItem@R_dsgraph@@0@Z 10019db0 f i r2.obj
 0001:00018dc0       ??$_Destroy_range@U?$_Wrap_alloc@V?$doug_lea_alloc@U_LodItem@R_dsgraph@@@@@std@@@std@@YAXPAU_LodItem@R_dsgraph@@0AAU?$_Wrap_alloc@V?$doug_lea_alloc@U_LodItem@R_dsgraph@@@@@0@@Z 10019dc0 f i r2.obj
 0001:00018dd0       ?_Destroy@?$vector@U_LodItem@R_dsgraph@@V?$doug_lea_alloc@U_LodItem@R_dsgraph@@@@@std@@IAEXPAU_LodItem@R_dsgraph@@0@Z 10019dd0 f i r2.obj
 0001:00018de0       ?clear@?$vector@U_LodItem@R_dsgraph@@V?$doug_lea_alloc@U_LodItem@R_dsgraph@@@@@std@@QAEXXZ 10019de0 f i r2.obj
 0001:00018df0       ?clear_and_free@?$xr_vector@U_LodItem@R_dsgraph@@V?$doug_lea_alloc@U_LodItem@R_dsgraph@@@@@@QAEXXZ 10019df0 f i r2.obj
 0001:00018e00       ?clear@?$xr_vector@U_LodItem@R_dsgraph@@V?$doug_lea_alloc@U_LodItem@R_dsgraph@@@@@@QAEXXZ 10019e00 f i r2.obj
 0001:00018e10       ??0?$doug_lea_alloc@H@@QAE@XZ 10019e10 f i r2.obj
 0001:00018e20       ??0?$_Wrap_alloc@V?$doug_lea_alloc@H@@@std@@QAE@XZ 10019e20 f i r2.obj
 0001:00018e30       ?_Getal@?$_Vector_alloc@$0A@U?$_Vec_base_types@HV?$doug_lea_alloc@H@@@std@@@std@@QBE?AU?$_Wrap_alloc@V?$doug_lea_alloc@H@@@2@XZ 10019e30 f i r2.obj
 0001:00018e40       ??$_Destroy_range@U?$_Wrap_alloc@V?$doug_lea_alloc@H@@@std@@@std@@YAXPAH0AAU?$_Wrap_alloc@V?$doug_lea_alloc@H@@@0@U_Scalar_ptr_iterator_tag@0@@Z 10019e40 f i r2.obj
 0001:00018e50       ??$_Ptr_cat@HH@std@@YA?AU_Scalar_ptr_iterator_tag@0@PAH0@Z 10019e50 f i r2.obj
 0001:00018e60       ??$_Destroy_range@U?$_Wrap_alloc@V?$doug_lea_alloc@H@@@std@@@std@@YAXPAH0AAU?$_Wrap_alloc@V?$doug_lea_alloc@H@@@0@@Z 10019e60 f i r2.obj
 0001:00018e70       ?_Destroy@?$vector@HV?$doug_lea_alloc@H@@@std@@IAEXPAH0@Z 10019e70 f i r2.obj
 0001:00018e80       ?clear@?$vector@HV?$doug_lea_alloc@H@@@std@@QAEXXZ 10019e80 f i r2.obj
 0001:00018e90       ?clear_and_free@?$xr_vector@HV?$doug_lea_alloc@H@@@@QAEXXZ 10019e90 f i r2.obj
 0001:00018ea0       ?clear@?$xr_vector@HV?$doug_lea_alloc@H@@@@QAEXXZ 10019ea0 f i r2.obj
 0001:00018eb0       ??0?$xalloc@PAVISpatial@@@@QAE@XZ 10019eb0 f i r2.obj
 0001:00018ec0       ??0?$_Wrap_alloc@V?$xalloc@PAVISpatial@@@@@std@@QAE@XZ 10019ec0 f i r2.obj
 0001:00018ed0       ?_Getal@?$_Vector_alloc@$0A@U?$_Vec_base_types@PAVISpatial@@V?$xalloc@PAVISpatial@@@@@std@@@std@@QBE?AU?$_Wrap_alloc@V?$xalloc@PAVISpatial@@@@@2@XZ 10019ed0 f i r2.obj
 0001:00018ee0       ??$_Destroy_range@U?$_Wrap_alloc@V?$xalloc@PAVISpatial@@@@@std@@@std@@YAXPAPAVISpatial@@0AAU?$_Wrap_alloc@V?$xalloc@PAVISpatial@@@@@0@U_Scalar_ptr_iterator_tag@0@@Z 10019ee0 f i r2.obj
 0001:00018ef0       ??$_Ptr_cat@PAVISpatial@@PAV1@@std@@YA?AU_Scalar_ptr_iterator_tag@0@PAPAVISpatial@@0@Z 10019ef0 f i r2.obj
 0001:00018f00       ??$_Destroy_range@U?$_Wrap_alloc@V?$xalloc@PAVISpatial@@@@@std@@@std@@YAXPAPAVISpatial@@0AAU?$_Wrap_alloc@V?$xalloc@PAVISpatial@@@@@0@@Z 10019f00 f i r2.obj
 0001:00018f10       ?_Destroy@?$vector@PAVISpatial@@V?$xalloc@PAVISpatial@@@@@std@@IAEXPAPAVISpatial@@0@Z 10019f10 f i r2.obj
 0001:00018f20       ?clear@?$vector@PAVISpatial@@V?$xalloc@PAVISpatial@@@@@std@@QAEXXZ 10019f20 f i r2.obj
 0001:00018f30       ?clear_and_free@?$xr_vector@PAVISpatial@@V?$xalloc@PAVISpatial@@@@@@QAEXXZ 10019f30 f i r2.obj
 0001:00018f40       ?clear@?$xr_vector@PAVISpatial@@V?$xalloc@PAVISpatial@@@@@@QAEXXZ 10019f40 f i r2.obj
 0001:00018f50       ??0?$doug_lea_alloc@PAVIRender_Visual@@@@QAE@XZ 10019f50 f i r2.obj
 0001:00018f60       ??0?$_Wrap_alloc@V?$doug_lea_alloc@PAVIRender_Visual@@@@@std@@QAE@XZ 10019f60 f i r2.obj
 0001:00018f70       ?_Getal@?$_Vector_alloc@$0A@U?$_Vec_base_types@PAVIRender_Visual@@V?$doug_lea_alloc@PAVIRender_Visual@@@@@std@@@std@@QBE?AU?$_Wrap_alloc@V?$doug_lea_alloc@PAVIRender_Visual@@@@@2@XZ 10019f70 f i r2.obj
 0001:00018f80       ??$_Destroy_range@U?$_Wrap_alloc@V?$doug_lea_alloc@PAVIRender_Visual@@@@@std@@@std@@YAXPAPAVIRender_Visual@@0AAU?$_Wrap_alloc@V?$doug_lea_alloc@PAVIRender_Visual@@@@@0@U_Scalar_ptr_iterator_tag@0@@Z 10019f80 f i r2.obj
 0001:00018f90       ??$_Ptr_cat@PAVIRender_Visual@@PAV1@@std@@YA?AU_Scalar_ptr_iterator_tag@0@PAPAVIRender_Visual@@0@Z 10019f90 f i r2.obj
 0001:00018fa0       ??$_Destroy_range@U?$_Wrap_alloc@V?$doug_lea_alloc@PAVIRender_Visual@@@@@std@@@std@@YAXPAPAVIRender_Visual@@0AAU?$_Wrap_alloc@V?$doug_lea_alloc@PAVIRender_Visual@@@@@0@@Z 10019fa0 f i r2.obj
 0001:00018fb0       ?_Destroy@?$vector@PAVIRender_Visual@@V?$doug_lea_alloc@PAVIRender_Visual@@@@@std@@IAEXPAPAVIRender_Visual@@0@Z 10019fb0 f i r2.obj
 0001:00018fc0       ?clear@?$vector@PAVIRender_Visual@@V?$doug_lea_alloc@PAVIRender_Visual@@@@@std@@QAEXXZ 10019fc0 f i r2.obj
 0001:00018fd0       ?clear_and_free@?$xr_vector@PAVIRender_Visual@@V?$doug_lea_alloc@PAVIRender_Visual@@@@@@QAEXXZ 10019fd0 f i r2.obj
 0001:00018fe0       ?clear@?$xr_vector@PAVIRender_Visual@@V?$doug_lea_alloc@PAVIRender_Visual@@@@@@QAEXXZ 10019fe0 f i r2.obj
 0001:00018ff0       ?begin@?$FixedMAP@PAUIDirect3DVertexShader9@@UmapNormalPS@R_dsgraph@@Udoug_lea_allocator@@@@QAEPAUTNode@1@XZ 10019ff0 f i r2.obj
 0001:00019000       ?last@?$FixedMAP@PAUIDirect3DVertexShader9@@UmapNormalPS@R_dsgraph@@Udoug_lea_allocator@@@@QAEPAUTNode@1@XZ 1001a000 f i r2.obj
 0001:00019020       ?begin@?$FixedMAP@PAUIDirect3DPixelShader9@@UmapNormalCS@R_dsgraph@@Udoug_lea_allocator@@@@QAEPAUTNode@1@XZ 1001a020 f i r2.obj
 0001:00019030       ?last@?$FixedMAP@PAUIDirect3DPixelShader9@@UmapNormalCS@R_dsgraph@@Udoug_lea_allocator@@@@QAEPAUTNode@1@XZ 1001a030 f i r2.obj
 0001:00019050       ?begin@?$FixedMAP@PAVR_constant_table@@UmapNormalStates@R_dsgraph@@Udoug_lea_allocator@@@@QAEPAUTNode@1@XZ 1001a050 f i r2.obj
 0001:00019060       ?last@?$FixedMAP@PAVR_constant_table@@UmapNormalStates@R_dsgraph@@Udoug_lea_allocator@@@@QAEPAUTNode@1@XZ 1001a060 f i r2.obj
 0001:00019080       ?begin@?$FixedMAP@PAUIDirect3DStateBlock9@@UmapNormalTextures@R_dsgraph@@Udoug_lea_allocator@@@@QAEPAUTNode@1@XZ 1001a080 f i r2.obj
 0001:00019090       ?last@?$FixedMAP@PAUIDirect3DStateBlock9@@UmapNormalTextures@R_dsgraph@@Udoug_lea_allocator@@@@QAEPAUTNode@1@XZ 1001a090 f i r2.obj
 0001:000190b0       ?begin@?$FixedMAP@PAUSTextureList@@UmapNormalItems@R_dsgraph@@Udoug_lea_allocator@@@@QAEPAUTNode@1@XZ 1001a0b0 f i r2.obj
 0001:000190c0       ?last@?$FixedMAP@PAUSTextureList@@UmapNormalItems@R_dsgraph@@Udoug_lea_allocator@@@@QAEPAUTNode@1@XZ 1001a0c0 f i r2.obj
 0001:000190e0       ??$_Destroy@U_NormalItem@R_dsgraph@@@std@@YAXPAU_NormalItem@R_dsgraph@@@Z 1001a0e0 f i r2.obj
 0001:000190f0       ?destroy@?$doug_lea_alloc@U_NormalItem@R_dsgraph@@@@QAEXPAU_NormalItem@R_dsgraph@@@Z 1001a0f0 f i r2.obj
 0001:00019100       ??$_Fn@V?$doug_lea_alloc@U_NormalItem@R_dsgraph@@@@U_NormalItem@R_dsgraph@@@_Alloc_destroy@std@@SAXHAAV?$doug_lea_alloc@U_NormalItem@R_dsgraph@@@@PAU_NormalItem@R_dsgraph@@@Z 1001a100 f i r2.obj
 0001:00019110       ??$destroy@U_NormalItem@R_dsgraph@@@?$allocator_traits@V?$doug_lea_alloc@U_NormalItem@R_dsgraph@@@@@std@@SAXAAV?$doug_lea_alloc@U_NormalItem@R_dsgraph@@@@PAU_NormalItem@R_dsgraph@@@Z 1001a110 f i r2.obj
 0001:00019120       ??$destroy@U_NormalItem@R_dsgraph@@@?$_Wrap_alloc@V?$doug_lea_alloc@U_NormalItem@R_dsgraph@@@@@std@@QAEXPAU_NormalItem@R_dsgraph@@@Z 1001a120 f i r2.obj
 0001:00019130       ??$_Destroy_range@U?$_Wrap_alloc@V?$doug_lea_alloc@U_NormalItem@R_dsgraph@@@@@std@@@std@@YAXPAU_NormalItem@R_dsgraph@@0AAU?$_Wrap_alloc@V?$doug_lea_alloc@U_NormalItem@R_dsgraph@@@@@0@U_Nonscalar_ptr_iterator_tag@0@@Z 1001a130 f i r2.obj
 0001:00019140       ??$_Ptr_cat@U_NormalItem@R_dsgraph@@U12@@std@@YA?AU_Nonscalar_ptr_iterator_tag@0@PAU_NormalItem@R_dsgraph@@0@Z 1001a140 f i r2.obj
 0001:00019150       ??$_Destroy_range@U?$_Wrap_alloc@V?$doug_lea_alloc@U_NormalItem@R_dsgraph@@@@@std@@@std@@YAXPAU_NormalItem@R_dsgraph@@0AAU?$_Wrap_alloc@V?$doug_lea_alloc@U_NormalItem@R_dsgraph@@@@@0@@Z 1001a150 f i r2.obj
 0001:00019160       ?_Destroy@?$vector@U_NormalItem@R_dsgraph@@V?$doug_lea_alloc@U_NormalItem@R_dsgraph@@@@@std@@IAEXPAU_NormalItem@R_dsgraph@@0@Z 1001a160 f i r2.obj
 0001:00019170       ?deallocate@?$doug_lea_alloc@U_NormalItem@R_dsgraph@@@@QBEXPAU_NormalItem@R_dsgraph@@I@Z 1001a170 f i r2.obj
 0001:00019180       ?deallocate@?$_Wrap_alloc@V?$doug_lea_alloc@U_NormalItem@R_dsgraph@@@@@std@@QAEXPAU_NormalItem@R_dsgraph@@I@Z 1001a180 f i r2.obj
 0001:00019190       ??0?$doug_lea_alloc@U_NormalItem@R_dsgraph@@@@QAE@XZ 1001a190 f i r2.obj
 0001:000191a0       ??0?$_Wrap_alloc@V?$doug_lea_alloc@U_NormalItem@R_dsgraph@@@@@std@@QAE@XZ 1001a1a0 f i r2.obj
 0001:000191b0       ?_Getal@?$_Vector_alloc@$0A@U?$_Vec_base_types@U_NormalItem@R_dsgraph@@V?$doug_lea_alloc@U_NormalItem@R_dsgraph@@@@@std@@@std@@QBE?AU?$_Wrap_alloc@V?$doug_lea_alloc@U_NormalItem@R_dsgraph@@@@@2@XZ 1001a1b0 f i r2.obj
 0001:000191c0       ?_Tidy@?$vector@U_NormalItem@R_dsgraph@@V?$doug_lea_alloc@U_NormalItem@R_dsgraph@@@@@std@@IAEXXZ 1001a1c0 f i r2.obj
 0001:000191f0       ??1?$vector@U_NormalItem@R_dsgraph@@V?$doug_lea_alloc@U_NormalItem@R_dsgraph@@@@@std@@QAE@XZ 1001a1f0 f i r2.obj
 0001:00019220       ??1?$xr_vector@U_NormalItem@R_dsgraph@@V?$doug_lea_alloc@U_NormalItem@R_dsgraph@@@@@@QAE@XZ 1001a220 f i r2.obj
 0001:00019250       ??1mapNormalItems@R_dsgraph@@QAE@XZ 1001a250 f i r2.obj
 0001:00019280       ??1TNode@?$FixedMAP@PAUSTextureList@@UmapNormalItems@R_dsgraph@@Udoug_lea_allocator@@@@QAE@XZ 1001a280 f i r2.obj
 0001:000192b0       ??_GTNode@?$FixedMAP@PAUSTextureList@@UmapNormalItems@R_dsgraph@@Udoug_lea_allocator@@@@QAEPAXI@Z 1001a2b0 f i r2.obj
 0001:000192e0       ??$dealloc@UTNode@?$FixedMAP@PAUSTextureList@@UmapNormalItems@R_dsgraph@@Udoug_lea_allocator@@@@@doug_lea_allocator@@SAXAAPAUTNode@?$FixedMAP@PAUSTextureList@@UmapNormalItems@R_dsgraph@@Udoug_lea_allocator@@@@@Z 1001a2e0 f i r2.obj
 0001:00019300       ?destroy@?$FixedMAP@PAUSTextureList@@UmapNormalItems@R_dsgraph@@Udoug_lea_allocator@@@@QAEXXZ 1001a300 f i r2.obj
 0001:00019370       ??1?$FixedMAP@PAUSTextureList@@UmapNormalItems@R_dsgraph@@Udoug_lea_allocator@@@@QAE@XZ 1001a370 f i r2.obj
 0001:00019380       ??1mapNormalTextures@R_dsgraph@@QAE@XZ 1001a380 f i r2.obj
 0001:00019390       ??1TNode@?$FixedMAP@PAUIDirect3DStateBlock9@@UmapNormalTextures@R_dsgraph@@Udoug_lea_allocator@@@@QAE@XZ 1001a390 f i r2.obj
 0001:000193a0       ??_GTNode@?$FixedMAP@PAUIDirect3DStateBlock9@@UmapNormalTextures@R_dsgraph@@Udoug_lea_allocator@@@@QAEPAXI@Z 1001a3a0 f i r2.obj
 0001:000193c0       ??$dealloc@UTNode@?$FixedMAP@PAUIDirect3DStateBlock9@@UmapNormalTextures@R_dsgraph@@Udoug_lea_allocator@@@@@doug_lea_allocator@@SAXAAPAUTNode@?$FixedMAP@PAUIDirect3DStateBlock9@@UmapNormalTextures@R_dsgraph@@Udoug_lea_allocator@@@@@Z 1001a3c0 f i r2.obj
 0001:000193e0       ?destroy@?$FixedMAP@PAUIDirect3DStateBlock9@@UmapNormalTextures@R_dsgraph@@Udoug_lea_allocator@@@@QAEXXZ 1001a3e0 f i r2.obj
 0001:00019430       ??1?$FixedMAP@PAUIDirect3DStateBlock9@@UmapNormalTextures@R_dsgraph@@Udoug_lea_allocator@@@@QAE@XZ 1001a430 f i r2.obj
 0001:00019440       ??1mapNormalStates@R_dsgraph@@QAE@XZ 1001a440 f i r2.obj
 0001:00019450       ??1TNode@?$FixedMAP@PAVR_constant_table@@UmapNormalStates@R_dsgraph@@Udoug_lea_allocator@@@@QAE@XZ 1001a450 f i r2.obj
 0001:00019460       ??_GTNode@?$FixedMAP@PAVR_constant_table@@UmapNormalStates@R_dsgraph@@Udoug_lea_allocator@@@@QAEPAXI@Z 1001a460 f i r2.obj
 0001:00019480       ??$dealloc@UTNode@?$FixedMAP@PAVR_constant_table@@UmapNormalStates@R_dsgraph@@Udoug_lea_allocator@@@@@doug_lea_allocator@@SAXAAPAUTNode@?$FixedMAP@PAVR_constant_table@@UmapNormalStates@R_dsgraph@@Udoug_lea_allocator@@@@@Z 1001a480 f i r2.obj
 0001:000194a0       ?destroy@?$FixedMAP@PAVR_constant_table@@UmapNormalStates@R_dsgraph@@Udoug_lea_allocator@@@@QAEXXZ 1001a4a0 f i r2.obj
 0001:000194f0       ??1?$FixedMAP@PAVR_constant_table@@UmapNormalStates@R_dsgraph@@Udoug_lea_allocator@@@@QAE@XZ 1001a4f0 f i r2.obj
 0001:00019500       ??1mapNormalCS@R_dsgraph@@QAE@XZ 1001a500 f i r2.obj
 0001:00019510       ??1TNode@?$FixedMAP@PAUIDirect3DPixelShader9@@UmapNormalCS@R_dsgraph@@Udoug_lea_allocator@@@@QAE@XZ 1001a510 f i r2.obj
 0001:00019520       ??_GTNode@?$FixedMAP@PAUIDirect3DPixelShader9@@UmapNormalCS@R_dsgraph@@Udoug_lea_allocator@@@@QAEPAXI@Z 1001a520 f i r2.obj
 0001:00019540       ??$dealloc@UTNode@?$FixedMAP@PAUIDirect3DPixelShader9@@UmapNormalCS@R_dsgraph@@Udoug_lea_allocator@@@@@doug_lea_allocator@@SAXAAPAUTNode@?$FixedMAP@PAUIDirect3DPixelShader9@@UmapNormalCS@R_dsgraph@@Udoug_lea_allocator@@@@@Z 1001a540 f i r2.obj
 0001:00019560       ?destroy@?$FixedMAP@PAUIDirect3DPixelShader9@@UmapNormalCS@R_dsgraph@@Udoug_lea_allocator@@@@QAEXXZ 1001a560 f i r2.obj
 0001:000195b0       ??1?$FixedMAP@PAUIDirect3DPixelShader9@@UmapNormalCS@R_dsgraph@@Udoug_lea_allocator@@@@QAE@XZ 1001a5b0 f i r2.obj
 0001:000195c0       ??1mapNormalPS@R_dsgraph@@QAE@XZ 1001a5c0 f i r2.obj
 0001:000195d0       ??1TNode@?$FixedMAP@PAUIDirect3DVertexShader9@@UmapNormalPS@R_dsgraph@@Udoug_lea_allocator@@@@QAE@XZ 1001a5d0 f i r2.obj
 0001:000195e0       ??_GTNode@?$FixedMAP@PAUIDirect3DVertexShader9@@UmapNormalPS@R_dsgraph@@Udoug_lea_allocator@@@@QAEPAXI@Z 1001a5e0 f i r2.obj
 0001:00019600       ??$dealloc@UTNode@?$FixedMAP@PAUIDirect3DVertexShader9@@UmapNormalPS@R_dsgraph@@Udoug_lea_allocator@@@@@doug_lea_allocator@@SAXAAPAUTNode@?$FixedMAP@PAUIDirect3DVertexShader9@@UmapNormalPS@R_dsgraph@@Udoug_lea_allocator@@@@@Z 1001a600 f i r2.obj
 0001:00019620       ?destroy@?$FixedMAP@PAUIDirect3DVertexShader9@@UmapNormalPS@R_dsgraph@@Udoug_lea_allocator@@@@QAEXXZ 1001a620 f i r2.obj
 0001:00019670       ?begin@?$FixedMAP@PAUIDirect3DVertexShader9@@UmapMatrixPS@R_dsgraph@@Udoug_lea_allocator@@@@QAEPAUTNode@1@XZ 1001a670 f i r2.obj
 0001:00019680       ?last@?$FixedMAP@PAUIDirect3DVertexShader9@@UmapMatrixPS@R_dsgraph@@Udoug_lea_allocator@@@@QAEPAUTNode@1@XZ 1001a680 f i r2.obj
 0001:000196a0       ?begin@?$FixedMAP@PAUIDirect3DPixelShader9@@UmapMatrixCS@R_dsgraph@@Udoug_lea_allocator@@@@QAEPAUTNode@1@XZ 1001a6a0 f i r2.obj
 0001:000196b0       ?last@?$FixedMAP@PAUIDirect3DPixelShader9@@UmapMatrixCS@R_dsgraph@@Udoug_lea_allocator@@@@QAEPAUTNode@1@XZ 1001a6b0 f i r2.obj
 0001:000196d0       ?begin@?$FixedMAP@PAVR_constant_table@@UmapMatrixStates@R_dsgraph@@Udoug_lea_allocator@@@@QAEPAUTNode@1@XZ 1001a6d0 f i r2.obj
 0001:000196e0       ?last@?$FixedMAP@PAVR_constant_table@@UmapMatrixStates@R_dsgraph@@Udoug_lea_allocator@@@@QAEPAUTNode@1@XZ 1001a6e0 f i r2.obj
 0001:00019700       ?begin@?$FixedMAP@PAUIDirect3DStateBlock9@@UmapMatrixTextures@R_dsgraph@@Udoug_lea_allocator@@@@QAEPAUTNode@1@XZ 1001a700 f i r2.obj
 0001:00019710       ?last@?$FixedMAP@PAUIDirect3DStateBlock9@@UmapMatrixTextures@R_dsgraph@@Udoug_lea_allocator@@@@QAEPAUTNode@1@XZ 1001a710 f i r2.obj
 0001:00019730       ?begin@?$FixedMAP@PAUSTextureList@@UmapMatrixItems@R_dsgraph@@Udoug_lea_allocator@@@@QAEPAUTNode@1@XZ 1001a730 f i r2.obj
 0001:00019740       ?last@?$FixedMAP@PAUSTextureList@@UmapMatrixItems@R_dsgraph@@Udoug_lea_allocator@@@@QAEPAUTNode@1@XZ 1001a740 f i r2.obj
 0001:00019760       ??$_Destroy@U_MatrixItem@R_dsgraph@@@std@@YAXPAU_MatrixItem@R_dsgraph@@@Z 1001a760 f i r2.obj
 0001:00019770       ?destroy@?$doug_lea_alloc@U_MatrixItem@R_dsgraph@@@@QAEXPAU_MatrixItem@R_dsgraph@@@Z 1001a770 f i r2.obj
 0001:00019780       ??$_Fn@V?$doug_lea_alloc@U_MatrixItem@R_dsgraph@@@@U_MatrixItem@R_dsgraph@@@_Alloc_destroy@std@@SAXHAAV?$doug_lea_alloc@U_MatrixItem@R_dsgraph@@@@PAU_MatrixItem@R_dsgraph@@@Z 1001a780 f i r2.obj
 0001:00019790       ??$destroy@U_MatrixItem@R_dsgraph@@@?$allocator_traits@V?$doug_lea_alloc@U_MatrixItem@R_dsgraph@@@@@std@@SAXAAV?$doug_lea_alloc@U_MatrixItem@R_dsgraph@@@@PAU_MatrixItem@R_dsgraph@@@Z 1001a790 f i r2.obj
 0001:000197a0       ??$destroy@U_MatrixItem@R_dsgraph@@@?$_Wrap_alloc@V?$doug_lea_alloc@U_MatrixItem@R_dsgraph@@@@@std@@QAEXPAU_MatrixItem@R_dsgraph@@@Z 1001a7a0 f i r2.obj
 0001:000197b0       ??$_Destroy_range@U?$_Wrap_alloc@V?$doug_lea_alloc@U_MatrixItem@R_dsgraph@@@@@std@@@std@@YAXPAU_MatrixItem@R_dsgraph@@0AAU?$_Wrap_alloc@V?$doug_lea_alloc@U_MatrixItem@R_dsgraph@@@@@0@U_Nonscalar_ptr_iterator_tag@0@@Z 1001a7b0 f i r2.obj
 0001:000197c0       ??$_Ptr_cat@U_MatrixItem@R_dsgraph@@U12@@std@@YA?AU_Nonscalar_ptr_iterator_tag@0@PAU_MatrixItem@R_dsgraph@@0@Z 1001a7c0 f i r2.obj
 0001:000197d0       ??$_Destroy_range@U?$_Wrap_alloc@V?$doug_lea_alloc@U_MatrixItem@R_dsgraph@@@@@std@@@std@@YAXPAU_MatrixItem@R_dsgraph@@0AAU?$_Wrap_alloc@V?$doug_lea_alloc@U_MatrixItem@R_dsgraph@@@@@0@@Z 1001a7d0 f i r2.obj
 0001:000197e0       ?_Destroy@?$vector@U_MatrixItem@R_dsgraph@@V?$doug_lea_alloc@U_MatrixItem@R_dsgraph@@@@@std@@IAEXPAU_MatrixItem@R_dsgraph@@0@Z 1001a7e0 f i r2.obj
 0001:000197f0       ?deallocate@?$doug_lea_alloc@U_MatrixItem@R_dsgraph@@@@QBEXPAU_MatrixItem@R_dsgraph@@I@Z 1001a7f0 f i r2.obj
 0001:00019800       ?deallocate@?$_Wrap_alloc@V?$doug_lea_alloc@U_MatrixItem@R_dsgraph@@@@@std@@QAEXPAU_MatrixItem@R_dsgraph@@I@Z 1001a800 f i r2.obj
 0001:00019810       ??0?$doug_lea_alloc@U_MatrixItem@R_dsgraph@@@@QAE@XZ 1001a810 f i r2.obj
 0001:00019820       ??0?$_Wrap_alloc@V?$doug_lea_alloc@U_MatrixItem@R_dsgraph@@@@@std@@QAE@XZ 1001a820 f i r2.obj
 0001:00019830       ?_Getal@?$_Vector_alloc@$0A@U?$_Vec_base_types@U_MatrixItem@R_dsgraph@@V?$doug_lea_alloc@U_MatrixItem@R_dsgraph@@@@@std@@@std@@QBE?AU?$_Wrap_alloc@V?$doug_lea_alloc@U_MatrixItem@R_dsgraph@@@@@2@XZ 1001a830 f i r2.obj
 0001:00019840       ?_Tidy@?$vector@U_MatrixItem@R_dsgraph@@V?$doug_lea_alloc@U_MatrixItem@R_dsgraph@@@@@std@@IAEXXZ 1001a840 f i r2.obj
 0001:00019870       ??1?$vector@U_MatrixItem@R_dsgraph@@V?$doug_lea_alloc@U_MatrixItem@R_dsgraph@@@@@std@@QAE@XZ 1001a870 f i r2.obj
 0001:000198a0       ??1?$xr_vector@U_MatrixItem@R_dsgraph@@V?$doug_lea_alloc@U_MatrixItem@R_dsgraph@@@@@@QAE@XZ 1001a8a0 f i r2.obj
 0001:000198d0       ??1mapMatrixItems@R_dsgraph@@QAE@XZ 1001a8d0 f i r2.obj
 0001:00019900       ??1TNode@?$FixedMAP@PAUSTextureList@@UmapMatrixItems@R_dsgraph@@Udoug_lea_allocator@@@@QAE@XZ 1001a900 f i r2.obj
 0001:00019930       ??_GTNode@?$FixedMAP@PAUSTextureList@@UmapMatrixItems@R_dsgraph@@Udoug_lea_allocator@@@@QAEPAXI@Z 1001a930 f i r2.obj
 0001:00019960       ??$dealloc@UTNode@?$FixedMAP@PAUSTextureList@@UmapMatrixItems@R_dsgraph@@Udoug_lea_allocator@@@@@doug_lea_allocator@@SAXAAPAUTNode@?$FixedMAP@PAUSTextureList@@UmapMatrixItems@R_dsgraph@@Udoug_lea_allocator@@@@@Z 1001a960 f i r2.obj
 0001:00019980       ?destroy@?$FixedMAP@PAUSTextureList@@UmapMatrixItems@R_dsgraph@@Udoug_lea_allocator@@@@QAEXXZ 1001a980 f i r2.obj
 0001:000199f0       ??1?$FixedMAP@PAUSTextureList@@UmapMatrixItems@R_dsgraph@@Udoug_lea_allocator@@@@QAE@XZ 1001a9f0 f i r2.obj
 0001:00019a00       ??1mapMatrixTextures@R_dsgraph@@QAE@XZ 1001aa00 f i r2.obj
 0001:00019a10       ??1TNode@?$FixedMAP@PAUIDirect3DStateBlock9@@UmapMatrixTextures@R_dsgraph@@Udoug_lea_allocator@@@@QAE@XZ 1001aa10 f i r2.obj
 0001:00019a20       ??_GTNode@?$FixedMAP@PAUIDirect3DStateBlock9@@UmapMatrixTextures@R_dsgraph@@Udoug_lea_allocator@@@@QAEPAXI@Z 1001aa20 f i r2.obj
 0001:00019a40       ??$dealloc@UTNode@?$FixedMAP@PAUIDirect3DStateBlock9@@UmapMatrixTextures@R_dsgraph@@Udoug_lea_allocator@@@@@doug_lea_allocator@@SAXAAPAUTNode@?$FixedMAP@PAUIDirect3DStateBlock9@@UmapMatrixTextures@R_dsgraph@@Udoug_lea_allocator@@@@@Z 1001aa40 f i r2.obj
 0001:00019a60       ?destroy@?$FixedMAP@PAUIDirect3DStateBlock9@@UmapMatrixTextures@R_dsgraph@@Udoug_lea_allocator@@@@QAEXXZ 1001aa60 f i r2.obj
 0001:00019ab0       ??1?$FixedMAP@PAUIDirect3DStateBlock9@@UmapMatrixTextures@R_dsgraph@@Udoug_lea_allocator@@@@QAE@XZ 1001aab0 f i r2.obj
 0001:00019ac0       ??1mapMatrixStates@R_dsgraph@@QAE@XZ 1001aac0 f i r2.obj
 0001:00019ad0       ??1TNode@?$FixedMAP@PAVR_constant_table@@UmapMatrixStates@R_dsgraph@@Udoug_lea_allocator@@@@QAE@XZ 1001aad0 f i r2.obj
 0001:00019ae0       ??_GTNode@?$FixedMAP@PAVR_constant_table@@UmapMatrixStates@R_dsgraph@@Udoug_lea_allocator@@@@QAEPAXI@Z 1001aae0 f i r2.obj
 0001:00019b00       ??$dealloc@UTNode@?$FixedMAP@PAVR_constant_table@@UmapMatrixStates@R_dsgraph@@Udoug_lea_allocator@@@@@doug_lea_allocator@@SAXAAPAUTNode@?$FixedMAP@PAVR_constant_table@@UmapMatrixStates@R_dsgraph@@Udoug_lea_allocator@@@@@Z 1001ab00 f i r2.obj
 0001:00019b20       ?destroy@?$FixedMAP@PAVR_constant_table@@UmapMatrixStates@R_dsgraph@@Udoug_lea_allocator@@@@QAEXXZ 1001ab20 f i r2.obj
 0001:00019b70       ??1?$FixedMAP@PAVR_constant_table@@UmapMatrixStates@R_dsgraph@@Udoug_lea_allocator@@@@QAE@XZ 1001ab70 f i r2.obj
 0001:00019b80       ??1mapMatrixCS@R_dsgraph@@QAE@XZ 1001ab80 f i r2.obj
 0001:00019b90       ??1TNode@?$FixedMAP@PAUIDirect3DPixelShader9@@UmapMatrixCS@R_dsgraph@@Udoug_lea_allocator@@@@QAE@XZ 1001ab90 f i r2.obj
 0001:00019ba0       ??_GTNode@?$FixedMAP@PAUIDirect3DPixelShader9@@UmapMatrixCS@R_dsgraph@@Udoug_lea_allocator@@@@QAEPAXI@Z 1001aba0 f i r2.obj
 0001:00019bc0       ??$dealloc@UTNode@?$FixedMAP@PAUIDirect3DPixelShader9@@UmapMatrixCS@R_dsgraph@@Udoug_lea_allocator@@@@@doug_lea_allocator@@SAXAAPAUTNode@?$FixedMAP@PAUIDirect3DPixelShader9@@UmapMatrixCS@R_dsgraph@@Udoug_lea_allocator@@@@@Z 1001abc0 f i r2.obj
 0001:00019be0       ?destroy@?$FixedMAP@PAUIDirect3DPixelShader9@@UmapMatrixCS@R_dsgraph@@Udoug_lea_allocator@@@@QAEXXZ 1001abe0 f i r2.obj
 0001:00019c30       ??1?$FixedMAP@PAUIDirect3DPixelShader9@@UmapMatrixCS@R_dsgraph@@Udoug_lea_allocator@@@@QAE@XZ 1001ac30 f i r2.obj
 0001:00019c40       ??1mapMatrixPS@R_dsgraph@@QAE@XZ 1001ac40 f i r2.obj
 0001:00019c50       ??1TNode@?$FixedMAP@PAUIDirect3DVertexShader9@@UmapMatrixPS@R_dsgraph@@Udoug_lea_allocator@@@@QAE@XZ 1001ac50 f i r2.obj
 0001:00019c60       ??_GTNode@?$FixedMAP@PAUIDirect3DVertexShader9@@UmapMatrixPS@R_dsgraph@@Udoug_lea_allocator@@@@QAEPAXI@Z 1001ac60 f i r2.obj
 0001:00019c80       ??$dealloc@UTNode@?$FixedMAP@PAUIDirect3DVertexShader9@@UmapMatrixPS@R_dsgraph@@Udoug_lea_allocator@@@@@doug_lea_allocator@@SAXAAPAUTNode@?$FixedMAP@PAUIDirect3DVertexShader9@@UmapMatrixPS@R_dsgraph@@Udoug_lea_allocator@@@@@Z 1001ac80 f i r2.obj
 0001:00019ca0       ?destroy@?$FixedMAP@PAUIDirect3DVertexShader9@@UmapMatrixPS@R_dsgraph@@Udoug_lea_allocator@@@@QAEXXZ 1001aca0 f i r2.obj
 0001:00019cf0       ?begin@?$FixedMAP@MU_LodItem@R_dsgraph@@Udoug_lea_allocator@@@@QAEPAUTNode@1@XZ 1001acf0 f i r2.obj
 0001:00019d00       ?last@?$FixedMAP@MU_LodItem@R_dsgraph@@Udoug_lea_allocator@@@@QAEPAUTNode@1@XZ 1001ad00 f i r2.obj
 0001:00019d10       ??$dealloc@UTNode@?$FixedMAP@MU_LodItem@R_dsgraph@@Udoug_lea_allocator@@@@@doug_lea_allocator@@SAXAAPAUTNode@?$FixedMAP@MU_LodItem@R_dsgraph@@Udoug_lea_allocator@@@@@Z 1001ad10 f i r2.obj
 0001:00019d30       ?destroy@?$FixedMAP@MU_LodItem@R_dsgraph@@Udoug_lea_allocator@@@@QAEXXZ 1001ad30 f i r2.obj
 0001:00019d50       ?begin@?$FixedMAP@MU_MatrixItemS@R_dsgraph@@Udoug_lea_allocator@@@@QAEPAUTNode@1@XZ 1001ad50 f i r2.obj
 0001:00019d60       ?last@?$FixedMAP@MU_MatrixItemS@R_dsgraph@@Udoug_lea_allocator@@@@QAEPAUTNode@1@XZ 1001ad60 f i r2.obj
 0001:00019d70       ??$dealloc@UTNode@?$FixedMAP@MU_MatrixItemS@R_dsgraph@@Udoug_lea_allocator@@@@@doug_lea_allocator@@SAXAAPAUTNode@?$FixedMAP@MU_MatrixItemS@R_dsgraph@@Udoug_lea_allocator@@@@@Z 1001ad70 f i r2.obj
 0001:00019d90       ?destroy@?$FixedMAP@MU_MatrixItemS@R_dsgraph@@Udoug_lea_allocator@@@@QAEXXZ 1001ad90 f i r2.obj
 0001:00019db0       ?r_dsgraph_destroy@R_dsgraph_structure@@QAEXXZ 1001adb0 f i r2.obj
 0001:0001a4b0       _sqrtf                     1001b4b0 f i r2.obj
 0001:0001a4c0       ?_sqrt@@YAMM@Z             1001b4c0 f i r2.obj
 0001:0001a4d0       ?blender_create@CRender@@UAEPAVIBlender@@_K@Z 1001b4d0 f   r2_blenders.obj
 0001:0001a740       ?blender_destroy@CRender@@UAEXAAPAVIBlender@@@Z 1001b740 f   r2_blenders.obj
 0001:0001a780       ??$xr_new@VCBlender_deffer_flat@@@@YAPAVCBlender_deffer_flat@@XZ 1001b780 f i r2_blenders.obj
 0001:0001a7a0       ??$xr_new@VCBlender_deffer_aref@@_N@@YAPAVCBlender_deffer_aref@@AB_N@Z 1001b7a0 f i r2_blenders.obj
 0001:0001a7d0       ??$xr_new@VCBlender_Screen_SET@@@@YAPAVCBlender_Screen_SET@@XZ 1001b7d0 f i r2_blenders.obj
 0001:0001a7f0       ??$xr_new@VCBlender_Editor_Wire@@@@YAPAVCBlender_Editor_Wire@@XZ 1001b7f0 f i r2_blenders.obj
 0001:0001a850       ??$xr_new@VCBlender_Editor_Selection@@@@YAPAVCBlender_Editor_Selection@@XZ 1001b850 f i r2_blenders.obj
 0001:0001a8b0       ??$xr_new@VCBlender_BmmD@@@@YAPAVCBlender_BmmD@@XZ 1001b8b0 f i r2_blenders.obj
 0001:0001a8d0       ??$xr_new@VCBlender_LmEbB@@@@YAPAVCBlender_LmEbB@@XZ 1001b8d0 f i r2_blenders.obj
 0001:0001a8f0       ??$xr_new@VCBlender_deffer_model@@@@YAPAVCBlender_deffer_model@@XZ 1001b8f0 f i r2_blenders.obj
 0001:0001a910       ??$xr_new@VCBlender_Model_EbB@@@@YAPAVCBlender_Model_EbB@@XZ 1001b910 f i r2_blenders.obj
 0001:0001a930       ??$xr_new@VCBlender_Detail_Still@@@@YAPAVCBlender_Detail_Still@@XZ 1001b930 f i r2_blenders.obj
 0001:0001a980       ??$xr_new@VCBlender_Tree@@@@YAPAVCBlender_Tree@@XZ 1001b980 f i r2_blenders.obj
 0001:0001a9a0       ??$xr_new@VCBlender_Particle@@@@YAPAVCBlender_Particle@@XZ 1001b9a0 f i r2_blenders.obj
 0001:0001a9c0       ??$xr_delete@VIBlender@@@@YAXAAPAVIBlender@@@Z 1001b9c0 f i r2_blenders.obj
 0001:0001aa00       ??R?$xr_special_free@$00VIBlender@@@@QAEXAAPAVIBlender@@@Z 1001ba00 f i r2_blenders.obj
 0001:0001aa30       ??0rain_timer_params@@QAE@XZ 1001ba30 f i r2_loader.obj
 0001:0001aa80       ?level_Load@CRender@@UAEXPAVIReader@@@Z 1001ba80 f   r2_loader.obj
 0001:0001ae70       ?level_Unload@CRender@@UAEXXZ 1001be70 f   r2_loader.obj
 0001:0001b370       ?LoadBuffers@CRender@@AAEXPAVCStreamReader@@H@Z 1001c370 f   r2_loader.obj
 0001:0001b840       ?MtVisLoader@@YAXPAX@Z     1001c840 f   r2_loader.obj
 0001:0001bae0       ?LoadVisuals@CRender@@AAEXPAVIReader@@_N@Z 1001cae0 f   r2_loader.obj
 0001:0001bec0       ?LoadLights@CRender@@AAEXPAVIReader@@@Z 1001cec0 f   r2_loader.obj
 0001:0001bef0       ?LoadSectors@CRender@@AAEXPAVIReader@@@Z 1001cef0 f   r2_loader.obj
 0001:0001c290       ??0b_portal@@QAE@XZ        1001d290 f i r2_loader.obj
 0001:0001c2c0       ?LoadSWIs@CRender@@AAEXPAVCStreamReader@@@Z 1001d2c0 f   r2_loader.obj
 0001:0001c4c0       ?clear@?$FixedMAP@MU_LodItem@R_dsgraph@@Udoug_lea_allocator@@@@QAEXXZ 1001d4c0 f i r2_loader.obj
 0001:0001c4e0       ?size@?$xr_vector@PAVIRender_Sector@@V?$xalloc@PAVIRender_Sector@@@@@@QBEIXZ 1001d4e0 f i r2_loader.obj
 0001:0001c500       ?clear@?$xr_vector@PAVIRender_Sector@@V?$xalloc@PAVIRender_Sector@@@@@@QAEXXZ 1001d500 f i r2_loader.obj
 0001:0001c540       ?push_back@?$vector@PAVIRender_Sector@@V?$xalloc@PAVIRender_Sector@@@@@std@@QAEXABQAVIRender_Sector@@@Z 1001d540 f i r2_loader.obj
 0001:0001c690       ?clear@?$xr_vector@PAVIRender_Visual@@V?$xalloc@PAVIRender_Visual@@@@@@QAEXXZ 1001d690 f i r2_loader.obj
 0001:0001c6d0       ?resize@?$vector@PAVIRender_Visual@@V?$xalloc@PAVIRender_Visual@@@@@std@@QAEXI@Z 1001d6d0 f i r2_loader.obj
 0001:0001c800       ?data@?$vector@PAVIRender_Visual@@V?$xalloc@PAVIRender_Visual@@@@@std@@QAEPAPAVIRender_Visual@@XZ 1001d800 f i r2_loader.obj
 0001:0001c810       ?size@?$xr_vector@PAVIRender_Portal@@V?$xalloc@PAVIRender_Portal@@@@@@QBEIXZ 1001d810 f i r2_loader.obj
 0001:0001c830       ?clear@?$xr_vector@PAVIRender_Portal@@V?$xalloc@PAVIRender_Portal@@@@@@QAEXXZ 1001d830 f i r2_loader.obj
 0001:0001c870       ?resize@?$vector@PAVIRender_Portal@@V?$xalloc@PAVIRender_Portal@@@@@std@@QAEXI@Z 1001d870 f i r2_loader.obj
 0001:0001c9e0       ?size@?$xr_vector@UFSlideWindowItem@@V?$xalloc@UFSlideWindowItem@@@@@@QBEIXZ 1001d9e0 f i r2_loader.obj
 0001:0001ca00       ?clear_not_free@?$xr_vector@UFSlideWindowItem@@V?$xalloc@UFSlideWindowItem@@@@@@QAEXXZ 1001da00 f i r2_loader.obj
 0001:0001ca50       ?clear@?$xr_vector@UFSlideWindowItem@@V?$xalloc@UFSlideWindowItem@@@@@@QAEXXZ 1001da50 f i r2_loader.obj
 0001:0001ca90       ?end@?$vector@UFSlideWindowItem@@V?$xalloc@UFSlideWindowItem@@@@@std@@QAE?AV?$_Vector_iterator@V?$_Vector_val@U?$_Simple_types@UFSlideWindowItem@@@std@@@std@@@2@XZ 1001da90 f i r2_loader.obj
 0001:0001cac0       ?resize@?$vector@UFSlideWindowItem@@V?$xalloc@UFSlideWindowItem@@@@@std@@QAEXI@Z 1001dac0 f i r2_loader.obj
 0001:0001cc50       ?resize@?$vector@V?$resptr_core@UShader@@Uresptrcode_shader@@@@V?$xalloc@V?$resptr_core@UShader@@Uresptrcode_shader@@@@@@@std@@QAEXI@Z 1001dc50 f i r2_loader.obj
 0001:0001cda0       ?clear@?$xr_vector@V?$svector@U_D3DVERTEXELEMENT9@@$0EB@@@V?$xalloc@V?$svector@U_D3DVERTEXELEMENT9@@$0EB@@@@@@@QAEXXZ 1001dda0 f i r2_loader.obj
 0001:0001cde0       ?resize@?$vector@V?$svector@U_D3DVERTEXELEMENT9@@$0EB@@@V?$xalloc@V?$svector@U_D3DVERTEXELEMENT9@@$0EB@@@@@@std@@QAEXI@Z 1001dde0 f i r2_loader.obj
 0001:0001cf70       ?size@?$xr_vector@PAUIDirect3DVertexBuffer9@@V?$xalloc@PAUIDirect3DVertexBuffer9@@@@@@QBEIXZ 1001df70 f i r2_loader.obj
 0001:0001cf90       ?clear@?$xr_vector@PAUIDirect3DVertexBuffer9@@V?$xalloc@PAUIDirect3DVertexBuffer9@@@@@@QAEXXZ 1001df90 f i r2_loader.obj
 0001:0001cfd0       ?resize@?$vector@PAUIDirect3DVertexBuffer9@@V?$xalloc@PAUIDirect3DVertexBuffer9@@@@@std@@QAEXI@Z 1001dfd0 f i r2_loader.obj
 0001:0001d140       ?size@?$xr_vector@PAUIDirect3DIndexBuffer9@@V?$xalloc@PAUIDirect3DIndexBuffer9@@@@@@QBEIXZ 1001e140 f i r2_loader.obj
 0001:0001d160       ?clear@?$xr_vector@PAUIDirect3DIndexBuffer9@@V?$xalloc@PAUIDirect3DIndexBuffer9@@@@@@QAEXXZ 1001e160 f i r2_loader.obj
 0001:0001d1a0       ?resize@?$vector@PAUIDirect3DIndexBuffer9@@V?$xalloc@PAUIDirect3DIndexBuffer9@@@@@std@@QAEXI@Z 1001e1a0 f i r2_loader.obj
 0001:0001d310       ??0?$svector@U?$_vector3@M@@$05@@QAE@XZ 1001e310 f i r2_loader.obj
 0001:0001d330       ?begin@?$svector@U?$_vector3@M@@$05@@QAEPAU?$_vector3@M@@XZ 1001e330 f i r2_loader.obj
 0001:0001d340       ?size@?$svector@U?$_vector3@M@@$05@@QBEIXZ 1001e340 f i r2_loader.obj
 0001:0001d360       ??A?$svector@U?$_vector3@M@@$05@@QAEAAU?$_vector3@M@@I@Z 1001e360 f i r2_loader.obj
 0001:0001d380       ??E?$_Vector_iterator@V?$_Vector_val@U?$_Simple_types@UFSlideWindowItem@@@std@@@std@@@std@@QAEAAV01@XZ 1001e380 f i r2_loader.obj
 0001:0001d3a0       ??9?$_Vector_const_iterator@V?$_Vector_val@U?$_Simple_types@UFSlideWindowItem@@@std@@@std@@@std@@QBE_NABV01@@Z 1001e3a0 f i r2_loader.obj
 0001:0001d3f0       ?clear_and_free@?$xr_vector@PAVIRender_Sector@@V?$xalloc@PAVIRender_Sector@@@@@@QAEXXZ 1001e3f0 f i r2_loader.obj
 0001:0001d430       ?size@?$vector@PAVIRender_Sector@@V?$xalloc@PAVIRender_Sector@@@@@std@@QBEIXZ 1001e430 f i r2_loader.obj
 0001:0001d450       ?_Inside@?$vector@PAVIRender_Sector@@V?$xalloc@PAVIRender_Sector@@@@@std@@IBE_NPBQAVIRender_Sector@@@Z 1001e450 f i r2_loader.obj
 0001:0001d490       ?_Reserve@?$vector@PAVIRender_Sector@@V?$xalloc@PAVIRender_Sector@@@@@std@@IAEXI@Z 1001e490 f i r2_loader.obj
 0001:0001d530       ?_Orphan_range@?$vector@PAVIRender_Sector@@V?$xalloc@PAVIRender_Sector@@@@@std@@IBEXPAPAVIRender_Sector@@0@Z 1001e530 f i r2_loader.obj
 0001:0001d540       ?clear_and_free@?$xr_vector@PAVIRender_Visual@@V?$xalloc@PAVIRender_Visual@@@@@@QAEXXZ 1001e540 f i r2_loader.obj
 0001:0001d580       ?_Pop_back_n@?$vector@PAVIRender_Visual@@V?$xalloc@PAVIRender_Visual@@@@@std@@QAEXI@Z 1001e580 f i r2_loader.obj
 0001:0001d5c0       ?clear_and_free@?$xr_vector@PAVIRender_Portal@@V?$xalloc@PAVIRender_Portal@@@@@@QAEXXZ 1001e5c0 f i r2_loader.obj
 0001:0001d600       ?size@?$vector@PAVIRender_Portal@@V?$xalloc@PAVIRender_Portal@@@@@std@@QBEIXZ 1001e600 f i r2_loader.obj
 0001:0001d620       ?_Pop_back_n@?$vector@PAVIRender_Portal@@V?$xalloc@PAVIRender_Portal@@@@@std@@QAEXI@Z 1001e620 f i r2_loader.obj
 0001:0001d660       ?_Reserve@?$vector@PAVIRender_Portal@@V?$xalloc@PAVIRender_Portal@@@@@std@@IAEXI@Z 1001e660 f i r2_loader.obj
 0001:0001d700       ?clear_and_free@?$xr_vector@UFSlideWindowItem@@V?$xalloc@UFSlideWindowItem@@@@@@QAEXXZ 1001e700 f i r2_loader.obj
 0001:0001d740       ?size@?$vector@UFSlideWindowItem@@V?$xalloc@UFSlideWindowItem@@@@@std@@QBEIXZ 1001e740 f i r2_loader.obj
 0001:0001d760       ?erase@?$vector@UFSlideWindowItem@@V?$xalloc@UFSlideWindowItem@@@@@std@@QAE?AV?$_Vector_iterator@V?$_Vector_val@U?$_Simple_types@UFSlideWindowItem@@@std@@@std@@@2@V?$_Vector_const_iterator@V?$_Vector_val@U?$_Simple_types@UFSlideWindowItem@@@std@@@std@@@2@0@Z 1001e760 f i r2_loader.obj
 0001:0001d960       ?_Pop_back_n@?$vector@UFSlideWindowItem@@V?$xalloc@UFSlideWindowItem@@@@@std@@QAEXI@Z 1001e960 f i r2_loader.obj
 0001:0001d9a0       ?_Reserve@?$vector@UFSlideWindowItem@@V?$xalloc@UFSlideWindowItem@@@@@std@@IAEXI@Z 1001e9a0 f i r2_loader.obj
 0001:0001da50       ?_Pop_back_n@?$vector@V?$resptr_core@UShader@@Uresptrcode_shader@@@@V?$xalloc@V?$resptr_core@UShader@@Uresptrcode_shader@@@@@@@std@@QAEXI@Z 1001ea50 f i r2_loader.obj
 0001:0001da90       ?clear_and_free@?$xr_vector@V?$svector@U_D3DVERTEXELEMENT9@@$0EB@@@V?$xalloc@V?$svector@U_D3DVERTEXELEMENT9@@$0EB@@@@@@@QAEXXZ 1001ea90 f i r2_loader.obj
 0001:0001dad0       ?size@?$vector@V?$svector@U_D3DVERTEXELEMENT9@@$0EB@@@V?$xalloc@V?$svector@U_D3DVERTEXELEMENT9@@$0EB@@@@@@std@@QBEIXZ 1001ead0 f i r2_loader.obj
 0001:0001daf0       ?_Pop_back_n@?$vector@V?$svector@U_D3DVERTEXELEMENT9@@$0EB@@@V?$xalloc@V?$svector@U_D3DVERTEXELEMENT9@@$0EB@@@@@@std@@QAEXI@Z 1001eaf0 f i r2_loader.obj
 0001:0001db30       ?_Reserve@?$vector@V?$svector@U_D3DVERTEXELEMENT9@@$0EB@@@V?$xalloc@V?$svector@U_D3DVERTEXELEMENT9@@$0EB@@@@@@std@@IAEXI@Z 1001eb30 f i r2_loader.obj
 0001:0001dbe0       ?clear_and_free@?$xr_vector@PAUIDirect3DVertexBuffer9@@V?$xalloc@PAUIDirect3DVertexBuffer9@@@@@@QAEXXZ 1001ebe0 f i r2_loader.obj
 0001:0001dc20       ?size@?$vector@PAUIDirect3DVertexBuffer9@@V?$xalloc@PAUIDirect3DVertexBuffer9@@@@@std@@QBEIXZ 1001ec20 f i r2_loader.obj
 0001:0001dc40       ?_Pop_back_n@?$vector@PAUIDirect3DVertexBuffer9@@V?$xalloc@PAUIDirect3DVertexBuffer9@@@@@std@@QAEXI@Z 1001ec40 f i r2_loader.obj
 0001:0001dc80       ?_Reserve@?$vector@PAUIDirect3DVertexBuffer9@@V?$xalloc@PAUIDirect3DVertexBuffer9@@@@@std@@IAEXI@Z 1001ec80 f i r2_loader.obj
 0001:0001dd20       ?clear_and_free@?$xr_vector@PAUIDirect3DIndexBuffer9@@V?$xalloc@PAUIDirect3DIndexBuffer9@@@@@@QAEXXZ 1001ed20 f i r2_loader.obj
 0001:0001dd60       ?size@?$vector@PAUIDirect3DIndexBuffer9@@V?$xalloc@PAUIDirect3DIndexBuffer9@@@@@std@@QBEIXZ 1001ed60 f i r2_loader.obj
 0001:0001dd80       ?_Pop_back_n@?$vector@PAUIDirect3DIndexBuffer9@@V?$xalloc@PAUIDirect3DIndexBuffer9@@@@@std@@QAEXI@Z 1001ed80 f i r2_loader.obj
 0001:0001ddc0       ?_Reserve@?$vector@PAUIDirect3DIndexBuffer9@@V?$xalloc@PAUIDirect3DIndexBuffer9@@@@@std@@IAEXI@Z 1001edc0 f i r2_loader.obj
 0001:0001de60       ??E?$_Vector_const_iterator@V?$_Vector_val@U?$_Simple_types@UFSlideWindowItem@@@std@@@std@@@std@@QAEAAV01@XZ 1001ee60 f i r2_loader.obj
 0001:0001de80       ??8?$_Vector_const_iterator@V?$_Vector_val@U?$_Simple_types@UFSlideWindowItem@@@std@@@std@@@std@@QBE_NABV01@@Z 1001ee80 f i r2_loader.obj
 0001:0001deb0       ?_Unused_capacity@?$vector@PAVIRender_Sector@@V?$xalloc@PAVIRender_Sector@@@@@std@@QBEIXZ 1001eeb0 f i r2_loader.obj
 0001:0001ded0       ?max_size@?$vector@PAVIRender_Sector@@V?$xalloc@PAVIRender_Sector@@@@@std@@QBEIXZ 1001eed0 f i r2_loader.obj
 0001:0001df10       ?clear@?$vector@PAVIRender_Sector@@V?$xalloc@PAVIRender_Sector@@@@@std@@QAEXXZ 1001ef10 f i r2_loader.obj
 0001:0001df50       ?_Grow_to@?$vector@PAVIRender_Sector@@V?$xalloc@PAVIRender_Sector@@@@@std@@IBEII@Z 1001ef50 f i r2_loader.obj
 0001:0001dfe0       ?_Reallocate@?$vector@PAVIRender_Sector@@V?$xalloc@PAVIRender_Sector@@@@@std@@IAEXI@Z 1001efe0 f i r2_loader.obj
 0001:0001e170       ?_Xlen@?$vector@PAVIRender_Sector@@V?$xalloc@PAVIRender_Sector@@@@@std@@IBEXXZ 1001f170 f i r2_loader.obj
 0001:0001e190       ?clear@?$vector@PAVIRender_Visual@@V?$xalloc@PAVIRender_Visual@@@@@std@@QAEXXZ 1001f190 f i r2_loader.obj
 0001:0001e1d0       ?_Unused_capacity@?$vector@PAVIRender_Portal@@V?$xalloc@PAVIRender_Portal@@@@@std@@QBEIXZ 1001f1d0 f i r2_loader.obj
 0001:0001e1f0       ?max_size@?$vector@PAVIRender_Portal@@V?$xalloc@PAVIRender_Portal@@@@@std@@QBEIXZ 1001f1f0 f i r2_loader.obj
 0001:0001e230       ?clear@?$vector@PAVIRender_Portal@@V?$xalloc@PAVIRender_Portal@@@@@std@@QAEXXZ 1001f230 f i r2_loader.obj
 0001:0001e270       ?_Grow_to@?$vector@PAVIRender_Portal@@V?$xalloc@PAVIRender_Portal@@@@@std@@IBEII@Z 1001f270 f i r2_loader.obj
 0001:0001e300       ?_Reallocate@?$vector@PAVIRender_Portal@@V?$xalloc@PAVIRender_Portal@@@@@std@@IAEXI@Z 1001f300 f i r2_loader.obj
 0001:0001e490       ?_Xlen@?$vector@PAVIRender_Portal@@V?$xalloc@PAVIRender_Portal@@@@@std@@IBEXXZ 1001f490 f i r2_loader.obj
 0001:0001e4b0       ?_Unused_capacity@?$vector@UFSlideWindowItem@@V?$xalloc@UFSlideWindowItem@@@@@std@@QBEIXZ 1001f4b0 f i r2_loader.obj
 0001:0001e4d0       ?_Make_iter@?$vector@UFSlideWindowItem@@V?$xalloc@UFSlideWindowItem@@@@@std@@QBE?AV?$_Vector_iterator@V?$_Vector_val@U?$_Simple_types@UFSlideWindowItem@@@std@@@std@@@2@V?$_Vector_const_iterator@V?$_Vector_val@U?$_Simple_types@UFSlideWindowItem@@@std@@@std@@@2@@Z 1001f4d0 f i r2_loader.obj
 0001:0001e4f0       ?max_size@?$vector@UFSlideWindowItem@@V?$xalloc@UFSlideWindowItem@@@@@std@@QBEIXZ 1001f4f0 f i r2_loader.obj
 0001:0001e530       ?clear@?$vector@UFSlideWindowItem@@V?$xalloc@UFSlideWindowItem@@@@@std@@QAEXXZ 1001f530 f i r2_loader.obj
 0001:0001e570       ?_Grow_to@?$vector@UFSlideWindowItem@@V?$xalloc@UFSlideWindowItem@@@@@std@@IBEII@Z 1001f570 f i r2_loader.obj
 0001:0001e600       ?_Reallocate@?$vector@UFSlideWindowItem@@V?$xalloc@UFSlideWindowItem@@@@@std@@IAEXI@Z 1001f600 f i r2_loader.obj
 0001:0001e790       ?_Xlen@?$vector@UFSlideWindowItem@@V?$xalloc@UFSlideWindowItem@@@@@std@@IBEXXZ 1001f790 f i r2_loader.obj
 0001:0001e7b0       ?_Unused_capacity@?$vector@V?$svector@U_D3DVERTEXELEMENT9@@$0EB@@@V?$xalloc@V?$svector@U_D3DVERTEXELEMENT9@@$0EB@@@@@@std@@QBEIXZ 1001f7b0 f i r2_loader.obj
 0001:0001e7d0       ?max_size@?$vector@V?$svector@U_D3DVERTEXELEMENT9@@$0EB@@@V?$xalloc@V?$svector@U_D3DVERTEXELEMENT9@@$0EB@@@@@@std@@QBEIXZ 1001f7d0 f i r2_loader.obj
 0001:0001e810       ?clear@?$vector@V?$svector@U_D3DVERTEXELEMENT9@@$0EB@@@V?$xalloc@V?$svector@U_D3DVERTEXELEMENT9@@$0EB@@@@@@std@@QAEXXZ 1001f810 f i r2_loader.obj
 0001:0001e850       ?_Grow_to@?$vector@V?$svector@U_D3DVERTEXELEMENT9@@$0EB@@@V?$xalloc@V?$svector@U_D3DVERTEXELEMENT9@@$0EB@@@@@@std@@IBEII@Z 1001f850 f i r2_loader.obj
 0001:0001e8e0       ?_Reallocate@?$vector@V?$svector@U_D3DVERTEXELEMENT9@@$0EB@@@V?$xalloc@V?$svector@U_D3DVERTEXELEMENT9@@$0EB@@@@@@std@@IAEXI@Z 1001f8e0 f i r2_loader.obj
 0001:0001ea80       ?_Xlen@?$vector@V?$svector@U_D3DVERTEXELEMENT9@@$0EB@@@V?$xalloc@V?$svector@U_D3DVERTEXELEMENT9@@$0EB@@@@@@std@@IBEXXZ 1001fa80 f i r2_loader.obj
 0001:0001eaa0       ?_Unused_capacity@?$vector@PAUIDirect3DVertexBuffer9@@V?$xalloc@PAUIDirect3DVertexBuffer9@@@@@std@@QBEIXZ 1001faa0 f i r2_loader.obj
 0001:0001eac0       ?max_size@?$vector@PAUIDirect3DVertexBuffer9@@V?$xalloc@PAUIDirect3DVertexBuffer9@@@@@std@@QBEIXZ 1001fac0 f i r2_loader.obj
 0001:0001eb00       ?clear@?$vector@PAUIDirect3DVertexBuffer9@@V?$xalloc@PAUIDirect3DVertexBuffer9@@@@@std@@QAEXXZ 1001fb00 f i r2_loader.obj
 0001:0001eb40       ?_Grow_to@?$vector@PAUIDirect3DVertexBuffer9@@V?$xalloc@PAUIDirect3DVertexBuffer9@@@@@std@@IBEII@Z 1001fb40 f i r2_loader.obj
 0001:0001ebd0       ?_Reallocate@?$vector@PAUIDirect3DVertexBuffer9@@V?$xalloc@PAUIDirect3DVertexBuffer9@@@@@std@@IAEXI@Z 1001fbd0 f i r2_loader.obj
 0001:0001ed60       ?_Xlen@?$vector@PAUIDirect3DVertexBuffer9@@V?$xalloc@PAUIDirect3DVertexBuffer9@@@@@std@@IBEXXZ 1001fd60 f i r2_loader.obj
 0001:0001ed80       ?_Unused_capacity@?$vector@PAUIDirect3DIndexBuffer9@@V?$xalloc@PAUIDirect3DIndexBuffer9@@@@@std@@QBEIXZ 1001fd80 f i r2_loader.obj
 0001:0001eda0       ?max_size@?$vector@PAUIDirect3DIndexBuffer9@@V?$xalloc@PAUIDirect3DIndexBuffer9@@@@@std@@QBEIXZ 1001fda0 f i r2_loader.obj
 0001:0001ede0       ?clear@?$vector@PAUIDirect3DIndexBuffer9@@V?$xalloc@PAUIDirect3DIndexBuffer9@@@@@std@@QAEXXZ 1001fde0 f i r2_loader.obj
 0001:0001ee20       ?_Grow_to@?$vector@PAUIDirect3DIndexBuffer9@@V?$xalloc@PAUIDirect3DIndexBuffer9@@@@@std@@IBEII@Z 1001fe20 f i r2_loader.obj
 0001:0001eeb0       ?_Reallocate@?$vector@PAUIDirect3DIndexBuffer9@@V?$xalloc@PAUIDirect3DIndexBuffer9@@@@@std@@IAEXI@Z 1001feb0 f i r2_loader.obj
 0001:0001f040       ?_Xlen@?$vector@PAUIDirect3DIndexBuffer9@@V?$xalloc@PAUIDirect3DIndexBuffer9@@@@@std@@IBEXXZ 10020040 f i r2_loader.obj
 0001:0001f060       ?_Compat@?$_Vector_const_iterator@V?$_Vector_val@U?$_Simple_types@UFSlideWindowItem@@@std@@@std@@@std@@QBEXABV12@@Z 10020060 f i r2_loader.obj
 0001:0001f070       ?capacity@?$vector@PAVIRender_Sector@@V?$xalloc@PAVIRender_Sector@@@@@std@@QBEIXZ 10020070 f i r2_loader.obj
 0001:0001f090       ?allocate@?$_Wrap_alloc@V?$xalloc@PAVIRender_Sector@@@@@std@@QAEPAPAVIRender_Sector@@I@Z 10020090 f i r2_loader.obj
 0001:0001f0b0       ?max_size@?$_Wrap_alloc@V?$xalloc@PAVIRender_Sector@@@@@std@@QBEIXZ 100200b0 f i r2_loader.obj
 0001:0001f0e0       ?capacity@?$vector@PAVIRender_Portal@@V?$xalloc@PAVIRender_Portal@@@@@std@@QBEIXZ 100200e0 f i r2_loader.obj
 0001:0001f100       ?allocate@?$_Wrap_alloc@V?$xalloc@PAVIRender_Portal@@@@@std@@QAEPAPAVIRender_Portal@@I@Z 10020100 f i r2_loader.obj
 0001:0001f120       ?max_size@?$_Wrap_alloc@V?$xalloc@PAVIRender_Portal@@@@@std@@QBEIXZ 10020120 f i r2_loader.obj
 0001:0001f150       ?capacity@?$vector@UFSlideWindowItem@@V?$xalloc@UFSlideWindowItem@@@@@std@@QBEIXZ 10020150 f i r2_loader.obj
 0001:0001f170       ?allocate@?$_Wrap_alloc@V?$xalloc@UFSlideWindowItem@@@@@std@@QAEPAUFSlideWindowItem@@I@Z 10020170 f i r2_loader.obj
 0001:0001f190       ?max_size@?$_Wrap_alloc@V?$xalloc@UFSlideWindowItem@@@@@std@@QBEIXZ 10020190 f i r2_loader.obj
 0001:0001f1c0       ?capacity@?$vector@V?$svector@U_D3DVERTEXELEMENT9@@$0EB@@@V?$xalloc@V?$svector@U_D3DVERTEXELEMENT9@@$0EB@@@@@@std@@QBEIXZ 100201c0 f i r2_loader.obj
 0001:0001f1e0       ?allocate@?$_Wrap_alloc@V?$xalloc@V?$svector@U_D3DVERTEXELEMENT9@@$0EB@@@@@@std@@QAEPAV?$svector@U_D3DVERTEXELEMENT9@@$0EB@@@I@Z 100201e0 f i r2_loader.obj
 0001:0001f210       ?max_size@?$_Wrap_alloc@V?$xalloc@V?$svector@U_D3DVERTEXELEMENT9@@$0EB@@@@@@std@@QBEIXZ 10020210 f i r2_loader.obj
 0001:0001f240       ?capacity@?$vector@PAUIDirect3DVertexBuffer9@@V?$xalloc@PAUIDirect3DVertexBuffer9@@@@@std@@QBEIXZ 10020240 f i r2_loader.obj
 0001:0001f260       ?allocate@?$_Wrap_alloc@V?$xalloc@PAUIDirect3DVertexBuffer9@@@@@std@@QAEPAPAUIDirect3DVertexBuffer9@@I@Z 10020260 f i r2_loader.obj
 0001:0001f280       ?max_size@?$_Wrap_alloc@V?$xalloc@PAUIDirect3DVertexBuffer9@@@@@std@@QBEIXZ 10020280 f i r2_loader.obj
 0001:0001f2b0       ?capacity@?$vector@PAUIDirect3DIndexBuffer9@@V?$xalloc@PAUIDirect3DIndexBuffer9@@@@@std@@QBEIXZ 100202b0 f i r2_loader.obj
 0001:0001f2d0       ?allocate@?$_Wrap_alloc@V?$xalloc@PAUIDirect3DIndexBuffer9@@@@@std@@QAEPAPAUIDirect3DIndexBuffer9@@I@Z 100202d0 f i r2_loader.obj
 0001:0001f2f0       ?max_size@?$_Wrap_alloc@V?$xalloc@PAUIDirect3DIndexBuffer9@@@@@std@@QBEIXZ 100202f0 f i r2_loader.obj
 0001:0001f320       ?allocate@?$xalloc@PAVIRender_Sector@@@@QBEPAPAVIRender_Sector@@IPBX@Z 10020320 f i r2_loader.obj
 0001:0001f340       ?max_size@?$allocator_traits@V?$xalloc@PAVIRender_Sector@@@@@std@@SAIABV?$xalloc@PAVIRender_Sector@@@@@Z 10020340 f i r2_loader.obj
 0001:0001f370       ?allocate@?$xalloc@PAVIRender_Portal@@@@QBEPAPAVIRender_Portal@@IPBX@Z 10020370 f i r2_loader.obj
 0001:0001f390       ?max_size@?$allocator_traits@V?$xalloc@PAVIRender_Portal@@@@@std@@SAIABV?$xalloc@PAVIRender_Portal@@@@@Z 10020390 f i r2_loader.obj
 0001:0001f3c0       ?allocate@?$xalloc@UFSlideWindowItem@@@@QBEPAUFSlideWindowItem@@IPBX@Z 100203c0 f i r2_loader.obj
 0001:0001f3e0       ?max_size@?$allocator_traits@V?$xalloc@UFSlideWindowItem@@@@@std@@SAIABV?$xalloc@UFSlideWindowItem@@@@@Z 100203e0 f i r2_loader.obj
 0001:0001f410       ?allocate@?$xalloc@V?$svector@U_D3DVERTEXELEMENT9@@$0EB@@@@@QBEPAV?$svector@U_D3DVERTEXELEMENT9@@$0EB@@@IPBX@Z 10020410 f i r2_loader.obj
 0001:0001f440       ?max_size@?$allocator_traits@V?$xalloc@V?$svector@U_D3DVERTEXELEMENT9@@$0EB@@@@@@std@@SAIABV?$xalloc@V?$svector@U_D3DVERTEXELEMENT9@@$0EB@@@@@@Z 10020440 f i r2_loader.obj
 0001:0001f470       ?allocate@?$xalloc@PAUIDirect3DVertexBuffer9@@@@QBEPAPAUIDirect3DVertexBuffer9@@IPBX@Z 10020470 f i r2_loader.obj
 0001:0001f490       ?max_size@?$allocator_traits@V?$xalloc@PAUIDirect3DVertexBuffer9@@@@@std@@SAIABV?$xalloc@PAUIDirect3DVertexBuffer9@@@@@Z 10020490 f i r2_loader.obj
 0001:0001f4c0       ?allocate@?$xalloc@PAUIDirect3DIndexBuffer9@@@@QBEPAPAUIDirect3DIndexBuffer9@@IPBX@Z 100204c0 f i r2_loader.obj
 0001:0001f4e0       ?max_size@?$allocator_traits@V?$xalloc@PAUIDirect3DIndexBuffer9@@@@@std@@SAIABV?$xalloc@PAUIDirect3DIndexBuffer9@@@@@Z 100204e0 f i r2_loader.obj
 0001:0001f510       ??$xr_new@VCWallmarksEngine@@@@YAPAVCWallmarksEngine@@XZ 10020510 f i r2_loader.obj
 0001:0001f560       ??$xr_new@Vrain_timer_params@@@@YAPAVrain_timer_params@@XZ 10020560 f i r2_loader.obj
 0001:0001f5b0       ??$xr_delete@VMODEL@CDB@@@@YAXAAPAVMODEL@CDB@@@Z 100205b0 f i r2_loader.obj
 0001:0001f610       ??$xr_delete@VIRender_Sector@@@@YAXAAPAVIRender_Sector@@@Z 10020610 f i r2_loader.obj
 0001:0001f670       ??$xr_delete@VIRender_Portal@@@@YAXAAPAVIRender_Portal@@@Z 10020670 f i r2_loader.obj
 0001:0001f6d0       ??$xr_delete@VIRender_Visual@@@@YAXAAPAVIRender_Visual@@@Z 100206d0 f i r2_loader.obj
 0001:0001f730       ??$xr_free@UFSlideWindow@@@@YAXAAPAUFSlideWindow@@@Z 10020730 f i r2_loader.obj
 0001:0001f760       ??$xr_delete@Vrain_timer_params@@@@YAXAAPAVrain_timer_params@@@Z 10020760 f i r2_loader.obj
 0001:0001f790       ??$xr_delete@VCWallmarksEngine@@@@YAXAAPAVCWallmarksEngine@@@Z 10020790 f i r2_loader.obj
 0001:0001f7f0       ??$xr_new@VCPortal@@@@YAPAVCPortal@@XZ 100207f0 f i r2_loader.obj
 0001:0001f840       ??$xr_new@VCSector@@@@YAPAVCSector@@XZ 10020840 f i r2_loader.obj
 0001:0001f890       ??$xr_new@VMODEL@CDB@@@@YAPAVMODEL@CDB@@XZ 10020890 f i r2_loader.obj
 0001:0001f8e0       ??$xr_alloc@UFSlideWindow@@@@YAPAUFSlideWindow@@I@Z 100208e0 f i r2_loader.obj
 0001:0001f900       ??$addressof@QAVIRender_Sector@@@std@@YAPBQAVIRender_Sector@@ABQAV1@@Z 10020900 f i r2_loader.obj
 0001:0001f910       ??$construct@PAVIRender_Sector@@AAPAV1@@?$_Wrap_alloc@V?$xalloc@PAVIRender_Sector@@@@@std@@QAEXPAPAVIRender_Sector@@AAPAV2@@Z 10020910 f i r2_loader.obj
 0001:0001f960       ??$construct@PAVIRender_Sector@@ABQAV1@@?$_Wrap_alloc@V?$xalloc@PAVIRender_Sector@@@@@std@@QAEXPAPAVIRender_Sector@@ABQAV2@@Z 10020960 f i r2_loader.obj
 0001:0001f9b0       ??$_Uninitialized_default_fill_n@PAPAVIRender_Visual@@IU?$_Wrap_alloc@V?$xalloc@PAVIRender_Visual@@@@@std@@@std@@YAXPAPAVIRender_Visual@@IAAU?$_Wrap_alloc@V?$xalloc@PAVIRender_Visual@@@@@0@@Z 100209b0 f i r2_loader.obj
 0001:0001fa00       ??$_Uninitialized_default_fill_n@PAPAVIRender_Portal@@IU?$_Wrap_alloc@V?$xalloc@PAVIRender_Portal@@@@@std@@@std@@YAXPAPAVIRender_Portal@@IAAU?$_Wrap_alloc@V?$xalloc@PAVIRender_Portal@@@@@0@@Z 10020a00 f i r2_loader.obj
 0001:0001fa40       ??$_Uninitialized_default_fill_n@PAUFSlideWindowItem@@IU?$_Wrap_alloc@V?$xalloc@UFSlideWindowItem@@@@@std@@@std@@YAXPAUFSlideWindowItem@@IAAU?$_Wrap_alloc@V?$xalloc@UFSlideWindowItem@@@@@0@@Z 10020a40 f i r2_loader.obj
 0001:0001fa80       ??$_Uninitialized_default_fill_n@PAV?$resptr_core@UShader@@Uresptrcode_shader@@@@IU?$_Wrap_alloc@V?$xalloc@V?$resptr_core@UShader@@Uresptrcode_shader@@@@@@@std@@@std@@YAXPAV?$resptr_core@UShader@@Uresptrcode_shader@@@@IAAU?$_Wrap_alloc@V?$xalloc@V?$resptr_core@UShader@@Uresptrcode_shader@@@@@@@0@@Z 10020a80 f i r2_loader.obj
 0001:0001fac0       ??$_Uninitialized_default_fill_n@PAV?$svector@U_D3DVERTEXELEMENT9@@$0EB@@@IU?$_Wrap_alloc@V?$xalloc@V?$svector@U_D3DVERTEXELEMENT9@@$0EB@@@@@@std@@@std@@YAXPAV?$svector@U_D3DVERTEXELEMENT9@@$0EB@@@IAAU?$_Wrap_alloc@V?$xalloc@V?$svector@U_D3DVERTEXELEMENT9@@$0EB@@@@@@0@@Z 10020ac0 f i r2_loader.obj
 0001:0001fb00       ??$_Uninitialized_default_fill_n@PAPAUIDirect3DVertexBuffer9@@IU?$_Wrap_alloc@V?$xalloc@PAUIDirect3DVertexBuffer9@@@@@std@@@std@@YAXPAPAUIDirect3DVertexBuffer9@@IAAU?$_Wrap_alloc@V?$xalloc@PAUIDirect3DVertexBuffer9@@@@@0@@Z 10020b00 f i r2_loader.obj
 0001:0001fb40       ??$_Uninitialized_default_fill_n@PAPAUIDirect3DIndexBuffer9@@IU?$_Wrap_alloc@V?$xalloc@PAUIDirect3DIndexBuffer9@@@@@std@@@std@@YAXPAPAUIDirect3DIndexBuffer9@@IAAU?$_Wrap_alloc@V?$xalloc@PAUIDirect3DIndexBuffer9@@@@@0@@Z 10020b40 f i r2_loader.obj
 0001:0001fb80       ??$_Move@PAUFSlideWindowItem@@PAU1@@std@@YAPAUFSlideWindowItem@@PAU1@00@Z 10020b80 f i r2_loader.obj
 0001:0001fbf0       ??$_Umove@PAPAVIRender_Sector@@@?$vector@PAVIRender_Sector@@V?$xalloc@PAVIRender_Sector@@@@@std@@IAEPAPAVIRender_Sector@@PAPAV2@00@Z 10020bf0 f i r2_loader.obj
 0001:0001fc60       ??$_Umove@PAPAVIRender_Portal@@@?$vector@PAVIRender_Portal@@V?$xalloc@PAVIRender_Portal@@@@@std@@IAEPAPAVIRender_Portal@@PAPAV2@00@Z 10020c60 f i r2_loader.obj
 0001:0001fcd0       ??$_Umove@PAUFSlideWindowItem@@@?$vector@UFSlideWindowItem@@V?$xalloc@UFSlideWindowItem@@@@@std@@IAEPAUFSlideWindowItem@@PAU2@00@Z 10020cd0 f i r2_loader.obj
 0001:0001fd30       ??$_Umove@PAV?$svector@U_D3DVERTEXELEMENT9@@$0EB@@@@?$vector@V?$svector@U_D3DVERTEXELEMENT9@@$0EB@@@V?$xalloc@V?$svector@U_D3DVERTEXELEMENT9@@$0EB@@@@@@std@@IAEPAV?$svector@U_D3DVERTEXELEMENT9@@$0EB@@@PAV2@00@Z 10020d30 f i r2_loader.obj
 0001:0001fd90       ??$_Umove@PAPAUIDirect3DVertexBuffer9@@@?$vector@PAUIDirect3DVertexBuffer9@@V?$xalloc@PAUIDirect3DVertexBuffer9@@@@@std@@IAEPAPAUIDirect3DVertexBuffer9@@PAPAU2@00@Z 10020d90 f i r2_loader.obj
 0001:0001fe00       ??$_Umove@PAPAUIDirect3DIndexBuffer9@@@?$vector@PAUIDirect3DIndexBuffer9@@V?$xalloc@PAUIDirect3DIndexBuffer9@@@@@std@@IAEPAPAUIDirect3DIndexBuffer9@@PAPAU2@00@Z 10020e00 f i r2_loader.obj
 0001:0001fe70       ??$xr_alloc@PAVIRender_Sector@@@@YAPAPAVIRender_Sector@@I@Z 10020e70 f i r2_loader.obj
 0001:0001fe90       ??$_Fn@V?$xalloc@PAVIRender_Sector@@@@@_Alloc_max_size@std@@SAIHABV?$xalloc@PAVIRender_Sector@@@@@Z 10020e90 f i r2_loader.obj
 0001:0001fec0       ??$xr_alloc@PAVIRender_Portal@@@@YAPAPAVIRender_Portal@@I@Z 10020ec0 f i r2_loader.obj
 0001:0001fee0       ??$_Fn@V?$xalloc@PAVIRender_Portal@@@@@_Alloc_max_size@std@@SAIHABV?$xalloc@PAVIRender_Portal@@@@@Z 10020ee0 f i r2_loader.obj
 0001:0001ff10       ??$xr_alloc@UFSlideWindowItem@@@@YAPAUFSlideWindowItem@@I@Z 10020f10 f i r2_loader.obj
 0001:0001ff30       ??$_Fn@V?$xalloc@UFSlideWindowItem@@@@@_Alloc_max_size@std@@SAIHABV?$xalloc@UFSlideWindowItem@@@@@Z 10020f30 f i r2_loader.obj
 0001:0001ff60       ??$xr_alloc@V?$svector@U_D3DVERTEXELEMENT9@@$0EB@@@@@YAPAV?$svector@U_D3DVERTEXELEMENT9@@$0EB@@@I@Z 10020f60 f i r2_loader.obj
 0001:0001ff80       ??$_Fn@V?$xalloc@V?$svector@U_D3DVERTEXELEMENT9@@$0EB@@@@@@_Alloc_max_size@std@@SAIHABV?$xalloc@V?$svector@U_D3DVERTEXELEMENT9@@$0EB@@@@@@Z 10020f80 f i r2_loader.obj
 0001:0001ffb0       ??$xr_alloc@PAUIDirect3DVertexBuffer9@@@@YAPAPAUIDirect3DVertexBuffer9@@I@Z 10020fb0 f i r2_loader.obj
 0001:0001ffd0       ??$_Fn@V?$xalloc@PAUIDirect3DVertexBuffer9@@@@@_Alloc_max_size@std@@SAIHABV?$xalloc@PAUIDirect3DVertexBuffer9@@@@@Z 10020fd0 f i r2_loader.obj
 0001:00020000       ??$xr_alloc@PAUIDirect3DIndexBuffer9@@@@YAPAPAUIDirect3DIndexBuffer9@@I@Z 10021000 f i r2_loader.obj
 0001:00020020       ??$_Fn@V?$xalloc@PAUIDirect3DIndexBuffer9@@@@@_Alloc_max_size@std@@SAIHABV?$xalloc@PAUIDirect3DIndexBuffer9@@@@@Z 10021020 f i r2_loader.obj
 0001:00020050       ?max_size@?$xalloc@PAVIRender_Sector@@@@QBEIXZ 10021050 f i r2_loader.obj
 0001:00020080       ?max_size@?$xalloc@PAVIRender_Portal@@@@QBEIXZ 10021080 f i r2_loader.obj
 0001:000200b0       ?max_size@?$xalloc@UFSlideWindowItem@@@@QBEIXZ 100210b0 f i r2_loader.obj
 0001:000200e0       ?max_size@?$xalloc@V?$svector@U_D3DVERTEXELEMENT9@@$0EB@@@@@QBEIXZ 100210e0 f i r2_loader.obj
 0001:00020110       ?max_size@?$xalloc@PAUIDirect3DVertexBuffer9@@@@QBEIXZ 10021110 f i r2_loader.obj
 0001:00020140       ?max_size@?$xalloc@PAUIDirect3DIndexBuffer9@@@@QBEIXZ 10021140 f i r2_loader.obj
 0001:00020170       ??R?$xr_special_free@$0A@VMODEL@CDB@@@@QAEXAAPAVMODEL@CDB@@@Z 10021170 f i r2_loader.obj
 0001:000201c0       ??R?$xr_special_free@$00VIRender_Sector@@@@QAEXAAPAVIRender_Sector@@@Z 100211c0 f i r2_loader.obj
 0001:00020210       ??R?$xr_special_free@$00VIRender_Portal@@@@QAEXAAPAVIRender_Portal@@@Z 10021210 f i r2_loader.obj
 0001:00020260       ??R?$xr_special_free@$00VIRender_Visual@@@@QAEXAAPAVIRender_Visual@@@Z 10021260 f i r2_loader.obj
 0001:000202b0       ??R?$xr_special_free@$0A@Vrain_timer_params@@@@QAEXAAPAVrain_timer_params@@@Z 100212b0 f i r2_loader.obj
 0001:000202d0       ??R?$xr_special_free@$0A@VCWallmarksEngine@@@@QAEXAAPAVCWallmarksEngine@@@Z 100212d0 f i r2_loader.obj
 0001:00020320       ??_GMODEL@CDB@@QAEPAXI@Z   10021320 f i r2_loader.obj
 0001:00020350       ??_GCWallmarksEngine@@QAEPAXI@Z 10021350 f i r2_loader.obj
 0001:00020380       ??$forward@AAPAVIRender_Sector@@@std@@YAAAPAVIRender_Sector@@AAPAV1@@Z 10021380 f i r2_loader.obj
 0001:00020390       ??$construct@PAVIRender_Sector@@AAPAV1@@?$allocator_traits@V?$xalloc@PAVIRender_Sector@@@@@std@@SAXAAV?$xalloc@PAVIRender_Sector@@@@PAPAVIRender_Sector@@AAPAV3@@Z 10021390 f i r2_loader.obj
 0001:000203d0       ??$forward@ABQAVIRender_Sector@@@std@@YAABQAVIRender_Sector@@ABQAV1@@Z 100213d0 f i r2_loader.obj
 0001:000203e0       ??$construct@PAVIRender_Sector@@ABQAV1@@?$allocator_traits@V?$xalloc@PAVIRender_Sector@@@@@std@@SAXAAV?$xalloc@PAVIRender_Sector@@@@PAPAVIRender_Sector@@ABQAV3@@Z 100213e0 f i r2_loader.obj
 0001:00020420       ??$_Uninit_def_fill_n@PAPAVIRender_Visual@@IV?$xalloc@PAVIRender_Visual@@@@PAV1@@std@@YAXPAPAVIRender_Visual@@IAAU?$_Wrap_alloc@V?$xalloc@PAVIRender_Visual@@@@@0@0U_Scalar_ptr_iterator_tag@0@@Z 10021420 f i r2_loader.obj
 0001:00020450       ??$_Val_type@PAPAVIRender_Portal@@@std@@YAPAPAVIRender_Portal@@PAPAV1@@Z 10021450 f i r2_loader.obj
 0001:00020460       ??$_Uninit_def_fill_n@PAPAVIRender_Portal@@IV?$xalloc@PAVIRender_Portal@@@@PAV1@@std@@YAXPAPAVIRender_Portal@@IAAU?$_Wrap_alloc@V?$xalloc@PAVIRender_Portal@@@@@0@0U_Scalar_ptr_iterator_tag@0@@Z 10021460 f i r2_loader.obj
 0001:00020490       ??$_Val_type@PAUFSlideWindowItem@@@std@@YAPAUFSlideWindowItem@@PAU1@@Z 10021490 f i r2_loader.obj
 0001:000204a0       ??$_Uninit_def_fill_n@PAUFSlideWindowItem@@IV?$xalloc@UFSlideWindowItem@@@@U1@@std@@YAXPAUFSlideWindowItem@@IAAU?$_Wrap_alloc@V?$xalloc@UFSlideWindowItem@@@@@0@0U_Nonscalar_ptr_iterator_tag@0@@Z 100214a0 f i r2_loader.obj
 0001:00020550       ??$_Uninit_def_fill_n@PAV?$resptr_core@UShader@@Uresptrcode_shader@@@@IV?$xalloc@V?$resptr_core@UShader@@Uresptrcode_shader@@@@@@V1@@std@@YAXPAV?$resptr_core@UShader@@Uresptrcode_shader@@@@IAAU?$_Wrap_alloc@V?$xalloc@V?$resptr_core@UShader@@Uresptrcode_shader@@@@@@@0@0U_Nonscalar_ptr_iterator_tag@0@@Z 10021550 f i r2_loader.obj
 0001:00020600       ??$_Val_type@PAV?$svector@U_D3DVERTEXELEMENT9@@$0EB@@@@std@@YAPAV?$svector@U_D3DVERTEXELEMENT9@@$0EB@@@PAV1@@Z 10021600 f i r2_loader.obj
 0001:00020610       ??$_Uninit_def_fill_n@PAV?$svector@U_D3DVERTEXELEMENT9@@$0EB@@@IV?$xalloc@V?$svector@U_D3DVERTEXELEMENT9@@$0EB@@@@@V1@@std@@YAXPAV?$svector@U_D3DVERTEXELEMENT9@@$0EB@@@IAAU?$_Wrap_alloc@V?$xalloc@V?$svector@U_D3DVERTEXELEMENT9@@$0EB@@@@@@0@0U_Nonscalar_ptr_iterator_tag@0@@Z 10021610 f i r2_loader.obj
 0001:000206f0       ??$_Val_type@PAPAUIDirect3DVertexBuffer9@@@std@@YAPAPAUIDirect3DVertexBuffer9@@PAPAU1@@Z 100216f0 f i r2_loader.obj
 0001:00020700       ??$_Uninit_def_fill_n@PAPAUIDirect3DVertexBuffer9@@IV?$xalloc@PAUIDirect3DVertexBuffer9@@@@PAU1@@std@@YAXPAPAUIDirect3DVertexBuffer9@@IAAU?$_Wrap_alloc@V?$xalloc@PAUIDirect3DVertexBuffer9@@@@@0@0U_Scalar_ptr_iterator_tag@0@@Z 10021700 f i r2_loader.obj
 0001:00020730       ??$_Val_type@PAPAUIDirect3DIndexBuffer9@@@std@@YAPAPAUIDirect3DIndexBuffer9@@PAPAU1@@Z 10021730 f i r2_loader.obj
 0001:00020740       ??$_Uninit_def_fill_n@PAPAUIDirect3DIndexBuffer9@@IV?$xalloc@PAUIDirect3DIndexBuffer9@@@@PAU1@@std@@YAXPAPAUIDirect3DIndexBuffer9@@IAAU?$_Wrap_alloc@V?$xalloc@PAUIDirect3DIndexBuffer9@@@@@0@0U_Scalar_ptr_iterator_tag@0@@Z 10021740 f i r2_loader.obj
 0001:00020770       ??$_Move@PAUFSlideWindowItem@@PAU1@@std@@YAPAUFSlideWindowItem@@PAU1@00U_Nonscalar_ptr_iterator_tag@0@@Z 10021770 f i r2_loader.obj
 0001:000207c0       ??$_Uninitialized_move@PAPAVIRender_Sector@@PAPAV1@U?$_Wrap_alloc@V?$xalloc@PAVIRender_Sector@@@@@std@@@std@@YAPAPAVIRender_Sector@@PAPAV1@00AAU?$_Wrap_alloc@V?$xalloc@PAVIRender_Sector@@@@@0@@Z 100217c0 f i r2_loader.obj
 0001:00020810       ??$_Uninitialized_move@PAPAVIRender_Portal@@PAPAV1@U?$_Wrap_alloc@V?$xalloc@PAVIRender_Portal@@@@@std@@@std@@YAPAPAVIRender_Portal@@PAPAV1@00AAU?$_Wrap_alloc@V?$xalloc@PAVIRender_Portal@@@@@0@@Z 10021810 f i r2_loader.obj
 0001:00020860       ??$_Uninitialized_move@PAUFSlideWindowItem@@PAU1@U?$_Wrap_alloc@V?$xalloc@UFSlideWindowItem@@@@@std@@@std@@YAPAUFSlideWindowItem@@PAU1@00AAU?$_Wrap_alloc@V?$xalloc@UFSlideWindowItem@@@@@0@@Z 10021860 f i r2_loader.obj
 0001:000208b0       ??$_Uninitialized_move@PAV?$svector@U_D3DVERTEXELEMENT9@@$0EB@@@PAV1@U?$_Wrap_alloc@V?$xalloc@V?$svector@U_D3DVERTEXELEMENT9@@$0EB@@@@@@std@@@std@@YAPAV?$svector@U_D3DVERTEXELEMENT9@@$0EB@@@PAV1@00AAU?$_Wrap_alloc@V?$xalloc@V?$svector@U_D3DVERTEXELEMENT9@@$0EB@@@@@@0@@Z 100218b0 f i r2_loader.obj
 0001:00020900       ??$_Uninitialized_move@PAPAUIDirect3DVertexBuffer9@@PAPAU1@U?$_Wrap_alloc@V?$xalloc@PAUIDirect3DVertexBuffer9@@@@@std@@@std@@YAPAPAUIDirect3DVertexBuffer9@@PAPAU1@00AAU?$_Wrap_alloc@V?$xalloc@PAUIDirect3DVertexBuffer9@@@@@0@@Z 10021900 f i r2_loader.obj
 0001:00020950       ??$_Uninitialized_move@PAPAUIDirect3DIndexBuffer9@@PAPAU1@U?$_Wrap_alloc@V?$xalloc@PAUIDirect3DIndexBuffer9@@@@@std@@@std@@YAPAPAUIDirect3DIndexBuffer9@@PAPAU1@00AAU?$_Wrap_alloc@V?$xalloc@PAUIDirect3DIndexBuffer9@@@@@0@@Z 10021950 f i r2_loader.obj
 0001:000209a0       ?construct@?$_Wrap_alloc@V?$xalloc@UFSlideWindowItem@@@@@std@@QAEXPAUFSlideWindowItem@@@Z 100219a0 f i r2_loader.obj
 0001:000209c0       ?construct@?$_Wrap_alloc@V?$xalloc@V?$resptr_core@UShader@@Uresptrcode_shader@@@@@@@std@@QAEXPAV?$resptr_core@UShader@@Uresptrcode_shader@@@@@Z 100219c0 f i r2_loader.obj
 0001:000209e0       ?construct@?$_Wrap_alloc@V?$xalloc@V?$svector@U_D3DVERTEXELEMENT9@@$0EB@@@@@@std@@QAEXPAV?$svector@U_D3DVERTEXELEMENT9@@$0EB@@@@Z 100219e0 f i r2_loader.obj
 0001:00020a30       ??$_Fn@V?$xalloc@PAVIRender_Sector@@@@PAVIRender_Sector@@AAPAV2@@_Alloc_construct@std@@SAXHAAV?$xalloc@PAVIRender_Sector@@@@PAPAVIRender_Sector@@AAPAV3@@Z 10021a30 f i r2_loader.obj
 0001:00020a70       ??$_Fn@V?$xalloc@PAVIRender_Sector@@@@PAVIRender_Sector@@ABQAV2@@_Alloc_construct@std@@SAXHAAV?$xalloc@PAVIRender_Sector@@@@PAPAVIRender_Sector@@ABQAV3@@Z 10021a70 f i r2_loader.obj
 0001:00020ab0       ??$_Uninit_def_fill_n@PAPAVIRender_Visual@@IV?$xalloc@PAVIRender_Visual@@@@PAV1@@std@@YAXPAPAVIRender_Visual@@IAAU?$_Wrap_alloc@V?$xalloc@PAVIRender_Visual@@@@@0@0U_Nonscalar_ptr_iterator_tag@0@@Z 10021ab0 f i r2_loader.obj
 0001:00020b90       ??$_Uninit_def_fill_n@PAPAVIRender_Portal@@IV?$xalloc@PAVIRender_Portal@@@@PAV1@@std@@YAXPAPAVIRender_Portal@@IAAU?$_Wrap_alloc@V?$xalloc@PAVIRender_Portal@@@@@0@0U_Nonscalar_ptr_iterator_tag@0@@Z 10021b90 f i r2_loader.obj
 0001:00020c60       ??$_Uninit_def_fill_n@PAPAUIDirect3DVertexBuffer9@@IV?$xalloc@PAUIDirect3DVertexBuffer9@@@@PAU1@@std@@YAXPAPAUIDirect3DVertexBuffer9@@IAAU?$_Wrap_alloc@V?$xalloc@PAUIDirect3DVertexBuffer9@@@@@0@0U_Nonscalar_ptr_iterator_tag@0@@Z 10021c60 f i r2_loader.obj
 0001:00020d30       ??$_Uninit_def_fill_n@PAPAUIDirect3DIndexBuffer9@@IV?$xalloc@PAUIDirect3DIndexBuffer9@@@@PAU1@@std@@YAXPAPAUIDirect3DIndexBuffer9@@IAAU?$_Wrap_alloc@V?$xalloc@PAUIDirect3DIndexBuffer9@@@@@0@0U_Nonscalar_ptr_iterator_tag@0@@Z 10021d30 f i r2_loader.obj
 0001:00020e00       ??$move@AAUFSlideWindowItem@@@std@@YA$$QAUFSlideWindowItem@@AAU1@@Z 10021e00 f i r2_loader.obj
 0001:00020e10       ??$_Unchecked@PAPAVIRender_Sector@@@std@@YAPAPAVIRender_Sector@@PAPAV1@@Z 10021e10 f i r2_loader.obj
 0001:00020e20       ??$_Uninit_move@PAPAVIRender_Sector@@PAPAV1@U?$_Wrap_alloc@V?$xalloc@PAVIRender_Sector@@@@@std@@@std@@YAPAPAVIRender_Sector@@PAPAV1@00AAU?$_Wrap_alloc@V?$xalloc@PAVIRender_Sector@@@@@0@@Z 10021e20 f i r2_loader.obj
 0001:00020e60       ??$_Rechecked@PAPAVIRender_Sector@@PAPAV1@@std@@YAAAPAPAVIRender_Sector@@AAPAPAV1@PAPAV1@@Z 10021e60 f i r2_loader.obj
 0001:00020e70       ??$_Unchecked@PAPAVIRender_Portal@@@std@@YAPAPAVIRender_Portal@@PAPAV1@@Z 10021e70 f i r2_loader.obj
 0001:00020e80       ??$_Uninit_move@PAPAVIRender_Portal@@PAPAV1@U?$_Wrap_alloc@V?$xalloc@PAVIRender_Portal@@@@@std@@@std@@YAPAPAVIRender_Portal@@PAPAV1@00AAU?$_Wrap_alloc@V?$xalloc@PAVIRender_Portal@@@@@0@@Z 10021e80 f i r2_loader.obj
 0001:00020ec0       ??$_Rechecked@PAPAVIRender_Portal@@PAPAV1@@std@@YAAAPAPAVIRender_Portal@@AAPAPAV1@PAPAV1@@Z 10021ec0 f i r2_loader.obj
 0001:00020ed0       ??$_Unchecked@PAUFSlideWindowItem@@@std@@YAPAUFSlideWindowItem@@PAU1@@Z 10021ed0 f i r2_loader.obj
 0001:00020ee0       ??$_Uninit_move@PAUFSlideWindowItem@@PAU1@U?$_Wrap_alloc@V?$xalloc@UFSlideWindowItem@@@@@std@@@std@@YAPAUFSlideWindowItem@@PAU1@00AAU?$_Wrap_alloc@V?$xalloc@UFSlideWindowItem@@@@@0@@Z 10021ee0 f i r2_loader.obj
 0001:00020f20       ??$_Rechecked@PAUFSlideWindowItem@@PAU1@@std@@YAAAPAUFSlideWindowItem@@AAPAU1@PAU1@@Z 10021f20 f i r2_loader.obj
 0001:00020f30       ??$_Unchecked@PAV?$svector@U_D3DVERTEXELEMENT9@@$0EB@@@@std@@YAPAV?$svector@U_D3DVERTEXELEMENT9@@$0EB@@@PAV1@@Z 10021f30 f i r2_loader.obj
 0001:00020f40       ??$_Uninit_move@PAV?$svector@U_D3DVERTEXELEMENT9@@$0EB@@@PAV1@U?$_Wrap_alloc@V?$xalloc@V?$svector@U_D3DVERTEXELEMENT9@@$0EB@@@@@@std@@@std@@YAPAV?$svector@U_D3DVERTEXELEMENT9@@$0EB@@@PAV1@00AAU?$_Wrap_alloc@V?$xalloc@V?$svector@U_D3DVERTEXELEMENT9@@$0EB@@@@@@0@@Z 10021f40 f i r2_loader.obj
 0001:00020f80       ??$_Rechecked@PAV?$svector@U_D3DVERTEXELEMENT9@@$0EB@@@PAV1@@std@@YAAAPAV?$svector@U_D3DVERTEXELEMENT9@@$0EB@@@AAPAV1@PAV1@@Z 10021f80 f i r2_loader.obj
 0001:00020f90       ??$_Unchecked@PAPAUIDirect3DVertexBuffer9@@@std@@YAPAPAUIDirect3DVertexBuffer9@@PAPAU1@@Z 10021f90 f i r2_loader.obj
 0001:00020fa0       ??$_Uninit_move@PAPAUIDirect3DVertexBuffer9@@PAPAU1@U?$_Wrap_alloc@V?$xalloc@PAUIDirect3DVertexBuffer9@@@@@std@@@std@@YAPAPAUIDirect3DVertexBuffer9@@PAPAU1@00AAU?$_Wrap_alloc@V?$xalloc@PAUIDirect3DVertexBuffer9@@@@@0@@Z 10021fa0 f i r2_loader.obj
 0001:00020fe0       ??$_Rechecked@PAPAUIDirect3DVertexBuffer9@@PAPAU1@@std@@YAAAPAPAUIDirect3DVertexBuffer9@@AAPAPAU1@PAPAU1@@Z 10021fe0 f i r2_loader.obj
 0001:00020ff0       ??$_Unchecked@PAPAUIDirect3DIndexBuffer9@@@std@@YAPAPAUIDirect3DIndexBuffer9@@PAPAU1@@Z 10021ff0 f i r2_loader.obj
 0001:00021000       ??$_Uninit_move@PAPAUIDirect3DIndexBuffer9@@PAPAU1@U?$_Wrap_alloc@V?$xalloc@PAUIDirect3DIndexBuffer9@@@@@std@@@std@@YAPAPAUIDirect3DIndexBuffer9@@PAPAU1@00AAU?$_Wrap_alloc@V?$xalloc@PAUIDirect3DIndexBuffer9@@@@@0@@Z 10022000 f i r2_loader.obj
 0001:00021040       ??$_Rechecked@PAPAUIDirect3DIndexBuffer9@@PAPAU1@@std@@YAAAPAPAUIDirect3DIndexBuffer9@@AAPAPAU1@PAPAU1@@Z 10022040 f i r2_loader.obj
 0001:00021050       ??$construct@UFSlideWindowItem@@$$$V@?$allocator_traits@V?$xalloc@UFSlideWindowItem@@@@@std@@SAXAAV?$xalloc@UFSlideWindowItem@@@@PAUFSlideWindowItem@@@Z 10022050 f i r2_loader.obj
 0001:00021090       ??$construct@V?$resptr_core@UShader@@Uresptrcode_shader@@@@$$$V@?$allocator_traits@V?$xalloc@V?$resptr_core@UShader@@Uresptrcode_shader@@@@@@@std@@SAXAAV?$xalloc@V?$resptr_core@UShader@@Uresptrcode_shader@@@@@@PAV?$resptr_core@UShader@@Uresptrcode_shader@@@@@Z 10022090 f i r2_loader.obj
 0001:000210d0       ??$construct@V?$svector@U_D3DVERTEXELEMENT9@@$0EB@@@$$$V@?$allocator_traits@V?$xalloc@V?$svector@U_D3DVERTEXELEMENT9@@$0EB@@@@@@std@@SAXAAV?$xalloc@V?$svector@U_D3DVERTEXELEMENT9@@$0EB@@@@@PAV?$svector@U_D3DVERTEXELEMENT9@@$0EB@@@@Z 100220d0 f i r2_loader.obj
 0001:00021120       ?construct@?$xalloc@PAVIRender_Sector@@@@QAEXPAPAVIRender_Sector@@ABQAV2@@Z 10022120 f i r2_loader.obj
 0001:00021170       ?construct@?$_Wrap_alloc@V?$xalloc@PAVIRender_Visual@@@@@std@@QAEXPAPAVIRender_Visual@@@Z 10022170 f i r2_loader.obj
 0001:000211c0       ?construct@?$_Wrap_alloc@V?$xalloc@PAVIRender_Portal@@@@@std@@QAEXPAPAVIRender_Portal@@@Z 100221c0 f i r2_loader.obj
 0001:00021210       ?construct@?$_Wrap_alloc@V?$xalloc@PAUIDirect3DVertexBuffer9@@@@@std@@QAEXPAPAUIDirect3DVertexBuffer9@@@Z 10022210 f i r2_loader.obj
 0001:00021260       ?construct@?$_Wrap_alloc@V?$xalloc@PAUIDirect3DIndexBuffer9@@@@@std@@QAEXPAPAUIDirect3DIndexBuffer9@@@Z 10022260 f i r2_loader.obj
 0001:000212b0       ??$destroy@PAVIRender_Portal@@@?$_Wrap_alloc@V?$xalloc@PAVIRender_Portal@@@@@std@@QAEXPAPAVIRender_Portal@@@Z 100222b0 f i r2_loader.obj
 0001:000212c0       ??$destroy@PAUIDirect3DVertexBuffer9@@@?$_Wrap_alloc@V?$xalloc@PAUIDirect3DVertexBuffer9@@@@@std@@QAEXPAPAUIDirect3DVertexBuffer9@@@Z 100222c0 f i r2_loader.obj
 0001:000212d0       ??$destroy@PAUIDirect3DIndexBuffer9@@@?$_Wrap_alloc@V?$xalloc@PAUIDirect3DIndexBuffer9@@@@@std@@QAEXPAPAUIDirect3DIndexBuffer9@@@Z 100222d0 f i r2_loader.obj
 0001:000212e0       ??$_Val_type@PAPAVIRender_Sector@@@std@@YAPAPAVIRender_Sector@@PAPAV1@@Z 100222e0 f i r2_loader.obj
 0001:000212f0       ??$_Uninit_move@PAPAVIRender_Sector@@PAPAV1@V?$xalloc@PAVIRender_Sector@@@@PAV1@@std@@YAPAPAVIRender_Sector@@PAPAV1@00AAU?$_Wrap_alloc@V?$xalloc@PAVIRender_Sector@@@@@0@0U_Scalar_ptr_iterator_tag@0@@Z 100222f0 f i r2_loader.obj
 0001:00021320       ??$_Uninit_move@PAPAVIRender_Portal@@PAPAV1@V?$xalloc@PAVIRender_Portal@@@@PAV1@@std@@YAPAPAVIRender_Portal@@PAPAV1@00AAU?$_Wrap_alloc@V?$xalloc@PAVIRender_Portal@@@@@0@0U_Scalar_ptr_iterator_tag@0@@Z 10022320 f i r2_loader.obj
 0001:00021350       ??$_Uninit_move@PAUFSlideWindowItem@@PAU1@V?$xalloc@UFSlideWindowItem@@@@U1@@std@@YAPAUFSlideWindowItem@@PAU1@00AAU?$_Wrap_alloc@V?$xalloc@UFSlideWindowItem@@@@@0@0U_Nonscalar_ptr_iterator_tag@0@@Z 10022350 f i r2_loader.obj
 0001:00021450       ??$_Uninit_move@PAV?$svector@U_D3DVERTEXELEMENT9@@$0EB@@@PAV1@V?$xalloc@V?$svector@U_D3DVERTEXELEMENT9@@$0EB@@@@@V1@@std@@YAPAV?$svector@U_D3DVERTEXELEMENT9@@$0EB@@@PAV1@00AAU?$_Wrap_alloc@V?$xalloc@V?$svector@U_D3DVERTEXELEMENT9@@$0EB@@@@@@0@0U_Nonscalar_ptr_iterator_tag@0@@Z 10022450 f i r2_loader.obj
 0001:00021540       ??$_Uninit_move@PAPAUIDirect3DVertexBuffer9@@PAPAU1@V?$xalloc@PAUIDirect3DVertexBuffer9@@@@PAU1@@std@@YAPAPAUIDirect3DVertexBuffer9@@PAPAU1@00AAU?$_Wrap_alloc@V?$xalloc@PAUIDirect3DVertexBuffer9@@@@@0@0U_Scalar_ptr_iterator_tag@0@@Z 10022540 f i r2_loader.obj
 0001:00021570       ??$_Uninit_move@PAPAUIDirect3DIndexBuffer9@@PAPAU1@V?$xalloc@PAUIDirect3DIndexBuffer9@@@@PAU1@@std@@YAPAPAUIDirect3DIndexBuffer9@@PAPAU1@00AAU?$_Wrap_alloc@V?$xalloc@PAUIDirect3DIndexBuffer9@@@@@0@0U_Scalar_ptr_iterator_tag@0@@Z 10022570 f i r2_loader.obj
 0001:000215a0       ??$_Fn@V?$xalloc@UFSlideWindowItem@@@@UFSlideWindowItem@@$$$V@_Alloc_construct@std@@SAXU_Wrap_int@1@AAV?$xalloc@UFSlideWindowItem@@@@PAUFSlideWindowItem@@@Z 100225a0 f i r2_loader.obj
 0001:000215e0       ??$_Fn@V?$xalloc@V?$resptr_core@UShader@@Uresptrcode_shader@@@@@@V?$resptr_core@UShader@@Uresptrcode_shader@@@@$$$V@_Alloc_construct@std@@SAXU_Wrap_int@1@AAV?$xalloc@V?$resptr_core@UShader@@Uresptrcode_shader@@@@@@PAV?$resptr_core@UShader@@Uresptrcode_shader@@@@@Z 100225e0 f i r2_loader.obj
 0001:00021620       ??$_Fn@V?$xalloc@V?$svector@U_D3DVERTEXELEMENT9@@$0EB@@@@@V?$svector@U_D3DVERTEXELEMENT9@@$0EB@@@$$$V@_Alloc_construct@std@@SAXU_Wrap_int@1@AAV?$xalloc@V?$svector@U_D3DVERTEXELEMENT9@@$0EB@@@@@PAV?$svector@U_D3DVERTEXELEMENT9@@$0EB@@@@Z 10022620 f i r2_loader.obj
 0001:00021660       ??$_Construct@PAVIRender_Sector@@ABQAV1@@std@@YAXPAPAVIRender_Sector@@ABQAV1@@Z 10022660 f i r2_loader.obj
 0001:000216a0       ??$construct@PAVIRender_Visual@@$$$V@?$allocator_traits@V?$xalloc@PAVIRender_Visual@@@@@std@@SAXAAV?$xalloc@PAVIRender_Visual@@@@PAPAVIRender_Visual@@@Z 100226a0 f i r2_loader.obj
 0001:000216f0       ??$construct@PAVIRender_Portal@@$$$V@?$allocator_traits@V?$xalloc@PAVIRender_Portal@@@@@std@@SAXAAV?$xalloc@PAVIRender_Portal@@@@PAPAVIRender_Portal@@@Z 100226f0 f i r2_loader.obj
 0001:00021740       ??$construct@PAUIDirect3DVertexBuffer9@@$$$V@?$allocator_traits@V?$xalloc@PAUIDirect3DVertexBuffer9@@@@@std@@SAXAAV?$xalloc@PAUIDirect3DVertexBuffer9@@@@PAPAUIDirect3DVertexBuffer9@@@Z 10022740 f i r2_loader.obj
 0001:00021790       ??$construct@PAUIDirect3DIndexBuffer9@@$$$V@?$allocator_traits@V?$xalloc@PAUIDirect3DIndexBuffer9@@@@@std@@SAXAAV?$xalloc@PAUIDirect3DIndexBuffer9@@@@PAPAUIDirect3DIndexBuffer9@@@Z 10022790 f i r2_loader.obj
 0001:000217e0       ??0?$svector@U_D3DVERTEXELEMENT9@@$0EB@@@QAE@XZ 100227e0 f i r2_loader.obj
 0001:00021800       ??$destroy@PAVIRender_Portal@@@?$allocator_traits@V?$xalloc@PAVIRender_Portal@@@@@std@@SAXAAV?$xalloc@PAVIRender_Portal@@@@PAPAVIRender_Portal@@@Z 10022800 f i r2_loader.obj
 0001:00021810       ??$destroy@PAUIDirect3DVertexBuffer9@@@?$allocator_traits@V?$xalloc@PAUIDirect3DVertexBuffer9@@@@@std@@SAXAAV?$xalloc@PAUIDirect3DVertexBuffer9@@@@PAPAUIDirect3DVertexBuffer9@@@Z 10022810 f i r2_loader.obj
 0001:00021820       ??$destroy@PAUIDirect3DIndexBuffer9@@@?$allocator_traits@V?$xalloc@PAUIDirect3DIndexBuffer9@@@@@std@@SAXAAV?$xalloc@PAUIDirect3DIndexBuffer9@@@@PAPAUIDirect3DIndexBuffer9@@@Z 10022820 f i r2_loader.obj
 0001:00021830       ??$_Uninit_move@PAPAVIRender_Sector@@PAPAV1@V?$xalloc@PAVIRender_Sector@@@@PAV1@@std@@YAPAPAVIRender_Sector@@PAPAV1@00AAU?$_Wrap_alloc@V?$xalloc@PAVIRender_Sector@@@@@0@0U_Nonscalar_ptr_iterator_tag@0@@Z 10022830 f i r2_loader.obj
 0001:00021900       ??$_Uninit_move@PAPAVIRender_Portal@@PAPAV1@V?$xalloc@PAVIRender_Portal@@@@PAV1@@std@@YAPAPAVIRender_Portal@@PAPAV1@00AAU?$_Wrap_alloc@V?$xalloc@PAVIRender_Portal@@@@@0@0U_Nonscalar_ptr_iterator_tag@0@@Z 10022900 f i r2_loader.obj
 0001:000219d0       ??$construct@UFSlideWindowItem@@U1@@?$_Wrap_alloc@V?$xalloc@UFSlideWindowItem@@@@@std@@QAEXPAUFSlideWindowItem@@$$QAU2@@Z 100229d0 f i r2_loader.obj
 0001:00021a40       ??$construct@V?$svector@U_D3DVERTEXELEMENT9@@$0EB@@@V1@@?$_Wrap_alloc@V?$xalloc@V?$svector@U_D3DVERTEXELEMENT9@@$0EB@@@@@@std@@QAEXPAV?$svector@U_D3DVERTEXELEMENT9@@$0EB@@@$$QAV2@@Z 10022a40 f i r2_loader.obj
 0001:00021a90       ??$_Uninit_move@PAPAUIDirect3DVertexBuffer9@@PAPAU1@V?$xalloc@PAUIDirect3DVertexBuffer9@@@@PAU1@@std@@YAPAPAUIDirect3DVertexBuffer9@@PAPAU1@00AAU?$_Wrap_alloc@V?$xalloc@PAUIDirect3DVertexBuffer9@@@@@0@0U_Nonscalar_ptr_iterator_tag@0@@Z 10022a90 f i r2_loader.obj
 0001:00021b60       ??$_Uninit_move@PAPAUIDirect3DIndexBuffer9@@PAPAU1@V?$xalloc@PAUIDirect3DIndexBuffer9@@@@PAU1@@std@@YAPAPAUIDirect3DIndexBuffer9@@PAPAU1@00AAU?$_Wrap_alloc@V?$xalloc@PAUIDirect3DIndexBuffer9@@@@@0@0U_Nonscalar_ptr_iterator_tag@0@@Z 10022b60 f i r2_loader.obj
 0001:00021c30       ??$_Fn@V?$xalloc@PAVIRender_Visual@@@@PAVIRender_Visual@@$$$V@_Alloc_construct@std@@SAXU_Wrap_int@1@AAV?$xalloc@PAVIRender_Visual@@@@PAPAVIRender_Visual@@@Z 10022c30 f i r2_loader.obj
 0001:00021c70       ??$_Fn@V?$xalloc@PAVIRender_Portal@@@@PAVIRender_Portal@@$$$V@_Alloc_construct@std@@SAXU_Wrap_int@1@AAV?$xalloc@PAVIRender_Portal@@@@PAPAVIRender_Portal@@@Z 10022c70 f i r2_loader.obj
 0001:00021cb0       ??$_Fn@V?$xalloc@PAUIDirect3DVertexBuffer9@@@@PAUIDirect3DVertexBuffer9@@$$$V@_Alloc_construct@std@@SAXU_Wrap_int@1@AAV?$xalloc@PAUIDirect3DVertexBuffer9@@@@PAPAUIDirect3DVertexBuffer9@@@Z 10022cb0 f i r2_loader.obj
 0001:00021cf0       ??$_Fn@V?$xalloc@PAUIDirect3DIndexBuffer9@@@@PAUIDirect3DIndexBuffer9@@$$$V@_Alloc_construct@std@@SAXU_Wrap_int@1@AAV?$xalloc@PAUIDirect3DIndexBuffer9@@@@PAPAUIDirect3DIndexBuffer9@@@Z 10022cf0 f i r2_loader.obj
 0001:00021d30       ??$_Fn@V?$xalloc@PAVIRender_Portal@@@@PAVIRender_Portal@@@_Alloc_destroy@std@@SAXHAAV?$xalloc@PAVIRender_Portal@@@@PAPAVIRender_Portal@@@Z 10022d30 f i r2_loader.obj
 0001:00021d40       ??$_Fn@V?$xalloc@PAUIDirect3DVertexBuffer9@@@@PAUIDirect3DVertexBuffer9@@@_Alloc_destroy@std@@SAXHAAV?$xalloc@PAUIDirect3DVertexBuffer9@@@@PAPAUIDirect3DVertexBuffer9@@@Z 10022d40 f i r2_loader.obj
 0001:00021d50       ??$_Fn@V?$xalloc@PAUIDirect3DIndexBuffer9@@@@PAUIDirect3DIndexBuffer9@@@_Alloc_destroy@std@@SAXHAAV?$xalloc@PAUIDirect3DIndexBuffer9@@@@PAPAUIDirect3DIndexBuffer9@@@Z 10022d50 f i r2_loader.obj
 0001:00021d60       ??$construct@PAVIRender_Sector@@PAV1@@?$_Wrap_alloc@V?$xalloc@PAVIRender_Sector@@@@@std@@QAEXPAPAVIRender_Sector@@$$QAPAV2@@Z 10022d60 f i r2_loader.obj
 0001:00021db0       ??$destroy@PAVIRender_Sector@@@?$_Wrap_alloc@V?$xalloc@PAVIRender_Sector@@@@@std@@QAEXPAPAVIRender_Sector@@@Z 10022db0 f i r2_loader.obj
 0001:00021dc0       ??$construct@PAVIRender_Portal@@PAV1@@?$_Wrap_alloc@V?$xalloc@PAVIRender_Portal@@@@@std@@QAEXPAPAVIRender_Portal@@$$QAPAV2@@Z 10022dc0 f i r2_loader.obj
 0001:00021e10       ??$forward@UFSlideWindowItem@@@std@@YA$$QAUFSlideWindowItem@@AAU1@@Z 10022e10 f i r2_loader.obj
 0001:00021e20       ??$construct@UFSlideWindowItem@@U1@@?$allocator_traits@V?$xalloc@UFSlideWindowItem@@@@@std@@SAXAAV?$xalloc@UFSlideWindowItem@@@@PAUFSlideWindowItem@@$$QAU3@@Z 10022e20 f i r2_loader.obj
 0001:00021e80       ??$forward@V?$svector@U_D3DVERTEXELEMENT9@@$0EB@@@@std@@YA$$QAV?$svector@U_D3DVERTEXELEMENT9@@$0EB@@@AAV1@@Z 10022e80 f i r2_loader.obj
 0001:00021e90       ??$construct@V?$svector@U_D3DVERTEXELEMENT9@@$0EB@@@V1@@?$allocator_traits@V?$xalloc@V?$svector@U_D3DVERTEXELEMENT9@@$0EB@@@@@@std@@SAXAAV?$xalloc@V?$svector@U_D3DVERTEXELEMENT9@@$0EB@@@@@PAV?$svector@U_D3DVERTEXELEMENT9@@$0EB@@@$$QAV3@@Z 10022e90 f i r2_loader.obj
 0001:00021ee0       ??$construct@PAUIDirect3DVertexBuffer9@@PAU1@@?$_Wrap_alloc@V?$xalloc@PAUIDirect3DVertexBuffer9@@@@@std@@QAEXPAPAUIDirect3DVertexBuffer9@@$$QAPAU2@@Z 10022ee0 f i r2_loader.obj
 0001:00021f30       ??$construct@PAUIDirect3DIndexBuffer9@@PAU1@@?$_Wrap_alloc@V?$xalloc@PAUIDirect3DIndexBuffer9@@@@@std@@QAEXPAPAUIDirect3DIndexBuffer9@@$$QAPAU2@@Z 10022f30 f i r2_loader.obj
 0001:00021f80       ?destroy@?$xalloc@PAVIRender_Portal@@@@QAEXPAPAVIRender_Portal@@@Z 10022f80 f i r2_loader.obj
 0001:00021f90       ?destroy@?$xalloc@PAUIDirect3DVertexBuffer9@@@@QAEXPAPAUIDirect3DVertexBuffer9@@@Z 10022f90 f i r2_loader.obj
 0001:00021fa0       ?destroy@?$xalloc@PAUIDirect3DIndexBuffer9@@@@QAEXPAPAUIDirect3DIndexBuffer9@@@Z 10022fa0 f i r2_loader.obj
 0001:00021fb0       ??$forward@PAVIRender_Sector@@@std@@YA$$QAPAVIRender_Sector@@AAPAV1@@Z 10022fb0 f i r2_loader.obj
 0001:00021fc0       ??$construct@PAVIRender_Sector@@PAV1@@?$allocator_traits@V?$xalloc@PAVIRender_Sector@@@@@std@@SAXAAV?$xalloc@PAVIRender_Sector@@@@PAPAVIRender_Sector@@$$QAPAV3@@Z 10022fc0 f i r2_loader.obj
 0001:00022000       ??$destroy@PAVIRender_Sector@@@?$allocator_traits@V?$xalloc@PAVIRender_Sector@@@@@std@@SAXAAV?$xalloc@PAVIRender_Sector@@@@PAPAVIRender_Sector@@@Z 10023000 f i r2_loader.obj
 0001:00022010       ??$forward@PAVIRender_Portal@@@std@@YA$$QAPAVIRender_Portal@@AAPAV1@@Z 10023010 f i r2_loader.obj
 0001:00022020       ??$construct@PAVIRender_Portal@@PAV1@@?$allocator_traits@V?$xalloc@PAVIRender_Portal@@@@@std@@SAXAAV?$xalloc@PAVIRender_Portal@@@@PAPAVIRender_Portal@@$$QAPAV3@@Z 10023020 f i r2_loader.obj
 0001:00022060       ??$_Fn@V?$xalloc@UFSlideWindowItem@@@@UFSlideWindowItem@@U2@@_Alloc_construct@std@@SAXHAAV?$xalloc@UFSlideWindowItem@@@@PAUFSlideWindowItem@@$$QAU3@@Z 10023060 f i r2_loader.obj
 0001:000220c0       ??$_Fn@V?$xalloc@V?$svector@U_D3DVERTEXELEMENT9@@$0EB@@@@@V?$svector@U_D3DVERTEXELEMENT9@@$0EB@@@V2@@_Alloc_construct@std@@SAXHAAV?$xalloc@V?$svector@U_D3DVERTEXELEMENT9@@$0EB@@@@@PAV?$svector@U_D3DVERTEXELEMENT9@@$0EB@@@$$QAV3@@Z 100230c0 f i r2_loader.obj
 0001:00022110       ??$forward@PAUIDirect3DVertexBuffer9@@@std@@YA$$QAPAUIDirect3DVertexBuffer9@@AAPAU1@@Z 10023110 f i r2_loader.obj
 0001:00022120       ??$construct@PAUIDirect3DVertexBuffer9@@PAU1@@?$allocator_traits@V?$xalloc@PAUIDirect3DVertexBuffer9@@@@@std@@SAXAAV?$xalloc@PAUIDirect3DVertexBuffer9@@@@PAPAUIDirect3DVertexBuffer9@@$$QAPAU3@@Z 10023120 f i r2_loader.obj
 0001:00022160       ??$forward@PAUIDirect3DIndexBuffer9@@@std@@YA$$QAPAUIDirect3DIndexBuffer9@@AAPAU1@@Z 10023160 f i r2_loader.obj
 0001:00022170       ??$construct@PAUIDirect3DIndexBuffer9@@PAU1@@?$allocator_traits@V?$xalloc@PAUIDirect3DIndexBuffer9@@@@@std@@SAXAAV?$xalloc@PAUIDirect3DIndexBuffer9@@@@PAPAUIDirect3DIndexBuffer9@@$$QAPAU3@@Z 10023170 f i r2_loader.obj
 0001:000221b0       ??$_Destroy@PAVIRender_Portal@@@std@@YAXPAPAVIRender_Portal@@@Z 100231b0 f i r2_loader.obj
 0001:000221c0       ??$_Destroy@PAUIDirect3DVertexBuffer9@@@std@@YAXPAPAUIDirect3DVertexBuffer9@@@Z 100231c0 f i r2_loader.obj
 0001:000221d0       ??$_Destroy@PAUIDirect3DIndexBuffer9@@@std@@YAXPAPAUIDirect3DIndexBuffer9@@@Z 100231d0 f i r2_loader.obj
 0001:000221e0       ?construct@?$xalloc@UFSlideWindowItem@@@@QAEXPAUFSlideWindowItem@@ABU2@@Z 100231e0 f i r2_loader.obj
 0001:00022250       ?construct@?$xalloc@V?$svector@U_D3DVERTEXELEMENT9@@$0EB@@@@@QAEXPAV?$svector@U_D3DVERTEXELEMENT9@@$0EB@@@ABV2@@Z 10023250 f i r2_loader.obj
 0001:000222a0       ??$_Fn@V?$xalloc@PAVIRender_Sector@@@@PAVIRender_Sector@@PAV2@@_Alloc_construct@std@@SAXHAAV?$xalloc@PAVIRender_Sector@@@@PAPAVIRender_Sector@@$$QAPAV3@@Z 100232a0 f i r2_loader.obj
 0001:000222e0       ??$_Fn@V?$xalloc@PAVIRender_Sector@@@@PAVIRender_Sector@@@_Alloc_destroy@std@@SAXHAAV?$xalloc@PAVIRender_Sector@@@@PAPAVIRender_Sector@@@Z 100232e0 f i r2_loader.obj
 0001:000222f0       ??$_Fn@V?$xalloc@PAVIRender_Portal@@@@PAVIRender_Portal@@PAV2@@_Alloc_construct@std@@SAXHAAV?$xalloc@PAVIRender_Portal@@@@PAPAVIRender_Portal@@$$QAPAV3@@Z 100232f0 f i r2_loader.obj
 0001:00022330       ??$_Fn@V?$xalloc@PAUIDirect3DVertexBuffer9@@@@PAUIDirect3DVertexBuffer9@@PAU2@@_Alloc_construct@std@@SAXHAAV?$xalloc@PAUIDirect3DVertexBuffer9@@@@PAPAUIDirect3DVertexBuffer9@@$$QAPAU3@@Z 10023330 f i r2_loader.obj
 0001:00022370       ??$_Fn@V?$xalloc@PAUIDirect3DIndexBuffer9@@@@PAUIDirect3DIndexBuffer9@@PAU2@@_Alloc_construct@std@@SAXHAAV?$xalloc@PAUIDirect3DIndexBuffer9@@@@PAPAUIDirect3DIndexBuffer9@@$$QAPAU3@@Z 10023370 f i r2_loader.obj
 0001:000223b0       ??$_Construct@UFSlideWindowItem@@ABU1@@std@@YAXPAUFSlideWindowItem@@ABU1@@Z 100233b0 f i r2_loader.obj
 0001:00022410       ??$_Construct@V?$svector@U_D3DVERTEXELEMENT9@@$0EB@@@ABV1@@std@@YAXPAV?$svector@U_D3DVERTEXELEMENT9@@$0EB@@@ABV1@@Z 10023410 f i r2_loader.obj
 0001:00022460       ?destroy@?$xalloc@PAVIRender_Sector@@@@QAEXPAPAVIRender_Sector@@@Z 10023460 f i r2_loader.obj
 0001:00022470       ?construct@?$xalloc@PAVIRender_Portal@@@@QAEXPAPAVIRender_Portal@@ABQAV2@@Z 10023470 f i r2_loader.obj
 0001:000224c0       ?construct@?$xalloc@PAUIDirect3DVertexBuffer9@@@@QAEXPAPAUIDirect3DVertexBuffer9@@ABQAU2@@Z 100234c0 f i r2_loader.obj
 0001:00022510       ?construct@?$xalloc@PAUIDirect3DIndexBuffer9@@@@QAEXPAPAUIDirect3DIndexBuffer9@@ABQAU2@@Z 10023510 f i r2_loader.obj
 0001:00022560       ??$forward@ABUFSlideWindowItem@@@std@@YAABUFSlideWindowItem@@ABU1@@Z 10023560 f i r2_loader.obj
 0001:00022570       ??$forward@ABV?$svector@U_D3DVERTEXELEMENT9@@$0EB@@@@std@@YAABV?$svector@U_D3DVERTEXELEMENT9@@$0EB@@@ABV1@@Z 10023570 f i r2_loader.obj
 0001:00022580       ??$_Destroy@PAVIRender_Sector@@@std@@YAXPAPAVIRender_Sector@@@Z 10023580 f i r2_loader.obj
 0001:00022590       ??$_Construct@PAVIRender_Portal@@ABQAV1@@std@@YAXPAPAVIRender_Portal@@ABQAV1@@Z 10023590 f i r2_loader.obj
 0001:000225d0       ??$_Construct@PAUIDirect3DVertexBuffer9@@ABQAU1@@std@@YAXPAPAUIDirect3DVertexBuffer9@@ABQAU1@@Z 100235d0 f i r2_loader.obj
 0001:00022610       ??$_Construct@PAUIDirect3DIndexBuffer9@@ABQAU1@@std@@YAXPAPAUIDirect3DIndexBuffer9@@ABQAU1@@Z 10023610 f i r2_loader.obj
 0001:00022650       ??$forward@ABQAVIRender_Portal@@@std@@YAABQAVIRender_Portal@@ABQAV1@@Z 10023650 f i r2_loader.obj
 0001:00022660       ??$forward@ABQAUIDirect3DVertexBuffer9@@@std@@YAABQAUIDirect3DVertexBuffer9@@ABQAU1@@Z 10023660 f i r2_loader.obj
 0001:00022670       ??$forward@ABQAUIDirect3DIndexBuffer9@@@std@@YAABQAUIDirect3DIndexBuffer9@@ABQAU1@@Z 10023670 f i r2_loader.obj
 0001:00022680       ??_GCSector@@UAEPAXI@Z     10023680 f i r2_loader.obj
 0001:00022680       ??_ECSector@@UAEPAXI@Z     10023680 f i * CIL library *:* CIL module *
 0001:000226b0       ??0?$_Vector_val@U?$_Simple_types@PAVCPortal@@@std@@@std@@QAE@XZ 100236b0 f i r2_loader.obj
 0001:000226d0       ??0?$_Vector_alloc@$0A@U?$_Vec_base_types@PAVCPortal@@V?$xalloc@PAVCPortal@@@@@std@@@std@@QAE@ABV?$xalloc@PAVCPortal@@@@@Z 100236d0 f i r2_loader.obj
 0001:000226f0       ??0?$vector@PAVCPortal@@V?$xalloc@PAVCPortal@@@@@std@@QAE@XZ 100236f0 f i r2_loader.obj
 0001:00022710       ??0?$xr_vector@PAVCPortal@@V?$xalloc@PAVCPortal@@@@@@QAE@XZ 10023710 f i r2_loader.obj
 0001:00022730       ??$_Destroy_range@U?$_Wrap_alloc@V?$xalloc@PAVCPortal@@@@@std@@@std@@YAXPAPAVCPortal@@0AAU?$_Wrap_alloc@V?$xalloc@PAVCPortal@@@@@0@U_Scalar_ptr_iterator_tag@0@@Z 10023730 f i r2_loader.obj
 0001:00022740       ??$_Ptr_cat@PAVCPortal@@PAV1@@std@@YA?AU_Scalar_ptr_iterator_tag@0@PAPAVCPortal@@0@Z 10023740 f i r2_loader.obj
 0001:00022750       ??$_Destroy_range@U?$_Wrap_alloc@V?$xalloc@PAVCPortal@@@@@std@@@std@@YAXPAPAVCPortal@@0AAU?$_Wrap_alloc@V?$xalloc@PAVCPortal@@@@@0@@Z 10023750 f i r2_loader.obj
 0001:00022760       ?_Destroy@?$vector@PAVCPortal@@V?$xalloc@PAVCPortal@@@@@std@@IAEXPAPAVCPortal@@0@Z 10023760 f i r2_loader.obj
 0001:00022770       ??$xr_free@PAVCPortal@@@@YAXAAPAPAVCPortal@@@Z 10023770 f i r2_loader.obj
 0001:00022790       ?deallocate@?$xalloc@PAVCPortal@@@@QBEXPAPAVCPortal@@I@Z 10023790 f i r2_loader.obj
 0001:000227b0       ?deallocate@?$_Wrap_alloc@V?$xalloc@PAVCPortal@@@@@std@@QAEXPAPAVCPortal@@I@Z 100237b0 f i r2_loader.obj
 0001:000227d0       ??0?$xalloc@PAVCPortal@@@@QAE@XZ 100237d0 f i r2_loader.obj
 0001:000227e0       ??0?$_Wrap_alloc@V?$xalloc@PAVCPortal@@@@@std@@QAE@XZ 100237e0 f i r2_loader.obj
 0001:000227f0       ?_Getal@?$_Vector_alloc@$0A@U?$_Vec_base_types@PAVCPortal@@V?$xalloc@PAVCPortal@@@@@std@@@std@@QBE?AU?$_Wrap_alloc@V?$xalloc@PAVCPortal@@@@@2@XZ 100237f0 f i r2_loader.obj
 0001:00022800       ?_Tidy@?$vector@PAVCPortal@@V?$xalloc@PAVCPortal@@@@@std@@IAEXXZ 10023800 f i r2_loader.obj
 0001:00022830       ??1?$vector@PAVCPortal@@V?$xalloc@PAVCPortal@@@@@std@@QAE@XZ 10023830 f i r2_loader.obj
 0001:00022860       ??1?$xr_vector@PAVCPortal@@V?$xalloc@PAVCPortal@@@@@@QAE@XZ 10023860 f i r2_loader.obj
 0001:00022890       ??0?$_Vector_val@U?$_Simple_types@VCFrustum@@@std@@@std@@QAE@XZ 10023890 f i r2_loader.obj
 0001:000228b0       ??0?$_Vector_alloc@$0A@U?$_Vec_base_types@VCFrustum@@V?$xalloc@VCFrustum@@@@@std@@@std@@QAE@ABV?$xalloc@VCFrustum@@@@@Z 100238b0 f i r2_loader.obj
 0001:000228d0       ??0?$vector@VCFrustum@@V?$xalloc@VCFrustum@@@@@std@@QAE@XZ 100238d0 f i r2_loader.obj
 0001:000228f0       ??0?$xr_vector@VCFrustum@@V?$xalloc@VCFrustum@@@@@@QAE@XZ 100238f0 f i r2_loader.obj
 0001:00022910       ??$_Destroy@VCFrustum@@@std@@YAXPAVCFrustum@@@Z 10023910 f i r2_loader.obj
 0001:00022920       ?destroy@?$xalloc@VCFrustum@@@@QAEXPAVCFrustum@@@Z 10023920 f i r2_loader.obj
 0001:00022930       ??$_Fn@V?$xalloc@VCFrustum@@@@VCFrustum@@@_Alloc_destroy@std@@SAXHAAV?$xalloc@VCFrustum@@@@PAVCFrustum@@@Z 10023930 f i r2_loader.obj
 0001:00022940       ??$destroy@VCFrustum@@@?$allocator_traits@V?$xalloc@VCFrustum@@@@@std@@SAXAAV?$xalloc@VCFrustum@@@@PAVCFrustum@@@Z 10023940 f i r2_loader.obj
 0001:00022950       ??$destroy@VCFrustum@@@?$_Wrap_alloc@V?$xalloc@VCFrustum@@@@@std@@QAEXPAVCFrustum@@@Z 10023950 f i r2_loader.obj
 0001:00022960       ??$_Destroy_range@U?$_Wrap_alloc@V?$xalloc@VCFrustum@@@@@std@@@std@@YAXPAVCFrustum@@0AAU?$_Wrap_alloc@V?$xalloc@VCFrustum@@@@@0@U_Nonscalar_ptr_iterator_tag@0@@Z 10023960 f i r2_loader.obj
 0001:00022970       ??$_Ptr_cat@VCFrustum@@V1@@std@@YA?AU_Nonscalar_ptr_iterator_tag@0@PAVCFrustum@@0@Z 10023970 f i r2_loader.obj
 0001:00022980       ??$_Destroy_range@U?$_Wrap_alloc@V?$xalloc@VCFrustum@@@@@std@@@std@@YAXPAVCFrustum@@0AAU?$_Wrap_alloc@V?$xalloc@VCFrustum@@@@@0@@Z 10023980 f i r2_loader.obj
 0001:00022990       ?_Destroy@?$vector@VCFrustum@@V?$xalloc@VCFrustum@@@@@std@@IAEXPAVCFrustum@@0@Z 10023990 f i r2_loader.obj
 0001:000229a0       ??$xr_free@VCFrustum@@@@YAXAAPAVCFrustum@@@Z 100239a0 f i r2_loader.obj
 0001:000229c0       ?deallocate@?$xalloc@VCFrustum@@@@QBEXPAVCFrustum@@I@Z 100239c0 f i r2_loader.obj
 0001:000229e0       ?deallocate@?$_Wrap_alloc@V?$xalloc@VCFrustum@@@@@std@@QAEXPAVCFrustum@@I@Z 100239e0 f i r2_loader.obj
 0001:00022a00       ??0?$xalloc@VCFrustum@@@@QAE@XZ 10023a00 f i r2_loader.obj
 0001:00022a10       ??0?$_Wrap_alloc@V?$xalloc@VCFrustum@@@@@std@@QAE@XZ 10023a10 f i r2_loader.obj
 0001:00022a20       ?_Getal@?$_Vector_alloc@$0A@U?$_Vec_base_types@VCFrustum@@V?$xalloc@VCFrustum@@@@@std@@@std@@QBE?AU?$_Wrap_alloc@V?$xalloc@VCFrustum@@@@@2@XZ 10023a20 f i r2_loader.obj
 0001:00022a30       ?_Tidy@?$vector@VCFrustum@@V?$xalloc@VCFrustum@@@@@std@@IAEXXZ 10023a30 f i r2_loader.obj
 0001:00022a60       ??1?$vector@VCFrustum@@V?$xalloc@VCFrustum@@@@@std@@QAE@XZ 10023a60 f i r2_loader.obj
 0001:00022a90       ??1?$xr_vector@VCFrustum@@V?$xalloc@VCFrustum@@@@@@QAE@XZ 10023a90 f i r2_loader.obj
 0001:00022ac0       ??0?$_Vector_val@U?$_Simple_types@U_scissor@@@std@@@std@@QAE@XZ 10023ac0 f i r2_loader.obj
 0001:00022ae0       ??0?$_Vector_alloc@$0A@U?$_Vec_base_types@U_scissor@@V?$xalloc@U_scissor@@@@@std@@@std@@QAE@ABV?$xalloc@U_scissor@@@@@Z 10023ae0 f i r2_loader.obj
 0001:00022b00       ??0?$vector@U_scissor@@V?$xalloc@U_scissor@@@@@std@@QAE@XZ 10023b00 f i r2_loader.obj
 0001:00022b20       ??0?$xr_vector@U_scissor@@V?$xalloc@U_scissor@@@@@@QAE@XZ 10023b20 f i r2_loader.obj
 0001:00022b40       ??$_Destroy@U_scissor@@@std@@YAXPAU_scissor@@@Z 10023b40 f i r2_loader.obj
 0001:00022b50       ?destroy@?$xalloc@U_scissor@@@@QAEXPAU_scissor@@@Z 10023b50 f i r2_loader.obj
 0001:00022b60       ??$_Fn@V?$xalloc@U_scissor@@@@U_scissor@@@_Alloc_destroy@std@@SAXHAAV?$xalloc@U_scissor@@@@PAU_scissor@@@Z 10023b60 f i r2_loader.obj
 0001:00022b70       ??$destroy@U_scissor@@@?$allocator_traits@V?$xalloc@U_scissor@@@@@std@@SAXAAV?$xalloc@U_scissor@@@@PAU_scissor@@@Z 10023b70 f i r2_loader.obj
 0001:00022b80       ??$destroy@U_scissor@@@?$_Wrap_alloc@V?$xalloc@U_scissor@@@@@std@@QAEXPAU_scissor@@@Z 10023b80 f i r2_loader.obj
 0001:00022b90       ??$_Destroy_range@U?$_Wrap_alloc@V?$xalloc@U_scissor@@@@@std@@@std@@YAXPAU_scissor@@0AAU?$_Wrap_alloc@V?$xalloc@U_scissor@@@@@0@U_Nonscalar_ptr_iterator_tag@0@@Z 10023b90 f i r2_loader.obj
 0001:00022ba0       ??$_Ptr_cat@U_scissor@@U1@@std@@YA?AU_Nonscalar_ptr_iterator_tag@0@PAU_scissor@@0@Z 10023ba0 f i r2_loader.obj
 0001:00022bb0       ??$_Destroy_range@U?$_Wrap_alloc@V?$xalloc@U_scissor@@@@@std@@@std@@YAXPAU_scissor@@0AAU?$_Wrap_alloc@V?$xalloc@U_scissor@@@@@0@@Z 10023bb0 f i r2_loader.obj
 0001:00022bc0       ?_Destroy@?$vector@U_scissor@@V?$xalloc@U_scissor@@@@@std@@IAEXPAU_scissor@@0@Z 10023bc0 f i r2_loader.obj
 0001:00022bd0       ??$xr_free@U_scissor@@@@YAXAAPAU_scissor@@@Z 10023bd0 f i r2_loader.obj
 0001:00022bf0       ?deallocate@?$xalloc@U_scissor@@@@QBEXPAU_scissor@@I@Z 10023bf0 f i r2_loader.obj
 0001:00022c10       ?deallocate@?$_Wrap_alloc@V?$xalloc@U_scissor@@@@@std@@QAEXPAU_scissor@@I@Z 10023c10 f i r2_loader.obj
 0001:00022c30       ??0?$xalloc@U_scissor@@@@QAE@XZ 10023c30 f i r2_loader.obj
 0001:00022c40       ??0?$_Wrap_alloc@V?$xalloc@U_scissor@@@@@std@@QAE@XZ 10023c40 f i r2_loader.obj
 0001:00022c50       ?_Getal@?$_Vector_alloc@$0A@U?$_Vec_base_types@U_scissor@@V?$xalloc@U_scissor@@@@@std@@@std@@QBE?AU?$_Wrap_alloc@V?$xalloc@U_scissor@@@@@2@XZ 10023c50 f i r2_loader.obj
 0001:00022c60       ?_Tidy@?$vector@U_scissor@@V?$xalloc@U_scissor@@@@@std@@IAEXXZ 10023c60 f i r2_loader.obj
 0001:00022c90       ??1?$vector@U_scissor@@V?$xalloc@U_scissor@@@@@std@@QAE@XZ 10023c90 f i r2_loader.obj
 0001:00022cc0       ??1?$xr_vector@U_scissor@@V?$xalloc@U_scissor@@@@@@QAE@XZ 10023cc0 f i r2_loader.obj
 0001:00022cf0       ??0CSector@@QAE@XZ         10023cf0 f i r2_loader.obj
 0001:00022d40       ?_Unused_capacity@?$vector@PAVIRender_Visual@@V?$xalloc@PAVIRender_Visual@@@@@std@@QBEIXZ 10023d40 f i r2_loader.obj
 0001:00022d50       ?_Xlen@?$vector@PAVIRender_Visual@@V?$xalloc@PAVIRender_Visual@@@@@std@@IBEXXZ 10023d50 f i r2_loader.obj
 0001:00022d60       ??$xr_alloc@PAVIRender_Visual@@@@YAPAPAVIRender_Visual@@I@Z 10023d60 f i r2_loader.obj
 0001:00022d80       ?allocate@?$xalloc@PAVIRender_Visual@@@@QBEPAPAVIRender_Visual@@IPBX@Z 10023d80 f i r2_loader.obj
 0001:00022da0       ?allocate@?$_Wrap_alloc@V?$xalloc@PAVIRender_Visual@@@@@std@@QAEPAPAVIRender_Visual@@I@Z 10023da0 f i r2_loader.obj
 0001:00022dc0       ??$_Rechecked@PAPAVIRender_Visual@@PAPAV1@@std@@YAAAPAPAVIRender_Visual@@AAPAPAV1@PAPAV1@@Z 10023dc0 f i r2_loader.obj
 0001:00022dd0       ??$forward@ABQAVIRender_Visual@@@std@@YAABQAVIRender_Visual@@ABQAV1@@Z 10023dd0 f i r2_loader.obj
 0001:00022de0       ??$_Construct@PAVIRender_Visual@@ABQAV1@@std@@YAXPAPAVIRender_Visual@@ABQAV1@@Z 10023de0 f i r2_loader.obj
 0001:00022df0       ?construct@?$xalloc@PAVIRender_Visual@@@@QAEXPAPAVIRender_Visual@@ABQAV2@@Z 10023df0 f i r2_loader.obj
 0001:00022e10       ??$_Fn@V?$xalloc@PAVIRender_Visual@@@@PAVIRender_Visual@@PAV2@@_Alloc_construct@std@@SAXHAAV?$xalloc@PAVIRender_Visual@@@@PAPAVIRender_Visual@@$$QAPAV3@@Z 10023e10 f i r2_loader.obj
 0001:00022e30       ??$construct@PAVIRender_Visual@@PAV1@@?$allocator_traits@V?$xalloc@PAVIRender_Visual@@@@@std@@SAXAAV?$xalloc@PAVIRender_Visual@@@@PAPAVIRender_Visual@@$$QAPAV3@@Z 10023e30 f i r2_loader.obj
 0001:00022e40       ??$forward@PAVIRender_Visual@@@std@@YA$$QAPAVIRender_Visual@@AAPAV1@@Z 10023e40 f i r2_loader.obj
 0001:00022e50       ??$construct@PAVIRender_Visual@@PAV1@@?$_Wrap_alloc@V?$xalloc@PAVIRender_Visual@@@@@std@@QAEXPAPAVIRender_Visual@@$$QAPAV2@@Z 10023e50 f i r2_loader.obj
 0001:00022e70       ??$_Destroy@PAVIRender_Visual@@@std@@YAXPAPAVIRender_Visual@@@Z 10023e70 f i r2_loader.obj
 0001:00022e80       ?destroy@?$xalloc@PAVIRender_Visual@@@@QAEXPAPAVIRender_Visual@@@Z 10023e80 f i r2_loader.obj
 0001:00022e90       ??$_Fn@V?$xalloc@PAVIRender_Visual@@@@PAVIRender_Visual@@@_Alloc_destroy@std@@SAXHAAV?$xalloc@PAVIRender_Visual@@@@PAPAVIRender_Visual@@@Z 10023e90 f i r2_loader.obj
 0001:00022ea0       ??$destroy@PAVIRender_Visual@@@?$allocator_traits@V?$xalloc@PAVIRender_Visual@@@@@std@@SAXAAV?$xalloc@PAVIRender_Visual@@@@PAPAVIRender_Visual@@@Z 10023ea0 f i r2_loader.obj
 0001:00022eb0       ??$destroy@PAVIRender_Visual@@@?$_Wrap_alloc@V?$xalloc@PAVIRender_Visual@@@@@std@@QAEXPAPAVIRender_Visual@@@Z 10023eb0 f i r2_loader.obj
 0001:00022ec0       ??$_Uninit_move@PAPAVIRender_Visual@@PAPAV1@V?$xalloc@PAVIRender_Visual@@@@PAV1@@std@@YAPAPAVIRender_Visual@@PAPAV1@00AAU?$_Wrap_alloc@V?$xalloc@PAVIRender_Visual@@@@@0@0U_Nonscalar_ptr_iterator_tag@0@@Z 10023ec0 f i r2_loader.obj
 0001:00022f30       ??$_Uninit_move@PAPAVIRender_Visual@@PAPAV1@V?$xalloc@PAVIRender_Visual@@@@PAV1@@std@@YAPAPAVIRender_Visual@@PAPAV1@00AAU?$_Wrap_alloc@V?$xalloc@PAVIRender_Visual@@@@@0@0U_Scalar_ptr_iterator_tag@0@@Z 10023f30 f i r2_loader.obj
 0001:00022f50       ??$_Val_type@PAPAVIRender_Visual@@@std@@YAPAPAVIRender_Visual@@PAPAV1@@Z 10023f50 f i r2_loader.obj
 0001:00022f60       ??$_Uninit_move@PAPAVIRender_Visual@@PAPAV1@U?$_Wrap_alloc@V?$xalloc@PAVIRender_Visual@@@@@std@@@std@@YAPAPAVIRender_Visual@@PAPAV1@00AAU?$_Wrap_alloc@V?$xalloc@PAVIRender_Visual@@@@@0@@Z 10023f60 f i r2_loader.obj
 0001:00022f80       ??$_Unchecked@PAPAVIRender_Visual@@@std@@YAPAPAVIRender_Visual@@PAPAV1@@Z 10023f80 f i r2_loader.obj
 0001:00022f90       ??$_Uninitialized_move@PAPAVIRender_Visual@@PAPAV1@U?$_Wrap_alloc@V?$xalloc@PAVIRender_Visual@@@@@std@@@std@@YAPAPAVIRender_Visual@@PAPAV1@00AAU?$_Wrap_alloc@V?$xalloc@PAVIRender_Visual@@@@@0@@Z 10023f90 f i r2_loader.obj
 0001:00022fb0       ??$_Umove@PAPAVIRender_Visual@@@?$vector@PAVIRender_Visual@@V?$xalloc@PAVIRender_Visual@@@@@std@@IAEPAPAVIRender_Visual@@PAPAV2@00@Z 10023fb0 f i r2_loader.obj
 0001:00022fe0       ?_Reallocate@?$vector@PAVIRender_Visual@@V?$xalloc@PAVIRender_Visual@@@@@std@@IAEXI@Z 10023fe0 f i r2_loader.obj
 0001:000230a0       ?capacity@?$vector@PAVIRender_Visual@@V?$xalloc@PAVIRender_Visual@@@@@std@@QBEIXZ 100240a0 f i r2_loader.obj
 0001:000230b0       ?max_size@?$xalloc@PAVIRender_Visual@@@@QBEIXZ 100240b0 f i r2_loader.obj
 0001:000230c0       ??$_Fn@V?$xalloc@PAVIRender_Visual@@@@@_Alloc_max_size@std@@SAIHABV?$xalloc@PAVIRender_Visual@@@@@Z 100240c0 f i r2_loader.obj
 0001:000230d0       ?max_size@?$allocator_traits@V?$xalloc@PAVIRender_Visual@@@@@std@@SAIABV?$xalloc@PAVIRender_Visual@@@@@Z 100240d0 f i r2_loader.obj
 0001:000230e0       ?max_size@?$_Wrap_alloc@V?$xalloc@PAVIRender_Visual@@@@@std@@QBEIXZ 100240e0 f i r2_loader.obj
 0001:000230f0       ?max_size@?$vector@PAVIRender_Visual@@V?$xalloc@PAVIRender_Visual@@@@@std@@QBEIXZ 100240f0 f i r2_loader.obj
 0001:00023100       ?_Grow_to@?$vector@PAVIRender_Visual@@V?$xalloc@PAVIRender_Visual@@@@@std@@IBEII@Z 10024100 f i r2_loader.obj
 0001:00023140       ?_Reserve@?$vector@PAVIRender_Visual@@V?$xalloc@PAVIRender_Visual@@@@@std@@IAEXI@Z 10024140 f i r2_loader.obj
 0001:000231c0       ?InterlockedIncrement@@YAKPCK@Z 100241c0 f i r2_loader.obj
 0001:000231d0       ?InterlockedDecrement@@YAKPCK@Z 100241d0 f i r2_loader.obj
 0001:000231e0       ?InterlockedExchange@@YAKPCKK@Z 100241e0 f i r2_loader.obj
 0001:000231f0       ?resize@?$svector@U_D3DVERTEXELEMENT9@@$0EB@@@QAEXH@Z 100241f0 f i r2_loader.obj
 0001:00023200       ?size@?$vector@PAVIRender_Visual@@V?$xalloc@PAVIRender_Visual@@@@@std@@QBEIXZ 10024200 f i r2_loader.obj
 0001:00023210       ?size@?$xr_vector@PAVIRender_Visual@@V?$xalloc@PAVIRender_Visual@@@@@@QBEIXZ 10024210 f i r2_loader.obj
 0001:00023220       ?strchr@@YAPADPADH@Z       10024220 f i r2_loader.obj
 0001:00023230       ?Calculate@CRender@@UAEXXZ 10024230 f   r2_R_calculate.obj
 0001:00023620       ?size@?$xr_vector@PAVISpatial@@V?$xalloc@PAVISpatial@@@@@@QBEIXZ 10024620 f i r2_R_calculate.obj
 0001:00023630       ??A?$xr_vector@PAVISpatial@@V?$xalloc@PAVISpatial@@@@@@QAEAAPAVISpatial@@I@Z 10024630 f i r2_R_calculate.obj
 0001:00023640       ?begin@?$vector@PAVISpatial@@V?$xalloc@PAVISpatial@@@@@std@@QAE?AV?$_Vector_iterator@V?$_Vector_val@U?$_Simple_types@PAVISpatial@@@std@@@std@@@2@XZ 10024640 f i r2_R_calculate.obj
 0001:00023650       ?size@?$vector@PAVISpatial@@V?$xalloc@PAVISpatial@@@@@std@@QBEIXZ 10024650 f i r2_R_calculate.obj
 0001:00023660       ??D?$_Vector_iterator@V?$_Vector_val@U?$_Simple_types@PAVISpatial@@@std@@@std@@@std@@QBEAAPAVISpatial@@XZ 10024660 f i r2_R_calculate.obj
 0001:00023670       ??H?$_Vector_iterator@V?$_Vector_val@U?$_Simple_types@PAVISpatial@@@std@@@std@@@std@@QBE?AV01@H@Z 10024670 f i r2_R_calculate.obj
 0001:00023690       ??0?$_Vector_iterator@V?$_Vector_val@U?$_Simple_types@PAVISpatial@@@std@@@std@@@std@@QAE@PAPAVISpatial@@PBU_Container_base0@1@@Z 10024690 f i r2_R_calculate.obj
 0001:000236a0       ??Y?$_Vector_iterator@V?$_Vector_val@U?$_Simple_types@PAVISpatial@@@std@@@std@@@std@@QAEAAV01@H@Z 100246a0 f i r2_R_calculate.obj
 0001:000236b0       ??D?$_Vector_const_iterator@V?$_Vector_val@U?$_Simple_types@PAVISpatial@@@std@@@std@@@std@@QBEABQAVISpatial@@XZ 100246b0 f i r2_R_calculate.obj
 0001:000236c0       ??0?$_Vector_const_iterator@V?$_Vector_val@U?$_Simple_types@PAVISpatial@@@std@@@std@@@std@@QAE@PAPAVISpatial@@PBU_Container_base0@1@@Z 100246c0 f i r2_R_calculate.obj
 0001:000236d0       ??Y?$_Vector_const_iterator@V?$_Vector_val@U?$_Simple_types@PAVISpatial@@@std@@@std@@@std@@QAEAAV01@H@Z 100246d0 f i r2_R_calculate.obj
 0001:000236e0       ??$_sqr@M@@YAMM@Z          100246e0 f i r2_R_calculate.obj
 0001:000236f0       ??D?$_Vector_const_iterator@V?$_Vector_val@U?$_Simple_types@URESULT@CDB@@@std@@@std@@@std@@QBEABURESULT@CDB@@XZ 100246f0 f i r2_R_calculate.obj
 0001:00023700       ??D?$_Vector_iterator@V?$_Vector_val@U?$_Simple_types@URESULT@CDB@@@std@@@std@@@std@@QBEAAURESULT@CDB@@XZ 10024700 f i r2_R_calculate.obj
 0001:00023710       ??0?$_Vector_const_iterator@V?$_Vector_val@U?$_Simple_types@URESULT@CDB@@@std@@@std@@@std@@QAE@PAURESULT@CDB@@PBU_Container_base0@1@@Z 10024710 f i r2_R_calculate.obj
 0001:00023720       ??0?$_Vector_iterator@V?$_Vector_val@U?$_Simple_types@URESULT@CDB@@@std@@@std@@@std@@QAE@PAURESULT@CDB@@PBU_Container_base0@1@@Z 10024720 f i r2_R_calculate.obj
 0001:00023730       ?begin@?$vector@URESULT@CDB@@V?$xalloc@URESULT@CDB@@@@@std@@QAE?AV?$_Vector_iterator@V?$_Vector_val@U?$_Simple_types@URESULT@CDB@@@std@@@std@@@2@XZ 10024730 f i r2_R_calculate.obj
 0001:00023740       ?size@?$vector@URESULT@CDB@@V?$xalloc@URESULT@CDB@@@@@std@@QBEIXZ 10024740 f i r2_R_calculate.obj
 0001:00023760       ?size@?$xr_vector@URESULT@CDB@@V?$xalloc@URESULT@CDB@@@@@@QBEIXZ 10024760 f i r2_R_calculate.obj
 0001:00023780       ?set@?$_vector3@M@@QAEAAU1@ABU1@@Z 10024780 f i r2_R_calculate.obj
 0001:000237a0       _fabsf                     100247a0 f i r2_R_calculate.obj
 0001:000237b0       ?_abs@@YAMM@Z              100247b0 f i r2_R_calculate.obj
 0001:000237c0       ?similar@?$_vector3@M@@QBEHABU1@M@Z 100247c0 f i r2_R_calculate.obj
 0001:00023810       ?pred_area@@YA_NPAVlight@@0@Z 10024810 f i r2_R_lights.obj
 0001:00023840       ?render_lights@CRender@@QAEXAAVlight_Package@@@Z 10024840 f   r2_R_lights.obj
 0001:000244a0       ??4?$xr_vector@PAVlight@@V?$xalloc@PAVlight@@@@@@QAEAAV0@ABV0@@Z 100254a0 f i r2_R_lights.obj
 0001:000244c0       ?render_indirect@CRender@@QAEXPAVlight@@@Z 100254c0 f   r2_R_lights.obj
 0001:000249a0       ?normalize@?$_vector3@M@@QAEAAU1@XZ 100259a0 f i r2_R_lights.obj
 0001:00024a00       ?intensity@?$_color@M@@QBEMXZ 10025a00 f i r2_R_lights.obj
 0001:00024a20       ?size@?$FixedMAP@PAUIDirect3DVertexShader9@@UmapNormalPS@R_dsgraph@@Udoug_lea_allocator@@@@QAEIXZ 10025a20 f i r2_R_lights.obj
 0001:00024a30       ?size@?$FixedMAP@PAUIDirect3DVertexShader9@@UmapMatrixPS@R_dsgraph@@Udoug_lea_allocator@@@@QAEIXZ 10025a30 f i r2_R_lights.obj
 0001:00024a40       ?size@?$FixedMAP@MU_MatrixItemS@R_dsgraph@@Udoug_lea_allocator@@@@QAEIXZ 10025a40 f i r2_R_lights.obj
 0001:00024a50       ??4?$vector@PAVlight@@V?$xalloc@PAVlight@@@@@std@@QAEAAV01@ABV01@@Z 10025a50 f i r2_R_lights.obj
 0001:00024b80       ?reserve@?$vector@PAVlight@@V?$xalloc@PAVlight@@@@@std@@QAEXI@Z 10025b80 f i r2_R_lights.obj
 0001:00024bb0       ?end@?$vector@PAVlight@@V?$xalloc@PAVlight@@@@@std@@QAE?AV?$_Vector_iterator@V?$_Vector_val@U?$_Simple_types@PAVlight@@@std@@@std@@@2@XZ 10025bb0 f i r2_R_lights.obj
 0001:00024bc0       ?empty@?$vector@PAVlight@@V?$xalloc@PAVlight@@@@@std@@QBE_NXZ 10025bc0 f i r2_R_lights.obj
 0001:00024bd0       ?back@?$vector@PAVlight@@V?$xalloc@PAVlight@@@@@std@@QAEAAPAVlight@@XZ 10025bd0 f i r2_R_lights.obj
 0001:00024be0       ?push_back@?$vector@PAVlight@@V?$xalloc@PAVlight@@@@@std@@QAEXABQAVlight@@@Z 10025be0 f i r2_R_lights.obj
 0001:00024c40       ?pop_back@?$vector@PAVlight@@V?$xalloc@PAVlight@@@@@std@@QAEXXZ 10025c40 f i r2_R_lights.obj
 0001:00024c50       ?erase@?$vector@PAVlight@@V?$xalloc@PAVlight@@@@@std@@QAE?AV?$_Vector_iterator@V?$_Vector_val@U?$_Simple_types@PAVlight@@@std@@@std@@@2@V?$_Vector_const_iterator@V?$_Vector_val@U?$_Simple_types@PAVlight@@@std@@@std@@@2@@Z 10025c50 f i r2_R_lights.obj
 0001:00024c90       ?size@?$xr_vector@Ulight_indirect@@V?$xalloc@Ulight_indirect@@@@@@QBEIXZ 10025c90 f i r2_R_lights.obj
 0001:00024ca0       ??A?$xr_vector@Ulight_indirect@@V?$xalloc@Ulight_indirect@@@@@@QAEAAUlight_indirect@@I@Z 10025ca0 f i r2_R_lights.obj
 0001:00024cb0       ?empty@?$vector@Ulight_indirect@@V?$xalloc@Ulight_indirect@@@@@std@@QBE_NXZ 10025cb0 f i r2_R_lights.obj
 0001:00024cc0       ?capacity@?$vector@PAVlight@@V?$xalloc@PAVlight@@@@@std@@QBEIXZ 10025cc0 f i r2_R_lights.obj
 0001:00024cd0       ?_Make_iter@?$vector@PAVlight@@V?$xalloc@PAVlight@@@@@std@@QBE?AV?$_Vector_iterator@V?$_Vector_val@U?$_Simple_types@PAVlight@@@std@@@std@@@2@V?$_Vector_const_iterator@V?$_Vector_val@U?$_Simple_types@PAVlight@@@std@@@std@@@2@@Z 10025cd0 f i r2_R_lights.obj
 0001:00024ce0       ?max_size@?$vector@PAVlight@@V?$xalloc@PAVlight@@@@@std@@QBEIXZ 10025ce0 f i r2_R_lights.obj
 0001:00024cf0       ?_Buy@?$vector@PAVlight@@V?$xalloc@PAVlight@@@@@std@@IAE_NI@Z 10025cf0 f i r2_R_lights.obj
 0001:00024d50       ?_Inside@?$vector@PAVlight@@V?$xalloc@PAVlight@@@@@std@@IBE_NPBQAVlight@@@Z 10025d50 f i r2_R_lights.obj
 0001:00024d70       ?_Reallocate@?$vector@PAVlight@@V?$xalloc@PAVlight@@@@@std@@IAEXI@Z 10025d70 f i r2_R_lights.obj
 0001:00024e30       ?_Reserve@?$vector@PAVlight@@V?$xalloc@PAVlight@@@@@std@@IAEXI@Z 10025e30 f i r2_R_lights.obj
 0001:00024ea0       ?_Xlen@?$vector@PAVlight@@V?$xalloc@PAVlight@@@@@std@@IBEXXZ 10025ea0 f i r2_R_lights.obj
 0001:00024eb0       ?_Orphan_range@?$vector@PAVlight@@V?$xalloc@PAVlight@@@@@std@@IBEXPAPAVlight@@0@Z 10025eb0 f i r2_R_lights.obj
 0001:00024ec0       ?_Change_alloc@?$_Vector_alloc@$0A@U?$_Vec_base_types@PAVlight@@V?$xalloc@PAVlight@@@@@std@@@std@@QAEXABU?$_Wrap_alloc@V?$xalloc@PAVlight@@@@@2@@Z 10025ec0 f i r2_R_lights.obj
 0001:00024ed0       ?begin@?$vector@Ulight_indirect@@V?$xalloc@Ulight_indirect@@@@@std@@QAE?AV?$_Vector_iterator@V?$_Vector_val@U?$_Simple_types@Ulight_indirect@@@std@@@std@@@2@XZ 10025ed0 f i r2_R_lights.obj
 0001:00024ee0       ?size@?$vector@Ulight_indirect@@V?$xalloc@Ulight_indirect@@@@@std@@QBEIXZ 10025ee0 f i r2_R_lights.obj
 0001:00024ef0       ??G?$_Vector_iterator@V?$_Vector_val@U?$_Simple_types@PAVlight@@@std@@@std@@@std@@QBE?AV01@H@Z 10025ef0 f i r2_R_lights.obj
 0001:00024f00       ??D?$_Vector_iterator@V?$_Vector_val@U?$_Simple_types@Ulight_indirect@@@std@@@std@@@std@@QBEAAUlight_indirect@@XZ 10025f00 f i r2_R_lights.obj
 0001:00024f10       ??H?$_Vector_iterator@V?$_Vector_val@U?$_Simple_types@Ulight_indirect@@@std@@@std@@@std@@QBE?AV01@H@Z 10025f10 f i r2_R_lights.obj
 0001:00024f30       ?_Unused_capacity@?$vector@PAVlight@@V?$xalloc@PAVlight@@@@@std@@QBEIXZ 10025f30 f i r2_R_lights.obj
 0001:00024f40       ?_Grow_to@?$vector@PAVlight@@V?$xalloc@PAVlight@@@@@std@@IBEII@Z 10025f40 f i r2_R_lights.obj
 0001:00024f80       ?allocate@?$_Wrap_alloc@V?$xalloc@PAVlight@@@@@std@@QAEPAPAVlight@@I@Z 10025f80 f i r2_R_lights.obj
 0001:00024fa0       ?max_size@?$_Wrap_alloc@V?$xalloc@PAVlight@@@@@std@@QBEIXZ 10025fa0 f i r2_R_lights.obj
 0001:00024fb0       ??Z?$_Vector_iterator@V?$_Vector_val@U?$_Simple_types@PAVlight@@@std@@@std@@@std@@QAEAAV01@H@Z 10025fb0 f i r2_R_lights.obj
 0001:00024fc0       ??0?$_Vector_iterator@V?$_Vector_val@U?$_Simple_types@Ulight_indirect@@@std@@@std@@@std@@QAE@PAUlight_indirect@@PBU_Container_base0@1@@Z 10025fc0 f i r2_R_lights.obj
 0001:00024fd0       ??Y?$_Vector_iterator@V?$_Vector_val@U?$_Simple_types@Ulight_indirect@@@std@@@std@@@std@@QAEAAV01@H@Z 10025fd0 f i r2_R_lights.obj
 0001:00024fe0       ??D?$_Vector_const_iterator@V?$_Vector_val@U?$_Simple_types@Ulight_indirect@@@std@@@std@@@std@@QBEABUlight_indirect@@XZ 10025fe0 f i r2_R_lights.obj
 0001:00024ff0       ?allocate@?$xalloc@PAVlight@@@@QBEPAPAVlight@@IPBX@Z 10025ff0 f i r2_R_lights.obj
 0001:00025010       ?max_size@?$allocator_traits@V?$xalloc@PAVlight@@@@@std@@SAIABV?$xalloc@PAVlight@@@@@Z 10026010 f i r2_R_lights.obj
 0001:00025020       ??0?$_Vector_const_iterator@V?$_Vector_val@U?$_Simple_types@Ulight_indirect@@@std@@@std@@@std@@QAE@PAUlight_indirect@@PBU_Container_base0@1@@Z 10026020 f i r2_R_lights.obj
 0001:00025030       ??Y?$_Vector_const_iterator@V?$_Vector_val@U?$_Simple_types@Ulight_indirect@@@std@@@std@@@std@@QAEAAV01@H@Z 10026030 f i r2_R_lights.obj
 0001:00025040       ??$sort@V?$_Vector_iterator@V?$_Vector_val@U?$_Simple_types@PAVlight@@@std@@@std@@@std@@P6A_NPAVlight@@0@Z@std@@YAXV?$_Vector_iterator@V?$_Vector_val@U?$_Simple_types@PAVlight@@@std@@@std@@@0@0P6A_NPAVlight@@1@Z@Z 10026040 f i r2_R_lights.obj
 0001:00025060       ??$reverse@V?$_Vector_iterator@V?$_Vector_val@U?$_Simple_types@PAVlight@@@std@@@std@@@std@@@std@@YAXV?$_Vector_iterator@V?$_Vector_val@U?$_Simple_types@PAVlight@@@std@@@std@@@0@0@Z 10026060 f i r2_R_lights.obj
 0001:00025090       ??$?9V?$xalloc@PAVlight@@@@V0@@std@@YA_NABU?$_Wrap_alloc@V?$xalloc@PAVlight@@@@@0@0@Z 10026090 f i r2_R_lights.obj
 0001:000250a0       ??$_Copy_impl@PAPAVlight@@PAPAV1@@std@@YAPAPAVlight@@PAPAV1@00@Z 100260a0 f i r2_R_lights.obj
 0001:000250d0       ??$_Ucopy@PAPAVlight@@@?$vector@PAVlight@@V?$xalloc@PAVlight@@@@@std@@IAEPAPAVlight@@PAPAV2@00@Z 100260d0 f i r2_R_lights.obj
 0001:000250f0       ??$addressof@QAVlight@@@std@@YAPBQAVlight@@ABQAV1@@Z 100260f0 f i r2_R_lights.obj
 0001:00025100       ??$construct@PAVlight@@AAPAV1@@?$_Wrap_alloc@V?$xalloc@PAVlight@@@@@std@@QAEXPAPAVlight@@AAPAV2@@Z 10026100 f i r2_R_lights.obj
 0001:00025120       ??$construct@PAVlight@@ABQAV1@@?$_Wrap_alloc@V?$xalloc@PAVlight@@@@@std@@QAEXPAPAVlight@@ABQAV2@@Z 10026120 f i r2_R_lights.obj
 0001:00025140       ??$destroy@PAVlight@@@?$_Wrap_alloc@V?$xalloc@PAVlight@@@@@std@@QAEXPAPAVlight@@@Z 10026140 f i r2_R_lights.obj
 0001:00025150       ??$_Move@PAPAVlight@@PAPAV1@@std@@YAPAPAVlight@@PAPAV1@00@Z 10026150 f i r2_R_lights.obj
 0001:00025180       ??$_Umove@PAPAVlight@@@?$vector@PAVlight@@V?$xalloc@PAVlight@@@@@std@@IAEPAPAVlight@@PAPAV2@00@Z 10026180 f i r2_R_lights.obj
 0001:000251b0       ??$xr_alloc@PAVlight@@@@YAPAPAVlight@@I@Z 100261b0 f i r2_R_lights.obj
 0001:000251d0       ??$_Fn@V?$xalloc@PAVlight@@@@@_Alloc_max_size@std@@SAIHABV?$xalloc@PAVlight@@@@@Z 100261d0 f i r2_R_lights.obj
 0001:000251e0       ?max_size@?$xalloc@PAVlight@@@@QBEIXZ 100261e0 f i r2_R_lights.obj
 0001:000251f0       ??G?$_Vector_iterator@V?$_Vector_val@U?$_Simple_types@PAVlight@@@std@@@std@@@std@@QBEHABV?$_Vector_const_iterator@V?$_Vector_val@U?$_Simple_types@PAVlight@@@std@@@std@@@1@@Z 100261f0 f i r2_R_lights.obj
 0001:00025200       ??G?$_Vector_const_iterator@V?$_Vector_val@U?$_Simple_types@PAVlight@@@std@@@std@@@std@@QBEHABV01@@Z 10026200 f i r2_R_lights.obj
 0001:00025210       ?_Compat@?$_Vector_const_iterator@V?$_Vector_val@U?$_Simple_types@PAVlight@@@std@@@std@@@std@@QBEXABV12@@Z 10026210 f i r2_R_lights.obj
 0001:00025220       ??$_Unchecked@V?$_Vector_val@U?$_Simple_types@PAVlight@@@std@@@std@@@std@@YAPAPAVlight@@V?$_Vector_iterator@V?$_Vector_val@U?$_Simple_types@PAVlight@@@std@@@std@@@0@@Z 10026220 f i r2_R_lights.obj
 0001:00025230       ??$_Sort@PAPAVlight@@HP6A_NPAV1@0@Z@std@@YAXPAPAVlight@@0HP6A_NPAV1@1@Z@Z 10026230 f i r2_R_lights.obj
 0001:00025320       ??$_Iter_cat@V?$_Vector_iterator@V?$_Vector_val@U?$_Simple_types@PAVlight@@@std@@@std@@@std@@@std@@YA?AUrandom_access_iterator_tag@0@ABV?$_Vector_iterator@V?$_Vector_val@U?$_Simple_types@PAVlight@@@std@@@std@@@0@@Z 10026320 f i r2_R_lights.obj
 0001:00025330       ??$_Reverse@PAPAVlight@@@std@@YAXPAPAVlight@@0Ubidirectional_iterator_tag@0@@Z 10026330 f i r2_R_lights.obj
 0001:00025350       ??$?8V?$xalloc@PAVlight@@@@V0@@std@@YA_NABU?$_Wrap_alloc@V?$xalloc@PAVlight@@@@@0@0@Z 10026350 f i r2_R_lights.obj
 0001:00025360       ??$_Copy_impl@PAPAVlight@@PAPAV1@@std@@YAPAPAVlight@@PAPAV1@00U_Scalar_ptr_iterator_tag@0@@Z 10026360 f i r2_R_lights.obj
 0001:00025390       ??$_Uninitialized_copy@PAPAVlight@@PAPAV1@U?$_Wrap_alloc@V?$xalloc@PAVlight@@@@@std@@@std@@YAPAPAVlight@@PAPAV1@00AAU?$_Wrap_alloc@V?$xalloc@PAVlight@@@@@0@@Z 10026390 f i r2_R_lights.obj
 0001:000253b0       ??$forward@AAPAVlight@@@std@@YAAAPAVlight@@AAPAV1@@Z 100263b0 f i r2_R_lights.obj
 0001:000253c0       ??$construct@PAVlight@@AAPAV1@@?$allocator_traits@V?$xalloc@PAVlight@@@@@std@@SAXAAV?$xalloc@PAVlight@@@@PAPAVlight@@AAPAV3@@Z 100263c0 f i r2_R_lights.obj
 0001:000253d0       ??$forward@ABQAVlight@@@std@@YAABQAVlight@@ABQAV1@@Z 100263d0 f i r2_R_lights.obj
 0001:000253e0       ??$construct@PAVlight@@ABQAV1@@?$allocator_traits@V?$xalloc@PAVlight@@@@@std@@SAXAAV?$xalloc@PAVlight@@@@PAPAVlight@@ABQAV3@@Z 100263e0 f i r2_R_lights.obj
 0001:000253f0       ??$destroy@PAVlight@@@?$allocator_traits@V?$xalloc@PAVlight@@@@@std@@SAXAAV?$xalloc@PAVlight@@@@PAPAVlight@@@Z 100263f0 f i r2_R_lights.obj
 0001:00025400       ??$_Move@PAPAVlight@@PAPAV1@@std@@YAPAPAVlight@@PAPAV1@00U_Scalar_ptr_iterator_tag@0@@Z 10026400 f i r2_R_lights.obj
 0001:00025430       ??$_Uninitialized_move@PAPAVlight@@PAPAV1@U?$_Wrap_alloc@V?$xalloc@PAVlight@@@@@std@@@std@@YAPAPAVlight@@PAPAV1@00AAU?$_Wrap_alloc@V?$xalloc@PAVlight@@@@@0@@Z 10026430 f i r2_R_lights.obj
 0001:00025450       ??0?$xalloc@PAVlight@@@@QAE@ABV0@@Z 10026450 f i r2_R_lights.obj
 0001:00025460       ?_Unchecked@?$_Vector_iterator@V?$_Vector_val@U?$_Simple_types@PAVlight@@@std@@@std@@@std@@QBEPAPAVlight@@XZ 10026460 f i r2_R_lights.obj
 0001:00025470       ??$_Unguarded_partition@PAPAVlight@@P6A_NPAV1@0@Z@std@@YA?AU?$pair@PAPAVlight@@PAPAV1@@0@PAPAVlight@@0P6A_NPAV2@1@Z@Z 10026470 f i r2_R_lights.obj
 0001:00025660       ??$make_heap@PAPAVlight@@P6A_NPAV1@0@Z@std@@YAXPAPAVlight@@0P6A_NPAV1@1@Z@Z 10026660 f i r2_R_lights.obj
 0001:00025680       ??$sort_heap@PAPAVlight@@P6A_NPAV1@0@Z@std@@YAXPAPAVlight@@0P6A_NPAV1@1@Z@Z 10026680 f i r2_R_lights.obj
 0001:00025690       ??$_Insertion_sort@PAPAVlight@@P6A_NPAV1@0@Z@std@@YAXPAPAVlight@@0P6A_NPAV1@1@Z@Z 10026690 f i r2_R_lights.obj
 0001:000256a0       ??$iter_swap@PAPAVlight@@PAPAV1@@std@@YAXPAPAVlight@@0@Z 100266a0 f i r2_R_lights.obj
 0001:000256b0       ??$?8PAVlight@@PAV0@@@YA_NABV?$xalloc@PAVlight@@@@0@Z 100266b0 f i r2_R_lights.obj
 0001:000256c0       ??$_Unchecked@PAPAVlight@@@std@@YAPAPAVlight@@PAPAV1@@Z 100266c0 f i r2_R_lights.obj
 0001:000256d0       ??$_Uninit_copy@PAPAVlight@@PAPAV1@U?$_Wrap_alloc@V?$xalloc@PAVlight@@@@@std@@@std@@YAPAPAVlight@@PAPAV1@00AAU?$_Wrap_alloc@V?$xalloc@PAVlight@@@@@0@@Z 100266d0 f i r2_R_lights.obj
 0001:000256f0       ??$_Rechecked@PAPAVlight@@PAPAV1@@std@@YAAAPAPAVlight@@AAPAPAV1@PAPAV1@@Z 100266f0 f i r2_R_lights.obj
 0001:00025700       ??$_Fn@V?$xalloc@PAVlight@@@@PAVlight@@AAPAV2@@_Alloc_construct@std@@SAXHAAV?$xalloc@PAVlight@@@@PAPAVlight@@AAPAV3@@Z 10026700 f i r2_R_lights.obj
 0001:00025720       ??$_Fn@V?$xalloc@PAVlight@@@@PAVlight@@ABQAV2@@_Alloc_construct@std@@SAXHAAV?$xalloc@PAVlight@@@@PAPAVlight@@ABQAV3@@Z 10026720 f i r2_R_lights.obj
 0001:00025740       ??$_Fn@V?$xalloc@PAVlight@@@@PAVlight@@@_Alloc_destroy@std@@SAXHAAV?$xalloc@PAVlight@@@@PAPAVlight@@@Z 10026740 f i r2_R_lights.obj
 0001:00025750       ??$_Uninit_move@PAPAVlight@@PAPAV1@U?$_Wrap_alloc@V?$xalloc@PAVlight@@@@@std@@@std@@YAPAPAVlight@@PAPAV1@00AAU?$_Wrap_alloc@V?$xalloc@PAVlight@@@@@0@@Z 10026750 f i r2_R_lights.obj
 0001:00025770       ?construct@?$xalloc@PAVlight@@@@QAEXPAPAVlight@@ABQAV2@@Z 10026770 f i r2_R_lights.obj
 0001:00025790       ?destroy@?$xalloc@PAVlight@@@@QAEXPAPAVlight@@@Z 10026790 f i r2_R_lights.obj
 0001:000257a0       ??$_Median@PAPAVlight@@P6A_NPAV1@0@Z@std@@YAXPAPAVlight@@00P6A_NPAV1@1@Z@Z 100267a0 f i r2_R_lights.obj
 0001:00025970       ??$?0AAPAPAVlight@@AAPAPAV0@X@?$pair@PAPAVlight@@PAPAV1@@std@@QAE@AAPAPAVlight@@0@Z 10026970 f i r2_R_lights.obj
 0001:00025990       ??$_Dist_type@PAPAVlight@@@std@@YAPAHPAPAVlight@@@Z 10026990 f i r2_R_lights.obj
 0001:000259a0       ??$_Val_type@PAPAVlight@@@std@@YAPAPAVlight@@PAPAV1@@Z 100269a0 f i r2_R_lights.obj
 0001:000259b0       ??$_Make_heap@PAPAVlight@@HPAV1@P6A_NPAV1@0@Z@std@@YAXPAPAVlight@@0P6A_NPAV1@1@ZPAH0@Z 100269b0 f i r2_R_lights.obj
 0001:00025a70       ??$_Sort_heap@PAPAVlight@@P6A_NPAV1@0@Z@std@@YAXPAPAVlight@@0P6A_NPAV1@1@Z@Z 10026a70 f i r2_R_lights.obj
 0001:00025ad0       ??$_Insertion_sort1@PAPAVlight@@P6A_NPAV1@0@ZPAV1@@std@@YAXPAPAVlight@@0P6A_NPAV1@1@Z0@Z 10026ad0 f i r2_R_lights.obj
 0001:00025b80       ??$swap@PAVlight@@@std@@YAXAAPAVlight@@0@Z 10026b80 f i r2_R_lights.obj
 0001:00025b90       ??$_Uninit_copy@PAPAVlight@@PAPAV1@V?$xalloc@PAVlight@@@@@std@@YAPAPAVlight@@PAPAV1@00AAU?$_Wrap_alloc@V?$xalloc@PAVlight@@@@@0@U_Scalar_ptr_iterator_tag@0@@Z 10026b90 f i r2_R_lights.obj
 0001:00025bb0       ??$_Uninit_move@PAPAVlight@@PAPAV1@V?$xalloc@PAVlight@@@@PAV1@@std@@YAPAPAVlight@@PAPAV1@00AAU?$_Wrap_alloc@V?$xalloc@PAVlight@@@@@0@0U_Scalar_ptr_iterator_tag@0@@Z 10026bb0 f i r2_R_lights.obj
 0001:00025bd0       ??$_Construct@PAVlight@@ABQAV1@@std@@YAXPAPAVlight@@ABQAV1@@Z 10026bd0 f i r2_R_lights.obj
 0001:00025be0       ??$_Destroy@PAVlight@@@std@@YAXPAPAVlight@@@Z 10026be0 f i r2_R_lights.obj
 0001:00025bf0       ??$_Med3@PAPAVlight@@P6A_NPAV1@0@Z@std@@YAXPAPAVlight@@00P6A_NPAV1@1@Z@Z 10026bf0 f i r2_R_lights.obj
 0001:00025c50       ??$forward@AAPAPAVlight@@@std@@YAAAPAPAVlight@@AAPAPAV1@@Z 10026c50 f i r2_R_lights.obj
 0001:00025c60       ??$_Move@AAPAVlight@@@std@@YA$$QAPAVlight@@AAPAV1@@Z 10026c60 f i r2_R_lights.obj
 0001:00025c70       ??$_Adjust_heap@PAPAVlight@@HPAV1@P6A_NPAV1@0@Z@std@@YAXPAPAVlight@@HH$$QAPAV1@P6A_NPAV1@2@Z@Z 10026c70 f i r2_R_lights.obj
 0001:00025d20       ??$_Pop_heap@PAPAVlight@@P6A_NPAV1@0@Z@std@@YAXPAPAVlight@@0P6A_NPAV1@1@Z@Z 10026d20 f i r2_R_lights.obj
 0001:00025d50       ??$_Move_backward@PAPAVlight@@PAPAV1@@std@@YAPAPAVlight@@PAPAV1@00@Z 10026d50 f i r2_R_lights.obj
 0001:00025d70       ??$_Uninit_copy@PAPAVlight@@PAPAV1@V?$xalloc@PAVlight@@@@@std@@YAPAPAVlight@@PAPAV1@00AAU?$_Wrap_alloc@V?$xalloc@PAVlight@@@@@0@U_Nonscalar_ptr_iterator_tag@0@@Z 10026d70 f i r2_R_lights.obj
 0001:00025de0       ??$_Uninit_move@PAPAVlight@@PAPAV1@V?$xalloc@PAVlight@@@@PAV1@@std@@YAPAPAVlight@@PAPAV1@00AAU?$_Wrap_alloc@V?$xalloc@PAVlight@@@@@0@0U_Nonscalar_ptr_iterator_tag@0@@Z 10026de0 f i r2_R_lights.obj
 0001:00025e50       ??$_Push_heap@PAPAVlight@@HPAV1@P6A_NPAV1@0@Z@std@@YAXPAPAVlight@@HH$$QAPAV1@P6A_NPAV1@2@Z@Z 10026e50 f i r2_R_lights.obj
 0001:00025ec0       ??$_Pop_heap_0@PAPAVlight@@PAV1@P6A_NPAV1@0@Z@std@@YAXPAPAVlight@@0P6A_NPAV1@1@Z0@Z 10026ec0 f i r2_R_lights.obj
 0001:00025ef0       ??$_Move_backward@PAPAVlight@@PAPAV1@@std@@YAPAPAVlight@@PAPAV1@00U_Scalar_ptr_iterator_tag@0@@Z 10026ef0 f i r2_R_lights.obj
 0001:00025f10       ??$construct@PAVlight@@PAV1@@?$_Wrap_alloc@V?$xalloc@PAVlight@@@@@std@@QAEXPAPAVlight@@$$QAPAV2@@Z 10026f10 f i r2_R_lights.obj
 0001:00025f30       ??$_Pop_heap@PAPAVlight@@HPAV1@P6A_NPAV1@0@Z@std@@YAXPAPAVlight@@00$$QAPAV1@P6A_NPAV1@2@ZPAH@Z 10026f30 f i r2_R_lights.obj
 0001:00025f60       ??$forward@PAVlight@@@std@@YA$$QAPAVlight@@AAPAV1@@Z 10026f60 f i r2_R_lights.obj
 0001:00025f70       ??$construct@PAVlight@@PAV1@@?$allocator_traits@V?$xalloc@PAVlight@@@@@std@@SAXAAV?$xalloc@PAVlight@@@@PAPAVlight@@$$QAPAV3@@Z 10026f70 f i r2_R_lights.obj
 0001:00025f80       ??$_Fn@V?$xalloc@PAVlight@@@@PAVlight@@PAV2@@_Alloc_construct@std@@SAXHAAV?$xalloc@PAVlight@@@@PAPAVlight@@$$QAPAV3@@Z 10026f80 f i r2_R_lights.obj
 0001:00025fa0       ?crossproduct@?$_vector3@M@@QAEAAU1@ABU1@0@Z 10026fa0 f i r2_R_lights.obj
 0001:00026000       ?dotproduct@?$_vector3@M@@QBEMABU1@@Z 10027000 f i r2_R_lights.obj
 0001:00026030       ?set@?$_color@M@@QAEAAU1@MMMM@Z 10027030 f i r2_R_lights.obj
 0001:00026050       ?set_color@light@@UAEXMMM@Z 10027050 f i r2_R_lights.obj
 0001:00026080       ?mul@?$_vector3@M@@QAEAAU1@M@Z 10027080 f i r2_R_lights.obj
 0001:000260b0       ?set_shadow@light@@UAEX_N@Z 100270b0 f i r2_R_lights.obj
 0001:000260d0       ?set_type@light@@UAEXW4LT@IRender_Light@@@Z 100270d0 f i r2_R_lights.obj
 0001:000260e0       ?is@?$_flags@I@@QBEHI@Z    100270e0 f i r2_R_lights.obj
 0001:00026100       ?empty@?$vector@USMAP_Rect@@V?$xalloc@USMAP_Rect@@@@@std@@QBE_NXZ 10027100 f i r2_R_lights.obj
 0001:00026110       ?size@?$xr_vector@U?$_vector2@H@@V?$xalloc@U?$_vector2@H@@@@@@QBEIXZ 10027110 f i r2_R_lights.obj
 0001:00026120       ?add@?$_vector2@H@@QAEAAU1@H@Z 10027120 f i r2_R_lights.obj
 0001:00026130       ?setup@SMAP_Rect@@QAEXAAU?$_vector2@H@@I@Z 10027130 f i r2_R_lights.obj
 0001:00026160       ??D?$_Vector_const_iterator@V?$_Vector_val@U?$_Simple_types@U?$_vector2@H@@@std@@@std@@@std@@QBEABU?$_vector2@H@@XZ 10027160 f i r2_R_lights.obj
 0001:00026170       ??D?$_Vector_iterator@V?$_Vector_val@U?$_Simple_types@U?$_vector2@H@@@std@@@std@@@std@@QBEAAU?$_vector2@H@@XZ 10027170 f i r2_R_lights.obj
 0001:00026180       ??A?$xr_vector@U?$_vector2@H@@V?$xalloc@U?$_vector2@H@@@@@@QAEAAU?$_vector2@H@@I@Z 10027180 f i r2_R_lights.obj
 0001:00026190       ?size@?$xr_vector@USMAP_Rect@@V?$xalloc@USMAP_Rect@@@@@@QBEIXZ 10027190 f i r2_R_lights.obj
 0001:000261a0       ?intersect@SMAP_Rect@@QAE_NAAU1@@Z 100271a0 f i r2_R_lights.obj
 0001:000261d0       ??D?$_Vector_const_iterator@V?$_Vector_val@U?$_Simple_types@USMAP_Rect@@@std@@@std@@@std@@QBEABUSMAP_Rect@@XZ 100271d0 f i r2_R_lights.obj
 0001:000261e0       ??D?$_Vector_iterator@V?$_Vector_val@U?$_Simple_types@USMAP_Rect@@@std@@@std@@@std@@QBEAAUSMAP_Rect@@XZ 100271e0 f i r2_R_lights.obj
 0001:000261f0       ??Y?$_Vector_const_iterator@V?$_Vector_val@U?$_Simple_types@USMAP_Rect@@@std@@@std@@@std@@QAEAAV01@H@Z 100271f0 f i r2_R_lights.obj
 0001:00026200       ??Y?$_Vector_iterator@V?$_Vector_val@U?$_Simple_types@USMAP_Rect@@@std@@@std@@@std@@QAEAAV01@H@Z 10027200 f i r2_R_lights.obj
 0001:00026210       ??H?$_Vector_iterator@V?$_Vector_val@U?$_Simple_types@USMAP_Rect@@@std@@@std@@@std@@QBE?AV01@H@Z 10027210 f i r2_R_lights.obj
 0001:00026230       ??0?$_Vector_const_iterator@V?$_Vector_val@U?$_Simple_types@USMAP_Rect@@@std@@@std@@@std@@QAE@PAUSMAP_Rect@@PBU_Container_base0@1@@Z 10027230 f i r2_R_lights.obj
 0001:00026240       ??0?$_Vector_iterator@V?$_Vector_val@U?$_Simple_types@USMAP_Rect@@@std@@@std@@@std@@QAE@PAUSMAP_Rect@@PBU_Container_base0@1@@Z 10027240 f i r2_R_lights.obj
 0001:00026250       ?begin@?$vector@USMAP_Rect@@V?$xalloc@USMAP_Rect@@@@@std@@QAE?AV?$_Vector_iterator@V?$_Vector_val@U?$_Simple_types@USMAP_Rect@@@std@@@std@@@2@XZ 10027250 f i r2_R_lights.obj
 0001:00026260       ??A?$xr_vector@USMAP_Rect@@V?$xalloc@USMAP_Rect@@@@@@QAEAAUSMAP_Rect@@I@Z 10027260 f i r2_R_lights.obj
 0001:00026270       ??$move@AAU?$_vector2@H@@@std@@YA$$QAU?$_vector2@H@@AAU1@@Z 10027270 f i r2_R_lights.obj
 0001:00026280       ??$_Move@PAU?$_vector2@H@@PAU1@@std@@YAPAU?$_vector2@H@@PAU1@00U_Nonscalar_ptr_iterator_tag@0@@Z 10027280 f i r2_R_lights.obj
 0001:000262b0       ??$_Move@PAU?$_vector2@H@@PAU1@@std@@YAPAU?$_vector2@H@@PAU1@00@Z 100272b0 f i r2_R_lights.obj
 0001:000262e0       ?_Make_iter@?$vector@U?$_vector2@H@@V?$xalloc@U?$_vector2@H@@@@@std@@QBE?AV?$_Vector_iterator@V?$_Vector_val@U?$_Simple_types@U?$_vector2@H@@@std@@@std@@@2@V?$_Vector_const_iterator@V?$_Vector_val@U?$_Simple_types@U?$_vector2@H@@@std@@@std@@@2@@Z 100272e0 f i r2_R_lights.obj
 0001:000262f0       ?erase@?$vector@U?$_vector2@H@@V?$xalloc@U?$_vector2@H@@@@@std@@QAE?AV?$_Vector_iterator@V?$_Vector_val@U?$_Simple_types@U?$_vector2@H@@@std@@@std@@@2@V?$_Vector_const_iterator@V?$_Vector_val@U?$_Simple_types@U?$_vector2@H@@@std@@@std@@@2@@Z 100272f0 f i r2_R_lights.obj
 0001:00026330       ??Y?$_Vector_const_iterator@V?$_Vector_val@U?$_Simple_types@U?$_vector2@H@@@std@@@std@@@std@@QAEAAV01@H@Z 10027330 f i r2_R_lights.obj
 0001:00026340       ??Y?$_Vector_iterator@V?$_Vector_val@U?$_Simple_types@U?$_vector2@H@@@std@@@std@@@std@@QAEAAV01@H@Z 10027340 f i r2_R_lights.obj
 0001:00026350       ??H?$_Vector_iterator@V?$_Vector_val@U?$_Simple_types@U?$_vector2@H@@@std@@@std@@@std@@QBE?AV01@H@Z 10027350 f i r2_R_lights.obj
 0001:00026370       ??0?$_Vector_const_iterator@V?$_Vector_val@U?$_Simple_types@U?$_vector2@H@@@std@@@std@@@std@@QAE@PAU?$_vector2@H@@PBU_Container_base0@1@@Z 10027370 f i r2_R_lights.obj
 0001:00026380       ??0?$_Vector_iterator@V?$_Vector_val@U?$_Simple_types@U?$_vector2@H@@@std@@@std@@@std@@QAE@PAU?$_vector2@H@@PBU_Container_base0@1@@Z 10027380 f i r2_R_lights.obj
 0001:00026390       ?begin@?$vector@U?$_vector2@H@@V?$xalloc@U?$_vector2@H@@@@@std@@QAE?AV?$_Vector_iterator@V?$_Vector_val@U?$_Simple_types@U?$_vector2@H@@@std@@@std@@@2@XZ 10027390 f i r2_R_lights.obj
 0001:000263a0       ?_Inside@?$vector@USMAP_Rect@@V?$xalloc@USMAP_Rect@@@@@std@@IBE_NPBUSMAP_Rect@@@Z 100273a0 f i r2_R_lights.obj
 0001:000263c0       ??$addressof@$$CBUSMAP_Rect@@@std@@YAPBUSMAP_Rect@@ABU1@@Z 100273c0 f i r2_R_lights.obj
 0001:000263d0       ??$_Fn@V?$xalloc@USMAP_Rect@@@@USMAP_Rect@@AAU2@@_Alloc_construct@std@@SAXHAAV?$xalloc@USMAP_Rect@@@@PAUSMAP_Rect@@AAU3@@Z 100273d0 f i r2_R_lights.obj
 0001:000263f0       ??$construct@USMAP_Rect@@AAU1@@?$allocator_traits@V?$xalloc@USMAP_Rect@@@@@std@@SAXAAV?$xalloc@USMAP_Rect@@@@PAUSMAP_Rect@@AAU3@@Z 100273f0 f i r2_R_lights.obj
 0001:00026410       ??$forward@AAUSMAP_Rect@@@std@@YAAAUSMAP_Rect@@AAU1@@Z 10027410 f i r2_R_lights.obj
 0001:00026420       ??$construct@USMAP_Rect@@AAU1@@?$_Wrap_alloc@V?$xalloc@USMAP_Rect@@@@@std@@QAEXPAUSMAP_Rect@@AAU2@@Z 10027420 f i r2_R_lights.obj
 0001:00026440       ?_Unused_capacity@?$vector@USMAP_Rect@@V?$xalloc@USMAP_Rect@@@@@std@@QBEIXZ 10027440 f i r2_R_lights.obj
 0001:00026450       ?_Xlen@?$vector@USMAP_Rect@@V?$xalloc@USMAP_Rect@@@@@std@@IBEXXZ 10027450 f i r2_R_lights.obj
 0001:00026460       ??$xr_alloc@USMAP_Rect@@@@YAPAUSMAP_Rect@@I@Z 10027460 f i r2_R_lights.obj
 0001:00026480       ?allocate@?$xalloc@USMAP_Rect@@@@QBEPAUSMAP_Rect@@IPBX@Z 10027480 f i r2_R_lights.obj
 0001:000264a0       ?allocate@?$_Wrap_alloc@V?$xalloc@USMAP_Rect@@@@@std@@QAEPAUSMAP_Rect@@I@Z 100274a0 f i r2_R_lights.obj
 0001:000264c0       ??$_Rechecked@PAUSMAP_Rect@@PAU1@@std@@YAAAPAUSMAP_Rect@@AAPAU1@PAU1@@Z 100274c0 f i r2_R_lights.obj
 0001:000264d0       ??$_Fn@V?$xalloc@USMAP_Rect@@@@USMAP_Rect@@U2@@_Alloc_construct@std@@SAXHAAV?$xalloc@USMAP_Rect@@@@PAUSMAP_Rect@@$$QAU3@@Z 100274d0 f i r2_R_lights.obj
 0001:000264f0       ??$construct@USMAP_Rect@@U1@@?$allocator_traits@V?$xalloc@USMAP_Rect@@@@@std@@SAXAAV?$xalloc@USMAP_Rect@@@@PAUSMAP_Rect@@$$QAU3@@Z 100274f0 f i r2_R_lights.obj
 0001:00026510       ??$forward@USMAP_Rect@@@std@@YA$$QAUSMAP_Rect@@AAU1@@Z 10027510 f i r2_R_lights.obj
 0001:00026520       ??$construct@USMAP_Rect@@U1@@?$_Wrap_alloc@V?$xalloc@USMAP_Rect@@@@@std@@QAEXPAUSMAP_Rect@@$$QAU2@@Z 10027520 f i r2_R_lights.obj
 0001:00026540       ??$_Uninit_move@PAUSMAP_Rect@@PAU1@V?$xalloc@USMAP_Rect@@@@U1@@std@@YAPAUSMAP_Rect@@PAU1@00AAU?$_Wrap_alloc@V?$xalloc@USMAP_Rect@@@@@0@0U_Nonscalar_ptr_iterator_tag@0@@Z 10027540 f i r2_R_lights.obj
 0001:000265b0       ??$_Val_type@PAUSMAP_Rect@@@std@@YAPAUSMAP_Rect@@PAU1@@Z 100275b0 f i r2_R_lights.obj
 0001:000265c0       ??$_Uninit_move@PAUSMAP_Rect@@PAU1@U?$_Wrap_alloc@V?$xalloc@USMAP_Rect@@@@@std@@@std@@YAPAUSMAP_Rect@@PAU1@00AAU?$_Wrap_alloc@V?$xalloc@USMAP_Rect@@@@@0@@Z 100275c0 f i r2_R_lights.obj
 0001:000265e0       ??$_Unchecked@PAUSMAP_Rect@@@std@@YAPAUSMAP_Rect@@PAU1@@Z 100275e0 f i r2_R_lights.obj
 0001:000265f0       ??$_Uninitialized_move@PAUSMAP_Rect@@PAU1@U?$_Wrap_alloc@V?$xalloc@USMAP_Rect@@@@@std@@@std@@YAPAUSMAP_Rect@@PAU1@00AAU?$_Wrap_alloc@V?$xalloc@USMAP_Rect@@@@@0@@Z 100275f0 f i r2_R_lights.obj
 0001:00026610       ??$_Umove@PAUSMAP_Rect@@@?$vector@USMAP_Rect@@V?$xalloc@USMAP_Rect@@@@@std@@IAEPAUSMAP_Rect@@PAU2@00@Z 10027610 f i r2_R_lights.obj
 0001:00026630       ?_Reallocate@?$vector@USMAP_Rect@@V?$xalloc@USMAP_Rect@@@@@std@@IAEXI@Z 10027630 f i r2_R_lights.obj
 0001:000266f0       ?capacity@?$vector@USMAP_Rect@@V?$xalloc@USMAP_Rect@@@@@std@@QBEIXZ 100276f0 f i r2_R_lights.obj
 0001:00026700       ?max_size@?$xalloc@USMAP_Rect@@@@QBEIXZ 10027700 f i r2_R_lights.obj
 0001:00026710       ??$_Fn@V?$xalloc@USMAP_Rect@@@@@_Alloc_max_size@std@@SAIHABV?$xalloc@USMAP_Rect@@@@@Z 10027710 f i r2_R_lights.obj
 0001:00026720       ?max_size@?$allocator_traits@V?$xalloc@USMAP_Rect@@@@@std@@SAIABV?$xalloc@USMAP_Rect@@@@@Z 10027720 f i r2_R_lights.obj
 0001:00026730       ?max_size@?$_Wrap_alloc@V?$xalloc@USMAP_Rect@@@@@std@@QBEIXZ 10027730 f i r2_R_lights.obj
 0001:00026740       ?max_size@?$vector@USMAP_Rect@@V?$xalloc@USMAP_Rect@@@@@std@@QBEIXZ 10027740 f i r2_R_lights.obj
 0001:00026750       ?_Grow_to@?$vector@USMAP_Rect@@V?$xalloc@USMAP_Rect@@@@@std@@IBEII@Z 10027750 f i r2_R_lights.obj
 0001:00026790       ?size@?$vector@USMAP_Rect@@V?$xalloc@USMAP_Rect@@@@@std@@QBEIXZ 10027790 f i r2_R_lights.obj
 0001:000267a0       ?_Reserve@?$vector@USMAP_Rect@@V?$xalloc@USMAP_Rect@@@@@std@@IAEXI@Z 100277a0 f i r2_R_lights.obj
 0001:00026810       ?_Orphan_range@?$vector@USMAP_Rect@@V?$xalloc@USMAP_Rect@@@@@std@@IBEXPAUSMAP_Rect@@0@Z 10027810 f i r2_R_lights.obj
 0001:00026820       ??$_Construct@USMAP_Rect@@ABU1@@std@@YAXPAUSMAP_Rect@@ABU1@@Z 10027820 f i r2_R_lights.obj
 0001:00026830       ?construct@?$xalloc@USMAP_Rect@@@@QAEXPAUSMAP_Rect@@ABU2@@Z 10027830 f i r2_R_lights.obj
 0001:00026850       ??$_Fn@V?$xalloc@USMAP_Rect@@@@USMAP_Rect@@ABU2@@_Alloc_construct@std@@SAXHAAV?$xalloc@USMAP_Rect@@@@PAUSMAP_Rect@@ABU3@@Z 10027850 f i r2_R_lights.obj
 0001:00026870       ??$construct@USMAP_Rect@@ABU1@@?$allocator_traits@V?$xalloc@USMAP_Rect@@@@@std@@SAXAAV?$xalloc@USMAP_Rect@@@@PAUSMAP_Rect@@ABU3@@Z 10027870 f i r2_R_lights.obj
 0001:00026890       ??$forward@ABUSMAP_Rect@@@std@@YAABUSMAP_Rect@@ABU1@@Z 10027890 f i r2_R_lights.obj
 0001:000268a0       ??$construct@USMAP_Rect@@ABU1@@?$_Wrap_alloc@V?$xalloc@USMAP_Rect@@@@@std@@QAEXPAUSMAP_Rect@@ABU2@@Z 100278a0 f i r2_R_lights.obj
 0001:000268c0       ?push_back@?$vector@USMAP_Rect@@V?$xalloc@USMAP_Rect@@@@@std@@QAEXABUSMAP_Rect@@@Z 100278c0 f i r2_R_lights.obj
 0001:00026910       ?set@?$_vector2@H@@QAEAAU1@HH@Z 10027910 f i r2_R_lights.obj
 0001:00026930       ?get_cp@SMAP_Rect@@QAEXAAU?$_vector2@H@@0@Z 10027930 f i r2_R_lights.obj
 0001:00026960       ?_Inside@?$vector@U?$_vector2@H@@V?$xalloc@U?$_vector2@H@@@@@std@@IBE_NPBU?$_vector2@H@@@Z 10027960 f i r2_R_lights.obj
 0001:00026980       ??$addressof@$$CBU?$_vector2@H@@@std@@YAPBU?$_vector2@H@@ABU1@@Z 10027980 f i r2_R_lights.obj
 0001:00026990       ??$_Fn@V?$xalloc@U?$_vector2@H@@@@U?$_vector2@H@@AAU2@@_Alloc_construct@std@@SAXHAAV?$xalloc@U?$_vector2@H@@@@PAU?$_vector2@H@@AAU3@@Z 10027990 f i r2_R_lights.obj
 0001:000269b0       ??$construct@U?$_vector2@H@@AAU1@@?$allocator_traits@V?$xalloc@U?$_vector2@H@@@@@std@@SAXAAV?$xalloc@U?$_vector2@H@@@@PAU?$_vector2@H@@AAU3@@Z 100279b0 f i r2_R_lights.obj
 0001:000269d0       ??$forward@AAU?$_vector2@H@@@std@@YAAAU?$_vector2@H@@AAU1@@Z 100279d0 f i r2_R_lights.obj
 0001:000269e0       ??$construct@U?$_vector2@H@@AAU1@@?$_Wrap_alloc@V?$xalloc@U?$_vector2@H@@@@@std@@QAEXPAU?$_vector2@H@@AAU2@@Z 100279e0 f i r2_R_lights.obj
 0001:00026a00       ?_Unused_capacity@?$vector@U?$_vector2@H@@V?$xalloc@U?$_vector2@H@@@@@std@@QBEIXZ 10027a00 f i r2_R_lights.obj
 0001:00026a10       ?_Xlen@?$vector@U?$_vector2@H@@V?$xalloc@U?$_vector2@H@@@@@std@@IBEXXZ 10027a10 f i r2_R_lights.obj
 0001:00026a20       ??$xr_alloc@U?$_vector2@H@@@@YAPAU?$_vector2@H@@I@Z 10027a20 f i r2_R_lights.obj
 0001:00026a40       ?allocate@?$xalloc@U?$_vector2@H@@@@QBEPAU?$_vector2@H@@IPBX@Z 10027a40 f i r2_R_lights.obj
 0001:00026a60       ?allocate@?$_Wrap_alloc@V?$xalloc@U?$_vector2@H@@@@@std@@QAEPAU?$_vector2@H@@I@Z 10027a60 f i r2_R_lights.obj
 0001:00026a80       ??$_Rechecked@PAU?$_vector2@H@@PAU1@@std@@YAAAPAU?$_vector2@H@@AAPAU1@PAU1@@Z 10027a80 f i r2_R_lights.obj
 0001:00026a90       ??$_Fn@V?$xalloc@U?$_vector2@H@@@@U?$_vector2@H@@U2@@_Alloc_construct@std@@SAXHAAV?$xalloc@U?$_vector2@H@@@@PAU?$_vector2@H@@$$QAU3@@Z 10027a90 f i r2_R_lights.obj
 0001:00026ab0       ??$construct@U?$_vector2@H@@U1@@?$allocator_traits@V?$xalloc@U?$_vector2@H@@@@@std@@SAXAAV?$xalloc@U?$_vector2@H@@@@PAU?$_vector2@H@@$$QAU3@@Z 10027ab0 f i r2_R_lights.obj
 0001:00026ad0       ??$forward@U?$_vector2@H@@@std@@YA$$QAU?$_vector2@H@@AAU1@@Z 10027ad0 f i r2_R_lights.obj
 0001:00026ae0       ??$construct@U?$_vector2@H@@U1@@?$_Wrap_alloc@V?$xalloc@U?$_vector2@H@@@@@std@@QAEXPAU?$_vector2@H@@$$QAU2@@Z 10027ae0 f i r2_R_lights.obj
 0001:00026b00       ??$_Uninit_move@PAU?$_vector2@H@@PAU1@V?$xalloc@U?$_vector2@H@@@@U1@@std@@YAPAU?$_vector2@H@@PAU1@00AAU?$_Wrap_alloc@V?$xalloc@U?$_vector2@H@@@@@0@0U_Nonscalar_ptr_iterator_tag@0@@Z 10027b00 f i r2_R_lights.obj
 0001:00026b70       ??$_Val_type@PAU?$_vector2@H@@@std@@YAPAU?$_vector2@H@@PAU1@@Z 10027b70 f i r2_R_lights.obj
 0001:00026b80       ??$_Uninit_move@PAU?$_vector2@H@@PAU1@U?$_Wrap_alloc@V?$xalloc@U?$_vector2@H@@@@@std@@@std@@YAPAU?$_vector2@H@@PAU1@00AAU?$_Wrap_alloc@V?$xalloc@U?$_vector2@H@@@@@0@@Z 10027b80 f i r2_R_lights.obj
 0001:00026ba0       ??$_Unchecked@PAU?$_vector2@H@@@std@@YAPAU?$_vector2@H@@PAU1@@Z 10027ba0 f i r2_R_lights.obj
 0001:00026bb0       ??$_Uninitialized_move@PAU?$_vector2@H@@PAU1@U?$_Wrap_alloc@V?$xalloc@U?$_vector2@H@@@@@std@@@std@@YAPAU?$_vector2@H@@PAU1@00AAU?$_Wrap_alloc@V?$xalloc@U?$_vector2@H@@@@@0@@Z 10027bb0 f i r2_R_lights.obj
 0001:00026bd0       ??$_Umove@PAU?$_vector2@H@@@?$vector@U?$_vector2@H@@V?$xalloc@U?$_vector2@H@@@@@std@@IAEPAU?$_vector2@H@@PAU2@00@Z 10027bd0 f i r2_R_lights.obj
 0001:00026bf0       ?_Reallocate@?$vector@U?$_vector2@H@@V?$xalloc@U?$_vector2@H@@@@@std@@IAEXI@Z 10027bf0 f i r2_R_lights.obj
 0001:00026cb0       ?capacity@?$vector@U?$_vector2@H@@V?$xalloc@U?$_vector2@H@@@@@std@@QBEIXZ 10027cb0 f i r2_R_lights.obj
 0001:00026cc0       ?max_size@?$xalloc@U?$_vector2@H@@@@QBEIXZ 10027cc0 f i r2_R_lights.obj
 0001:00026cd0       ??$_Fn@V?$xalloc@U?$_vector2@H@@@@@_Alloc_max_size@std@@SAIHABV?$xalloc@U?$_vector2@H@@@@@Z 10027cd0 f i r2_R_lights.obj
 0001:00026ce0       ?max_size@?$allocator_traits@V?$xalloc@U?$_vector2@H@@@@@std@@SAIABV?$xalloc@U?$_vector2@H@@@@@Z 10027ce0 f i r2_R_lights.obj
 0001:00026cf0       ?max_size@?$_Wrap_alloc@V?$xalloc@U?$_vector2@H@@@@@std@@QBEIXZ 10027cf0 f i r2_R_lights.obj
 0001:00026d00       ?max_size@?$vector@U?$_vector2@H@@V?$xalloc@U?$_vector2@H@@@@@std@@QBEIXZ 10027d00 f i r2_R_lights.obj
 0001:00026d10       ?_Grow_to@?$vector@U?$_vector2@H@@V?$xalloc@U?$_vector2@H@@@@@std@@IBEII@Z 10027d10 f i r2_R_lights.obj
 0001:00026d50       ?size@?$vector@U?$_vector2@H@@V?$xalloc@U?$_vector2@H@@@@@std@@QBEIXZ 10027d50 f i r2_R_lights.obj
 0001:00026d60       ?_Reserve@?$vector@U?$_vector2@H@@V?$xalloc@U?$_vector2@H@@@@@std@@IAEXI@Z 10027d60 f i r2_R_lights.obj
 0001:00026dd0       ?_Orphan_range@?$vector@U?$_vector2@H@@V?$xalloc@U?$_vector2@H@@@@@std@@IBEXPAU?$_vector2@H@@0@Z 10027dd0 f i r2_R_lights.obj
 0001:00026de0       ??$_Construct@U?$_vector2@H@@ABU1@@std@@YAXPAU?$_vector2@H@@ABU1@@Z 10027de0 f i r2_R_lights.obj
 0001:00026df0       ?construct@?$xalloc@U?$_vector2@H@@@@QAEXPAU?$_vector2@H@@ABU2@@Z 10027df0 f i r2_R_lights.obj
 0001:00026e10       ??$_Fn@V?$xalloc@U?$_vector2@H@@@@U?$_vector2@H@@ABU2@@_Alloc_construct@std@@SAXHAAV?$xalloc@U?$_vector2@H@@@@PAU?$_vector2@H@@ABU3@@Z 10027e10 f i r2_R_lights.obj
 0001:00026e30       ??$construct@U?$_vector2@H@@ABU1@@?$allocator_traits@V?$xalloc@U?$_vector2@H@@@@@std@@SAXAAV?$xalloc@U?$_vector2@H@@@@PAU?$_vector2@H@@ABU3@@Z 10027e30 f i r2_R_lights.obj
 0001:00026e50       ??$forward@ABU?$_vector2@H@@@std@@YAABU?$_vector2@H@@ABU1@@Z 10027e50 f i r2_R_lights.obj
 0001:00026e60       ??$construct@U?$_vector2@H@@ABU1@@?$_Wrap_alloc@V?$xalloc@U?$_vector2@H@@@@@std@@QAEXPAU?$_vector2@H@@ABU2@@Z 10027e60 f i r2_R_lights.obj
 0001:00026e80       ?push_back@?$vector@U?$_vector2@H@@V?$xalloc@U?$_vector2@H@@@@@std@@QAEXABU?$_vector2@H@@@Z 10027e80 f i r2_R_lights.obj
 0001:00026ef0       ?_add@SMAP_Allocator@@AAEXAAUSMAP_Rect@@@Z 10027ef0 f i r2_R_lights.obj
 0001:00026fb0       ?push@SMAP_Allocator@@QAEHAAUSMAP_Rect@@I@Z 10027fb0 f i r2_R_lights.obj
 0001:00027100       ?clear@?$vector@USMAP_Rect@@V?$xalloc@USMAP_Rect@@@@@std@@QAEXXZ 10028100 f i r2_R_lights.obj
 0001:00027110       ?clear_and_free@?$xr_vector@USMAP_Rect@@V?$xalloc@USMAP_Rect@@@@@@QAEXXZ 10028110 f i r2_R_lights.obj
 0001:00027120       ?clear@?$xr_vector@USMAP_Rect@@V?$xalloc@USMAP_Rect@@@@@@QAEXXZ 10028120 f i r2_R_lights.obj
 0001:00027130       ?clear@?$vector@U?$_vector2@H@@V?$xalloc@U?$_vector2@H@@@@@std@@QAEXXZ 10028130 f i r2_R_lights.obj
 0001:00027140       ?clear_and_free@?$xr_vector@U?$_vector2@H@@V?$xalloc@U?$_vector2@H@@@@@@QAEXXZ 10028140 f i r2_R_lights.obj
 0001:00027150       ?clear@?$xr_vector@U?$_vector2@H@@V?$xalloc@U?$_vector2@H@@@@@@QAEXXZ 10028150 f i r2_R_lights.obj
 0001:00027160       ?initialize@SMAP_Allocator@@QAEXI@Z 10028160 f i r2_R_lights.obj
 0001:00027180       ?pred_sp_sort@@YA_NPAVISpatial@@0@Z 10028180 f i r2_R_render.obj
 0001:00027210       ?render_main@CRender@@QAEXAAU?$_matrix@M@@_N@Z 10028210 f   r2_R_render.obj
 0001:00027a60       ?render_menu@CRender@@QAEXXZ 10028a60 f   r2_R_render.obj
 0001:00027ec0       ?Render@CRender@@UAEXXZ    10028ec0 f   r2_R_render.obj
 0001:00028d50       ?render_forward@CRender@@QAEXXZ 10029d50 f   r2_R_render.obj
 0001:00028de0       ?distance_to_sqr@?$_vector3@M@@QBEMABU1@@Z 10029de0 f i r2_R_render.obj
 0001:00028e20       ?mul@?$_matrix@M@@QAEAAU1@ABU1@0@Z 10029e20 f i r2_R_render.obj
 0001:000291c0       ?build_projection@?$_matrix@M@@QAEAAU1@MMMM@Z 1002a1c0 f i r2_R_render.obj
 0001:00029210       ?xform@?$_box3@M@@QAEAAV1@ABU?$_matrix@M@@@Z 1002a210 f i r2_R_render.obj
 0001:000294d0       ?end@?$vector@PAVISpatial@@V?$xalloc@PAVISpatial@@@@@std@@QAE?AV?$_Vector_iterator@V?$_Vector_val@U?$_Simple_types@PAVISpatial@@@std@@@std@@@2@XZ 1002a4d0 f i r2_R_render.obj
 0001:000294e0       ?size@?$xr_vector@VCFrustum@@V?$xalloc@VCFrustum@@@@@@QBEIXZ 1002a4e0 f i r2_R_render.obj
 0001:00029500       ??A?$xr_vector@VCFrustum@@V?$xalloc@VCFrustum@@@@@@QAEAAVCFrustum@@I@Z 1002a500 f i r2_R_render.obj
 0001:00029510       ?build_projection_HAT@?$_matrix@M@@QAEAAU1@MMMM@Z 1002a510 f i r2_R_render.obj
 0001:000295b0       ?set@?$_box3@M@@QAEAAV1@ABV1@@Z 1002a5b0 f i r2_R_render.obj
 0001:000295e0       ?xform@?$_box3@M@@QAEAAV1@ABV1@ABU?$_matrix@M@@@Z 1002a5e0 f i r2_R_render.obj
 0001:000298c0       ?begin@?$vector@VCFrustum@@V?$xalloc@VCFrustum@@@@@std@@QAE?AV?$_Vector_iterator@V?$_Vector_val@U?$_Simple_types@VCFrustum@@@std@@@std@@@2@XZ 1002a8c0 f i r2_R_render.obj
 0001:000298d0       ?size@?$vector@VCFrustum@@V?$xalloc@VCFrustum@@@@@std@@QBEIXZ 1002a8d0 f i r2_R_render.obj
 0001:000298f0       ??D?$_Vector_iterator@V?$_Vector_val@U?$_Simple_types@VCFrustum@@@std@@@std@@@std@@QBEAAVCFrustum@@XZ 1002a8f0 f i r2_R_render.obj
 0001:00029900       ??H?$_Vector_iterator@V?$_Vector_val@U?$_Simple_types@VCFrustum@@@std@@@std@@@std@@QBE?AV01@H@Z 1002a900 f i r2_R_render.obj
 0001:00029920       ?mul@?$_vector3@M@@QAEAAU1@ABU1@M@Z 1002a920 f i r2_R_render.obj
 0001:00029960       ??0?$_Vector_iterator@V?$_Vector_val@U?$_Simple_types@VCFrustum@@@std@@@std@@@std@@QAE@PAVCFrustum@@PBU_Container_base0@1@@Z 1002a960 f i r2_R_render.obj
 0001:00029970       ??Y?$_Vector_iterator@V?$_Vector_val@U?$_Simple_types@VCFrustum@@@std@@@std@@@std@@QAEAAV01@H@Z 1002a970 f i r2_R_render.obj
 0001:00029980       ??D?$_Vector_const_iterator@V?$_Vector_val@U?$_Simple_types@VCFrustum@@@std@@@std@@@std@@QBEABVCFrustum@@XZ 1002a980 f i r2_R_render.obj
 0001:00029990       ??0?$_Vector_const_iterator@V?$_Vector_val@U?$_Simple_types@VCFrustum@@@std@@@std@@@std@@QAE@PAVCFrustum@@PBU_Container_base0@1@@Z 1002a990 f i r2_R_render.obj
 0001:000299a0       ??Y?$_Vector_const_iterator@V?$_Vector_val@U?$_Simple_types@VCFrustum@@@std@@@std@@@std@@QAEAAV01@H@Z 1002a9a0 f i r2_R_render.obj
 0001:000299b0       ??$sort@V?$_Vector_iterator@V?$_Vector_val@U?$_Simple_types@PAVISpatial@@@std@@@std@@@std@@P6A_NPAVISpatial@@0@Z@std@@YAXV?$_Vector_iterator@V?$_Vector_val@U?$_Simple_types@PAVISpatial@@@std@@@std@@@0@0P6A_NPAVISpatial@@1@Z@Z 1002a9b0 f i r2_R_render.obj
 0001:000299d0       ??$_max@I@@YAIII@Z         1002a9d0 f i r2_R_render.obj
 0001:000299e0       ??G?$_Vector_iterator@V?$_Vector_val@U?$_Simple_types@PAVISpatial@@@std@@@std@@@std@@QBEHABV?$_Vector_const_iterator@V?$_Vector_val@U?$_Simple_types@PAVISpatial@@@std@@@std@@@1@@Z 1002a9e0 f i r2_R_render.obj
 0001:000299f0       ??G?$_Vector_const_iterator@V?$_Vector_val@U?$_Simple_types@PAVISpatial@@@std@@@std@@@std@@QBEHABV01@@Z 1002a9f0 f i r2_R_render.obj
 0001:00029a00       ?_Compat@?$_Vector_const_iterator@V?$_Vector_val@U?$_Simple_types@PAVISpatial@@@std@@@std@@@std@@QBEXABV12@@Z 1002aa00 f i r2_R_render.obj
 0001:00029a10       ??$_Unchecked@V?$_Vector_val@U?$_Simple_types@PAVISpatial@@@std@@@std@@@std@@YAPAPAVISpatial@@V?$_Vector_iterator@V?$_Vector_val@U?$_Simple_types@PAVISpatial@@@std@@@std@@@0@@Z 1002aa10 f i r2_R_render.obj
 0001:00029a20       ??$_Sort@PAPAVISpatial@@HP6A_NPAV1@0@Z@std@@YAXPAPAVISpatial@@0HP6A_NPAV1@1@Z@Z 1002aa20 f i r2_R_render.obj
 0001:00029b10       ?_Unchecked@?$_Vector_iterator@V?$_Vector_val@U?$_Simple_types@PAVISpatial@@@std@@@std@@@std@@QBEPAPAVISpatial@@XZ 1002ab10 f i r2_R_render.obj
 0001:00029b20       ??$_Unguarded_partition@PAPAVISpatial@@P6A_NPAV1@0@Z@std@@YA?AU?$pair@PAPAVISpatial@@PAPAV1@@0@PAPAVISpatial@@0P6A_NPAV2@1@Z@Z 1002ab20 f i r2_R_render.obj
 0001:00029d10       ??$make_heap@PAPAVISpatial@@P6A_NPAV1@0@Z@std@@YAXPAPAVISpatial@@0P6A_NPAV1@1@Z@Z 1002ad10 f i r2_R_render.obj
 0001:00029d30       ??$sort_heap@PAPAVISpatial@@P6A_NPAV1@0@Z@std@@YAXPAPAVISpatial@@0P6A_NPAV1@1@Z@Z 1002ad30 f i r2_R_render.obj
 0001:00029d40       ??$_Insertion_sort@PAPAVISpatial@@P6A_NPAV1@0@Z@std@@YAXPAPAVISpatial@@0P6A_NPAV1@1@Z@Z 1002ad40 f i r2_R_render.obj
 0001:00029d50       ??$_Median@PAPAVISpatial@@P6A_NPAV1@0@Z@std@@YAXPAPAVISpatial@@00P6A_NPAV1@1@Z@Z 1002ad50 f i r2_R_render.obj
 0001:00029f20       ??$iter_swap@PAPAVISpatial@@PAPAV1@@std@@YAXPAPAVISpatial@@0@Z 1002af20 f i r2_R_render.obj
 0001:00029f30       ??$?0AAPAPAVISpatial@@AAPAPAV0@X@?$pair@PAPAVISpatial@@PAPAV1@@std@@QAE@AAPAPAVISpatial@@0@Z 1002af30 f i r2_R_render.obj
 0001:00029f50       ??$_Unchecked@PAPAVISpatial@@@std@@YAPAPAVISpatial@@PAPAV1@@Z 1002af50 f i r2_R_render.obj
 0001:00029f60       ??$_Dist_type@PAPAVISpatial@@@std@@YAPAHPAPAVISpatial@@@Z 1002af60 f i r2_R_render.obj
 0001:00029f70       ??$_Val_type@PAPAVISpatial@@@std@@YAPAPAVISpatial@@PAPAV1@@Z 1002af70 f i r2_R_render.obj
 0001:00029f80       ??$_Make_heap@PAPAVISpatial@@HPAV1@P6A_NPAV1@0@Z@std@@YAXPAPAVISpatial@@0P6A_NPAV1@1@ZPAH0@Z 1002af80 f i r2_R_render.obj
 0001:0002a040       ??$_Sort_heap@PAPAVISpatial@@P6A_NPAV1@0@Z@std@@YAXPAPAVISpatial@@0P6A_NPAV1@1@Z@Z 1002b040 f i r2_R_render.obj
 0001:0002a0a0       ??$_Insertion_sort1@PAPAVISpatial@@P6A_NPAV1@0@ZPAV1@@std@@YAXPAPAVISpatial@@0P6A_NPAV1@1@Z0@Z 1002b0a0 f i r2_R_render.obj
 0001:0002a150       ??$_Med3@PAPAVISpatial@@P6A_NPAV1@0@Z@std@@YAXPAPAVISpatial@@00P6A_NPAV1@1@Z@Z 1002b150 f i r2_R_render.obj
 0001:0002a1b0       ??$swap@PAVISpatial@@@std@@YAXAAPAVISpatial@@0@Z 1002b1b0 f i r2_R_render.obj
 0001:0002a1c0       ??$forward@AAPAPAVISpatial@@@std@@YAAAPAPAVISpatial@@AAPAPAV1@@Z 1002b1c0 f i r2_R_render.obj
 0001:0002a1d0       ??$_Move@AAPAVISpatial@@@std@@YA$$QAPAVISpatial@@AAPAV1@@Z 1002b1d0 f i r2_R_render.obj
 0001:0002a1e0       ??$_Adjust_heap@PAPAVISpatial@@HPAV1@P6A_NPAV1@0@Z@std@@YAXPAPAVISpatial@@HH$$QAPAV1@P6A_NPAV1@2@Z@Z 1002b1e0 f i r2_R_render.obj
 0001:0002a290       ??$_Pop_heap@PAPAVISpatial@@P6A_NPAV1@0@Z@std@@YAXPAPAVISpatial@@0P6A_NPAV1@1@Z@Z 1002b290 f i r2_R_render.obj
 0001:0002a2c0       ??$_Move_backward@PAPAVISpatial@@PAPAV1@@std@@YAPAPAVISpatial@@PAPAV1@00@Z 1002b2c0 f i r2_R_render.obj
 0001:0002a2e0       ??$_Push_heap@PAPAVISpatial@@HPAV1@P6A_NPAV1@0@Z@std@@YAXPAPAVISpatial@@HH$$QAPAV1@P6A_NPAV1@2@Z@Z 1002b2e0 f i r2_R_render.obj
 0001:0002a350       ??$_Pop_heap_0@PAPAVISpatial@@PAV1@P6A_NPAV1@0@Z@std@@YAXPAPAVISpatial@@0P6A_NPAV1@1@Z0@Z 1002b350 f i r2_R_render.obj
 0001:0002a380       ??$_Move_backward@PAPAVISpatial@@PAPAV1@@std@@YAPAPAVISpatial@@PAPAV1@00U_Scalar_ptr_iterator_tag@0@@Z 1002b380 f i r2_R_render.obj
 0001:0002a3a0       ??$_Pop_heap@PAPAVISpatial@@HPAV1@P6A_NPAV1@0@Z@std@@YAXPAPAVISpatial@@00$$QAPAV1@P6A_NPAV1@2@ZPAH@Z 1002b3a0 f i r2_R_render.obj
 0001:0002a3d0       ?negative@@YAHABM@Z        1002b3d0 f i r2_R_render.obj
 0001:0002a3e0       ?transform_tiny@?$_matrix@M@@QBEXAAU?$_vector3@M@@ABU2@@Z 1002b3e0 f i r2_R_render.obj
 0001:0002a480       ?clear@?$vector@V?$_box3@M@@V?$doug_lea_alloc@V?$_box3@M@@@@@std@@QAEXXZ 1002b480 f i r2_R_render.obj
 0001:0002a490       ?clear_and_free@?$xr_vector@V?$_box3@M@@V?$doug_lea_alloc@V?$_box3@M@@@@@@QAEXXZ 1002b490 f i r2_R_render.obj
 0001:0002a4a0       ?clear@?$xr_vector@V?$_box3@M@@V?$doug_lea_alloc@V?$_box3@M@@@@@@QAEXXZ 1002b4a0 f i r2_R_render.obj
 0001:0002a4b0       ?set_Recorder@R_dsgraph_structure@@QAEXPAV?$xr_vector@V?$_box3@M@@V?$doug_lea_alloc@V?$_box3@M@@@@@@@Z 1002b4b0 f i r2_R_render.obj
 0001:0002a4c0       ?root@CSector@@QAEPAVIRender_Visual@@XZ 1002b4c0 f i r2_R_render.obj
 0001:0002a4d0       ??0BoundingBox@@QAE@PBUD3DXVECTOR3@@I@Z 1002b4d0 f i r2_R_sun.obj
 0001:0002a5a0       ?Merge@BoundingBox@@QAEXPBUD3DXVECTOR3@@@Z 1002b5a0 f i r2_R_sun.obj
 0001:0002a640       ?LineIntersection2D@@YAHPAUD3DXVECTOR2@@PBU1@1@Z 1002b640 f   r2_R_sun.obj
 0001:0002a920       ??0Frustum@@QAE@XZ         1002b920 f   r2_R_sun.obj
 0001:0002a950       ??0Frustum@@QAE@PBUD3DXMATRIX@@@Z 1002b950 f   r2_R_sun.obj
 0001:0002ae30       ?wform@@YA?AU?$_vector3@M@@AAU?$_matrix@M@@ABU1@@Z 1002be30 f   r2_R_sun.obj
 0001:0002af10       ?clip@DumbClipper@@QAEHAAUD3DXVECTOR3@@0@Z 1002bf10 f i r2_R_sun.obj
 0001:0002b140       ?point@DumbClipper@@QBE?AUD3DXVECTOR3@@AAV?$_box3@M@@H@Z 1002c140 f i r2_R_sun.obj
 0001:0002b1b0       ?clipped_AABB@DumbClipper@@QAE?AV?$_box3@M@@AAV?$xr_vector@V?$_box3@M@@V?$doug_lea_alloc@V?$_box3@M@@@@@@AAU?$_matrix@M@@@Z 1002c1b0 f i r2_R_sun.obj
 0001:0002b790       ?BuildTSMProjectionMatrix_caster_depth_bounds@@YA?AUD3DXVECTOR2@@AAUD3DXMATRIX@@@Z 1002c790 f   r2_R_sun.obj
 0001:0002b950       ?render_sun@CRender@@QAEXXZ 1002c950 f   r2_R_sun.obj
 0001:0002edd0       ??1?$xr_vector@V?$_plane@M@@V?$xalloc@V?$_plane@M@@@@@@QAE@XZ 1002fdd0 f i r2_R_sun.obj
 0001:0002ee00       ??0?$DumbConvexVolume@$0A@@@QAE@XZ 1002fe00 f i r2_R_sun.obj
 0001:0002ee50       ??1?$DumbConvexVolume@$0A@@@QAE@XZ 1002fe50 f i r2_R_sun.obj
 0001:0002eef0       ??0_poly@?$DumbConvexVolume@$0A@@@QAE@XZ 1002fef0 f i r2_R_sun.obj
 0001:0002ef10       ??1_poly@?$DumbConvexVolume@$0A@@@QAE@XZ 1002ff10 f i r2_R_sun.obj
 0001:0002ef40       ??0DumbClipper@@QAE@XZ     1002ff40 f i r2_R_sun.obj
 0001:0002ef70       ??1DumbClipper@@QAE@XZ     1002ff70 f i r2_R_sun.obj
 0001:0002efb0       ??1?$xr_vector@U?$_vector3@M@@V?$xalloc@U?$_vector3@M@@@@@@QAE@XZ 1002ffb0 f i r2_R_sun.obj
 0001:0002efe0       ??1?$xr_vector@U_poly@?$DumbConvexVolume@$0A@@@V?$xalloc@U_poly@?$DumbConvexVolume@$0A@@@@@@@QAE@XZ 1002ffe0 f i r2_R_sun.obj
 0001:0002f030       ??1?$xr_vector@U_edge@?$DumbConvexVolume@$0A@@@V?$xalloc@U_edge@?$DumbConvexVolume@$0A@@@@@@@QAE@XZ 10030030 f i r2_R_sun.obj
 0001:0002f060       ??1?$xr_vector@HV?$xalloc@H@@@@QAE@XZ 10030060 f i r2_R_sun.obj
 0001:0002f090       ??1?$xr_vector@UD3DXPLANE@@V?$xalloc@UD3DXPLANE@@@@@@QAE@XZ 10030090 f i r2_R_sun.obj
 0001:0002f0c0       ?render_sun_near@CRender@@QAEXXZ 100300c0 f   r2_R_sun.obj
 0001:00031a90       ?render_sun_filtered@CRender@@QAEXXZ 10032a90 f   r2_R_sun.obj
 0001:00031ac0       ?init_cacades@CRender@@QAEXXZ 10032ac0 f   r2_R_sun.obj
 0001:00031b50       ?render_sun_cascades@CRender@@QAEXXZ 10032b50 f   r2_R_sun.obj
 0001:00031c50       ?render_sun_cascade@CRender@@QAEXI@Z 10032c50 f   r2_R_sun.obj
 0001:00034c90       ??0?$FixedConvexVolume@$0A@@@QAE@XZ 10035c90 f i r2_R_sun.obj
 0001:00034cb0       ??1?$FixedConvexVolume@$0A@@@QAE@XZ 10035cb0 f i r2_R_sun.obj
 0001:00034ce0       ??4?$xr_vector@Uray@sun@@V?$xalloc@Uray@sun@@@@@@QAEAAV0@ABV0@@Z 10035ce0 f i r2_R_sun.obj
 0001:00034d00       ?sub@?$_vector3@M@@QAEAAU1@ABU1@@Z 10035d00 f i r2_R_sun.obj
 0001:00034d40       ?mulA_44@?$_matrix@M@@QAEAAU1@ABU1@@Z 10035d40 f i r2_R_sun.obj
 0001:00035130       ?mulB_44@?$_matrix@M@@QAEAAU1@ABU1@@Z 10036130 f i r2_R_sun.obj
 0001:00035550       ?build_camera_dir@?$_matrix@M@@QAEAAU1@ABU?$_vector3@M@@00@Z 10036550 f i r2_R_sun.obj
 0001:00035720       ?transform_dir@?$_matrix@M@@QBEXAAU?$_vector3@M@@@Z 10036720 f i r2_R_sun.obj
 0001:000357b0       ??0?$xr_vector@HV?$xalloc@H@@@@QAE@XZ 100367b0 f i r2_R_sun.obj
 0001:000357d0       ??1?$vector@HV?$xalloc@H@@@std@@QAE@XZ 100367d0 f i r2_R_sun.obj
 0001:00035800       ?push_back@?$vector@HV?$xalloc@H@@@std@@QAEXABH@Z 10036800 f i r2_R_sun.obj
 0001:00035860       ??0?$xr_vector@V?$_plane@M@@V?$xalloc@V?$_plane@M@@@@@@QAE@XZ 10036860 f i r2_R_sun.obj
 0001:00035880       ?size@?$xr_vector@V?$_plane@M@@V?$xalloc@V?$_plane@M@@@@@@QBEIXZ 10036880 f i r2_R_sun.obj
 0001:00035890       ??A?$xr_vector@V?$_plane@M@@V?$xalloc@V?$_plane@M@@@@@@QAEAAV?$_plane@M@@I@Z 10036890 f i r2_R_sun.obj
 0001:000358a0       ??1?$vector@V?$_plane@M@@V?$xalloc@V?$_plane@M@@@@@std@@QAE@XZ 100368a0 f i r2_R_sun.obj
 0001:000358d0       ??0?$xr_vector@U?$_vector3@M@@V?$xalloc@U?$_vector3@M@@@@@@QAE@XZ 100368d0 f i r2_R_sun.obj
 0001:000358f0       ??A?$xr_vector@U?$_vector3@M@@V?$xalloc@U?$_vector3@M@@@@@@QAEAAU?$_vector3@M@@I@Z 100368f0 f i r2_R_sun.obj
 0001:00035900       ??1?$vector@U?$_vector3@M@@V?$xalloc@U?$_vector3@M@@@@@std@@QAE@XZ 10036900 f i r2_R_sun.obj
 0001:00035930       ?reserve@?$vector@U?$_vector3@M@@V?$xalloc@U?$_vector3@M@@@@@std@@QAEXI@Z 10036930 f i r2_R_sun.obj
 0001:00035970       ?push_back@?$vector@U?$_vector3@M@@V?$xalloc@U?$_vector3@M@@@@@std@@QAEXABU?$_vector3@M@@@Z 10036970 f i r2_R_sun.obj
 0001:00035a00       ?grow@?$_box3@M@@QAEAAV1@M@Z 10036a00 f i r2_R_sun.obj
 0001:00035a60       ?modify@?$_box3@M@@QAEAAV1@ABU?$_vector3@M@@@Z 10036a60 f i r2_R_sun.obj
 0001:00035af0       ?getvolume@?$_box3@M@@QBEMXZ 10036af0 f i r2_R_sun.obj
 0001:00035b20       ?getpoint@?$_box3@M@@QBEXHAAU?$_vector3@M@@@Z 10036b20 f i r2_R_sun.obj
 0001:00035c60       ?build_unit_normal@?$_plane@M@@QAEAAV1@ABU?$_vector3@M@@0@Z 10036c60 f i r2_R_sun.obj
 0001:00035cb0       ?size@?$xr_vector@V?$_box3@M@@V?$doug_lea_alloc@V?$_box3@M@@@@@@QBEIXZ 10036cb0 f i r2_R_sun.obj
 0001:00035cd0       ??A?$xr_vector@V?$_box3@M@@V?$doug_lea_alloc@V?$_box3@M@@@@@@QAEAAV?$_box3@M@@I@Z 10036cd0 f i r2_R_sun.obj
 0001:00035ce0       ?reserve@?$vector@V?$_box3@M@@V?$doug_lea_alloc@V?$_box3@M@@@@@std@@QAEXI@Z 10036ce0 f i r2_R_sun.obj
 0001:00035d30       ?push_back@?$vector@Uray@sun@@V?$xalloc@Uray@sun@@@@@std@@QAEX$$QAUray@sun@@@Z 10036d30 f i r2_R_sun.obj
 0001:00035dc0       ??4?$vector@Uray@sun@@V?$xalloc@Uray@sun@@@@@std@@QAEAAV01@ABV01@@Z 10036dc0 f i r2_R_sun.obj
 0001:00035f30       ?size@?$xr_vector@Ucascade@sun@@V?$xalloc@Ucascade@sun@@@@@@QBEIXZ 10036f30 f i r2_R_sun.obj
 0001:00035f50       ??A?$xr_vector@Ucascade@sun@@V?$xalloc@Ucascade@sun@@@@@@QAEAAUcascade@sun@@I@Z 10036f50 f i r2_R_sun.obj
 0001:00035f60       ?resize@?$vector@Ucascade@sun@@V?$xalloc@Ucascade@sun@@@@@std@@QAEXI@Z 10036f60 f i r2_R_sun.obj
 0001:00036070       ?back@?$vector@Ucascade@sun@@V?$xalloc@Ucascade@sun@@@@@std@@QAEAAUcascade@sun@@XZ 10037070 f i r2_R_sun.obj
 0001:00036080       ??0?$xr_vector@UD3DXPLANE@@V?$xalloc@UD3DXPLANE@@@@@@QAE@XZ 10037080 f i r2_R_sun.obj
 0001:000360a0       ?size@?$xr_vector@UD3DXPLANE@@V?$xalloc@UD3DXPLANE@@@@@@QBEIXZ 100370a0 f i r2_R_sun.obj
 0001:000360b0       ??A?$xr_vector@UD3DXPLANE@@V?$xalloc@UD3DXPLANE@@@@@@QAEAAUD3DXPLANE@@I@Z 100370b0 f i r2_R_sun.obj
 0001:000360c0       ?push_back@?$vector@UD3DXPLANE@@V?$xalloc@UD3DXPLANE@@@@@std@@QAEX$$QAUD3DXPLANE@@@Z 100370c0 f i r2_R_sun.obj
 0001:00036110       ??1?$vector@UD3DXPLANE@@V?$xalloc@UD3DXPLANE@@@@@std@@QAE@XZ 10037110 f i r2_R_sun.obj
 0001:00036140       ?compute_caster_model@?$DumbConvexVolume@$0A@@@QAEXAAV?$xr_vector@V?$_plane@M@@V?$xalloc@V?$_plane@M@@@@@@U?$_vector3@M@@@Z 10037140 f i r2_R_sun.obj
 0001:00036c20       ??0?$xr_vector@U_poly@?$DumbConvexVolume@$0A@@@V?$xalloc@U_poly@?$DumbConvexVolume@$0A@@@@@@@QAE@XZ 10037c20 f i r2_R_sun.obj
 0001:00036c40       ?push_back@?$vector@U_poly@?$DumbConvexVolume@$0A@@@V?$xalloc@U_poly@?$DumbConvexVolume@$0A@@@@@@std@@QAEX$$QAU_poly@?$DumbConvexVolume@$0A@@@@Z 10037c40 f i r2_R_sun.obj
 0001:00036d00       ??1?$vector@U_poly@?$DumbConvexVolume@$0A@@@V?$xalloc@U_poly@?$DumbConvexVolume@$0A@@@@@@std@@QAE@XZ 10037d00 f i r2_R_sun.obj
 0001:00036d50       ?back@?$vector@U_poly@?$DumbConvexVolume@$0A@@@V?$xalloc@U_poly@?$DumbConvexVolume@$0A@@@@@@std@@QAEAAU_poly@?$DumbConvexVolume@$0A@@@XZ 10037d50 f i r2_R_sun.obj
 0001:00036d60       ??0?$xr_vector@U_edge@?$DumbConvexVolume@$0A@@@V?$xalloc@U_edge@?$DumbConvexVolume@$0A@@@@@@@QAE@XZ 10037d60 f i r2_R_sun.obj
 0001:00036d80       ??1?$vector@U_edge@?$DumbConvexVolume@$0A@@@V?$xalloc@U_edge@?$DumbConvexVolume@$0A@@@@@@std@@QAE@XZ 10037d80 f i r2_R_sun.obj
 0001:00036db0       ?compute_caster_model_fixed@?$FixedConvexVolume@$0A@@@QAEXAAV?$xr_vector@V?$_plane@M@@V?$xalloc@V?$_plane@M@@@@@@AAU?$_vector3@M@@M_N@Z 10037db0 f i r2_R_sun.obj
 0001:00037e40       ?add@?$_vector3@M@@QAEAAU1@M@Z 10038e40 f i r2_R_sun.obj
 0001:00037e70       ?sub@?$_vector3@M@@QAEAAU1@M@Z 10038e70 f i r2_R_sun.obj
 0001:00037ea0       ?min@?$_vector3@M@@QAEAAU1@ABU1@@Z 10038ea0 f i r2_R_sun.obj
 0001:00037ef0       ?max@?$_vector3@M@@QAEAAU1@ABU1@@Z 10038ef0 f i r2_R_sun.obj
 0001:00037f40       ?mad@?$_vector3@M@@QAEAAU1@ABU1@M@Z 10038f40 f i r2_R_sun.obj
 0001:00037f80       ?square_magnitude@?$_vector3@M@@QBEMXZ 10038f80 f i r2_R_sun.obj
 0001:00037fb0       ?set@?$_matrix@M@@QAEAAU1@ABU1@@Z 10038fb0 f i r2_R_sun.obj
 0001:00038020       ?transform_dir@?$_matrix@M@@QBEXAAU?$_vector3@M@@ABU2@@Z 10039020 f i r2_R_sun.obj
 0001:000380b0       ?size@?$xr_vector@HV?$xalloc@H@@@@QBEIXZ 100390b0 f i r2_R_sun.obj
 0001:000380c0       ??A?$xr_vector@HV?$xalloc@H@@@@QAEAAHI@Z 100390c0 f i r2_R_sun.obj
 0001:000380d0       ??0?$vector@HV?$xalloc@H@@@std@@QAE@XZ 100390d0 f i r2_R_sun.obj
 0001:000380f0       ?push_back@?$vector@HV?$xalloc@H@@@std@@QAEX$$QAH@Z 100390f0 f i r2_R_sun.obj
 0001:00038150       ?begin@?$vector@HV?$xalloc@H@@@std@@QAE?AV?$_Vector_iterator@V?$_Vector_val@U?$_Simple_types@H@std@@@std@@@2@XZ 10039150 f i r2_R_sun.obj
 0001:00038160       ?end@?$vector@HV?$xalloc@H@@@std@@QAE?AV?$_Vector_iterator@V?$_Vector_val@U?$_Simple_types@H@std@@@std@@@2@XZ 10039160 f i r2_R_sun.obj
 0001:00038170       ?_Inside@?$vector@HV?$xalloc@H@@@std@@IBE_NPBH@Z 10039170 f i r2_R_sun.obj
 0001:00038190       ?_Reserve@?$vector@HV?$xalloc@H@@@std@@IAEXI@Z 10039190 f i r2_R_sun.obj
 0001:00038200       ?_Tidy@?$vector@HV?$xalloc@H@@@std@@IAEXXZ 10039200 f i r2_R_sun.obj
 0001:00038230       ?_Orphan_range@?$vector@HV?$xalloc@H@@@std@@IBEXPAH0@Z 10039230 f i r2_R_sun.obj
 0001:00038240       ?_Getal@?$_Vector_alloc@$0A@U?$_Vec_base_types@HV?$xalloc@H@@@std@@@std@@QBE?AU?$_Wrap_alloc@V?$xalloc@H@@@2@XZ 10039240 f i r2_R_sun.obj
 0001:00038250       ??0?$vector@V?$_plane@M@@V?$xalloc@V?$_plane@M@@@@@std@@QAE@XZ 10039250 f i r2_R_sun.obj
 0001:00038270       ?begin@?$vector@V?$_plane@M@@V?$xalloc@V?$_plane@M@@@@@std@@QAE?AV?$_Vector_iterator@V?$_Vector_val@U?$_Simple_types@V?$_plane@M@@@std@@@std@@@2@XZ 10039270 f i r2_R_sun.obj
 0001:00038280       ?size@?$vector@V?$_plane@M@@V?$xalloc@V?$_plane@M@@@@@std@@QBEIXZ 10039280 f i r2_R_sun.obj
 0001:00038290       ?back@?$vector@V?$_plane@M@@V?$xalloc@V?$_plane@M@@@@@std@@QAEAAV?$_plane@M@@XZ 10039290 f i r2_R_sun.obj
 0001:000382a0       ?push_back@?$vector@V?$_plane@M@@V?$xalloc@V?$_plane@M@@@@@std@@QAEXABV?$_plane@M@@@Z 100392a0 f i r2_R_sun.obj
 0001:000382f0       ?_Tidy@?$vector@V?$_plane@M@@V?$xalloc@V?$_plane@M@@@@@std@@IAEXXZ 100392f0 f i r2_R_sun.obj
 0001:00038320       ??0?$vector@U?$_vector3@M@@V?$xalloc@U?$_vector3@M@@@@@std@@QAE@XZ 10039320 f i r2_R_sun.obj
 0001:00038340       ?capacity@?$vector@U?$_vector3@M@@V?$xalloc@U?$_vector3@M@@@@@std@@QBEIXZ 10039340 f i r2_R_sun.obj
 0001:00038360       ?max_size@?$vector@U?$_vector3@M@@V?$xalloc@U?$_vector3@M@@@@@std@@QBEIXZ 10039360 f i r2_R_sun.obj
 0001:00038370       ?_Inside@?$vector@U?$_vector3@M@@V?$xalloc@U?$_vector3@M@@@@@std@@IBE_NPBU?$_vector3@M@@@Z 10039370 f i r2_R_sun.obj
 0001:00038390       ?_Reallocate@?$vector@U?$_vector3@M@@V?$xalloc@U?$_vector3@M@@@@@std@@IAEXI@Z 10039390 f i r2_R_sun.obj
 0001:00038460       ?_Reserve@?$vector@U?$_vector3@M@@V?$xalloc@U?$_vector3@M@@@@@std@@IAEXI@Z 10039460 f i r2_R_sun.obj
 0001:00038500       ?_Tidy@?$vector@U?$_vector3@M@@V?$xalloc@U?$_vector3@M@@@@@std@@IAEXXZ 10039500 f i r2_R_sun.obj
 0001:00038530       ?_Xlen@?$vector@U?$_vector3@M@@V?$xalloc@U?$_vector3@M@@@@@std@@IBEXXZ 10039530 f i r2_R_sun.obj
 0001:00038540       ?_Orphan_range@?$vector@U?$_vector3@M@@V?$xalloc@U?$_vector3@M@@@@@std@@IBEXPAU?$_vector3@M@@0@Z 10039540 f i r2_R_sun.obj
 0001:00038550       ??H?$_Vector_iterator@V?$_Vector_val@U?$_Simple_types@U?$_vector3@M@@@std@@@std@@@std@@QBE?AV01@H@Z 10039550 f i r2_R_sun.obj
 0001:00038570       ?build@?$_plane@M@@QAEAAV1@ABU?$_vector3@M@@0@Z 10039570 f i r2_R_sun.obj
 0001:00038610       ?intersectRayDist@?$_plane@M@@QAEHABU?$_vector3@M@@0AAM@Z 10039610 f i r2_R_sun.obj
 0001:000386c0       ?capacity@?$vector@V?$_box3@M@@V?$doug_lea_alloc@V?$_box3@M@@@@@std@@QBEIXZ 100396c0 f i r2_R_sun.obj
 0001:000386e0       ?begin@?$vector@V?$_box3@M@@V?$doug_lea_alloc@V?$_box3@M@@@@@std@@QAE?AV?$_Vector_iterator@V?$_Vector_val@U?$_Simple_types@V?$_box3@M@@@std@@@std@@@2@XZ 100396e0 f i r2_R_sun.obj
 0001:000386f0       ?size@?$vector@V?$_box3@M@@V?$doug_lea_alloc@V?$_box3@M@@@@@std@@QBEIXZ 100396f0 f i r2_R_sun.obj
 0001:00038710       ?max_size@?$vector@V?$_box3@M@@V?$doug_lea_alloc@V?$_box3@M@@@@@std@@QBEIXZ 10039710 f i r2_R_sun.obj
 0001:00038720       ?_Reallocate@?$vector@V?$_box3@M@@V?$doug_lea_alloc@V?$_box3@M@@@@@std@@IAEXI@Z 10039720 f i r2_R_sun.obj
 0001:000387d0       ?_Xlen@?$vector@V?$_box3@M@@V?$doug_lea_alloc@V?$_box3@M@@@@@std@@IBEXXZ 100397d0 f i r2_R_sun.obj
 0001:000387e0       ?size@?$xr_vector@Uray@sun@@V?$xalloc@Uray@sun@@@@@@QBEIXZ 100397e0 f i r2_R_sun.obj
 0001:00038800       ??A?$xr_vector@Uray@sun@@V?$xalloc@Uray@sun@@@@@@QAEAAUray@sun@@I@Z 10039800 f i r2_R_sun.obj
 0001:00038810       ?capacity@?$vector@Uray@sun@@V?$xalloc@Uray@sun@@@@@std@@QBEIXZ 10039810 f i r2_R_sun.obj
 0001:00038830       ?size@?$vector@Uray@sun@@V?$xalloc@Uray@sun@@@@@std@@QBEIXZ 10039830 f i r2_R_sun.obj
 0001:00038850       ?empty@?$vector@Uray@sun@@V?$xalloc@Uray@sun@@@@@std@@QBE_NXZ 10039850 f i r2_R_sun.obj
 0001:00038860       ?clear@?$vector@Uray@sun@@V?$xalloc@Uray@sun@@@@@std@@QAEXXZ 10039860 f i r2_R_sun.obj
 0001:00038870       ?_Buy@?$vector@Uray@sun@@V?$xalloc@Uray@sun@@@@@std@@IAE_NI@Z 10039870 f i r2_R_sun.obj
 0001:000388d0       ?_Inside@?$vector@Uray@sun@@V?$xalloc@Uray@sun@@@@@std@@IBE_NPBUray@sun@@@Z 100398d0 f i r2_R_sun.obj
 0001:000388f0       ?_Reserve@?$vector@Uray@sun@@V?$xalloc@Uray@sun@@@@@std@@IAEXI@Z 100398f0 f i r2_R_sun.obj
 0001:00038990       ?_Orphan_range@?$vector@Uray@sun@@V?$xalloc@Uray@sun@@@@@std@@IBEXPAUray@sun@@0@Z 10039990 f i r2_R_sun.obj
 0001:000389a0       ?_Change_alloc@?$_Vector_alloc@$0A@U?$_Vec_base_types@Uray@sun@@V?$xalloc@Uray@sun@@@@@std@@@std@@QAEXABU?$_Wrap_alloc@V?$xalloc@Uray@sun@@@@@2@@Z 100399a0 f i r2_R_sun.obj
 0001:000389b0       ?begin@?$vector@Ucascade@sun@@V?$xalloc@Ucascade@sun@@@@@std@@QAE?AV?$_Vector_iterator@V?$_Vector_val@U?$_Simple_types@Ucascade@sun@@@std@@@std@@@2@XZ 100399b0 f i r2_R_sun.obj
 0001:000389c0       ?end@?$vector@Ucascade@sun@@V?$xalloc@Ucascade@sun@@@@@std@@QAE?AV?$_Vector_iterator@V?$_Vector_val@U?$_Simple_types@Ucascade@sun@@@std@@@std@@@2@XZ 100399c0 f i r2_R_sun.obj
 0001:000389d0       ?size@?$vector@Ucascade@sun@@V?$xalloc@Ucascade@sun@@@@@std@@QBEIXZ 100399d0 f i r2_R_sun.obj
 0001:000389f0       ?_Pop_back_n@?$vector@Ucascade@sun@@V?$xalloc@Ucascade@sun@@@@@std@@QAEXI@Z 100399f0 f i r2_R_sun.obj
 0001:00038a20       ?_Reserve@?$vector@Ucascade@sun@@V?$xalloc@Ucascade@sun@@@@@std@@IAEXI@Z 10039a20 f i r2_R_sun.obj
 0001:00038ac0       ??0?$vector@UD3DXPLANE@@V?$xalloc@UD3DXPLANE@@@@@std@@QAE@XZ 10039ac0 f i r2_R_sun.obj
 0001:00038ae0       ?begin@?$vector@UD3DXPLANE@@V?$xalloc@UD3DXPLANE@@@@@std@@QAE?AV?$_Vector_iterator@V?$_Vector_val@U?$_Simple_types@UD3DXPLANE@@@std@@@std@@@2@XZ 10039ae0 f i r2_R_sun.obj
 0001:00038af0       ?size@?$vector@UD3DXPLANE@@V?$xalloc@UD3DXPLANE@@@@@std@@QBEIXZ 10039af0 f i r2_R_sun.obj
 0001:00038b00       ?_Inside@?$vector@UD3DXPLANE@@V?$xalloc@UD3DXPLANE@@@@@std@@IBE_NPBUD3DXPLANE@@@Z 10039b00 f i r2_R_sun.obj
 0001:00038b20       ?_Reserve@?$vector@UD3DXPLANE@@V?$xalloc@UD3DXPLANE@@@@@std@@IAEXI@Z 10039b20 f i r2_R_sun.obj
 0001:00038b90       ?_Tidy@?$vector@UD3DXPLANE@@V?$xalloc@UD3DXPLANE@@@@@std@@IAEXXZ 10039b90 f i r2_R_sun.obj
 0001:00038bc0       ?_Orphan_range@?$vector@UD3DXPLANE@@V?$xalloc@UD3DXPLANE@@@@@std@@IBEXPAUD3DXPLANE@@0@Z 10039bc0 f i r2_R_sun.obj
 0001:00038bd0       ?_Getal@?$_Vector_alloc@$0A@U?$_Vec_base_types@UD3DXPLANE@@V?$xalloc@UD3DXPLANE@@@@@std@@@std@@QBE?AU?$_Wrap_alloc@V?$xalloc@UD3DXPLANE@@@@@2@XZ 10039bd0 f i r2_R_sun.obj
 0001:00038be0       ?compute_planes@?$DumbConvexVolume@$0A@@@QAEXXZ 10039be0 f i r2_R_sun.obj
 0001:00038d80       ?size@?$xr_vector@U_poly@?$DumbConvexVolume@$0A@@@V?$xalloc@U_poly@?$DumbConvexVolume@$0A@@@@@@@QBEIXZ 10039d80 f i r2_R_sun.obj
 0001:00038da0       ??A?$xr_vector@U_poly@?$DumbConvexVolume@$0A@@@V?$xalloc@U_poly@?$DumbConvexVolume@$0A@@@@@@@QAEAAU_poly@?$DumbConvexVolume@$0A@@@I@Z 10039da0 f i r2_R_sun.obj
 0001:00038dc0       ??0?$vector@U_poly@?$DumbConvexVolume@$0A@@@V?$xalloc@U_poly@?$DumbConvexVolume@$0A@@@@@@std@@QAE@XZ 10039dc0 f i r2_R_sun.obj
 0001:00038de0       ?begin@?$vector@U_poly@?$DumbConvexVolume@$0A@@@V?$xalloc@U_poly@?$DumbConvexVolume@$0A@@@@@@std@@QAE?AV?$_Vector_iterator@V?$_Vector_val@U?$_Simple_types@U_poly@?$DumbConvexVolume@$0A@@@@std@@@std@@@2@XZ 10039de0 f i r2_R_sun.obj
 0001:00038df0       ?end@?$vector@U_poly@?$DumbConvexVolume@$0A@@@V?$xalloc@U_poly@?$DumbConvexVolume@$0A@@@@@@std@@QAE?AV?$_Vector_iterator@V?$_Vector_val@U?$_Simple_types@U_poly@?$DumbConvexVolume@$0A@@@@std@@@std@@@2@XZ 10039df0 f i r2_R_sun.obj
 0001:00038e00       ?erase@?$vector@U_poly@?$DumbConvexVolume@$0A@@@V?$xalloc@U_poly@?$DumbConvexVolume@$0A@@@@@@std@@QAE?AV?$_Vector_iterator@V?$_Vector_val@U?$_Simple_types@U_poly@?$DumbConvexVolume@$0A@@@@std@@@std@@@2@V?$_Vector_const_iterator@V?$_Vector_val@U?$_Simple_types@U_poly@?$DumbConvexVolume@$0A@@@@std@@@std@@@2@@Z 10039e00 f i r2_R_sun.obj
 0001:00038e40       ?_Inside@?$vector@U_poly@?$DumbConvexVolume@$0A@@@V?$xalloc@U_poly@?$DumbConvexVolume@$0A@@@@@@std@@IBE_NPBU_poly@?$DumbConvexVolume@$0A@@@@Z 10039e40 f i r2_R_sun.obj
 0001:00038e60       ?_Reserve@?$vector@U_poly@?$DumbConvexVolume@$0A@@@V?$xalloc@U_poly@?$DumbConvexVolume@$0A@@@@@@std@@IAEXI@Z 10039e60 f i r2_R_sun.obj
 0001:00038ed0       ?_Tidy@?$vector@U_poly@?$DumbConvexVolume@$0A@@@V?$xalloc@U_poly@?$DumbConvexVolume@$0A@@@@@@std@@IAEXXZ 10039ed0 f i r2_R_sun.obj
 0001:00038f20       ?_Orphan_range@?$vector@U_poly@?$DumbConvexVolume@$0A@@@V?$xalloc@U_poly@?$DumbConvexVolume@$0A@@@@@@std@@IBEXPAU_poly@?$DumbConvexVolume@$0A@@@0@Z 10039f20 f i r2_R_sun.obj
 0001:00038f30       ?_Getal@?$_Vector_alloc@$0A@U?$_Vec_base_types@U_poly@?$DumbConvexVolume@$0A@@@V?$xalloc@U_poly@?$DumbConvexVolume@$0A@@@@@@std@@@std@@QBE?AU?$_Wrap_alloc@V?$xalloc@U_poly@?$DumbConvexVolume@$0A@@@@@@2@XZ 10039f30 f i r2_R_sun.obj
 0001:00038f40       ?size@?$xr_vector@U_edge@?$DumbConvexVolume@$0A@@@V?$xalloc@U_edge@?$DumbConvexVolume@$0A@@@@@@@QBEIXZ 10039f40 f i r2_R_sun.obj
 0001:00038f60       ??A?$xr_vector@U_edge@?$DumbConvexVolume@$0A@@@V?$xalloc@U_edge@?$DumbConvexVolume@$0A@@@@@@@QAEAAU_edge@?$DumbConvexVolume@$0A@@@I@Z 10039f60 f i r2_R_sun.obj
 0001:00038f70       ??0?$vector@U_edge@?$DumbConvexVolume@$0A@@@V?$xalloc@U_edge@?$DumbConvexVolume@$0A@@@@@@std@@QAE@XZ 10039f70 f i r2_R_sun.obj
 0001:00038f90       ?push_back@?$vector@U_edge@?$DumbConvexVolume@$0A@@@V?$xalloc@U_edge@?$DumbConvexVolume@$0A@@@@@@std@@QAEXABU_edge@?$DumbConvexVolume@$0A@@@@Z 10039f90 f i r2_R_sun.obj
 0001:00039020       ?_Tidy@?$vector@U_edge@?$DumbConvexVolume@$0A@@@V?$xalloc@U_edge@?$DumbConvexVolume@$0A@@@@@@std@@IAEXXZ 1003a020 f i r2_R_sun.obj
 0001:00039050       ?classify@_poly@?$DumbConvexVolume@$0A@@@QAEMAAU?$_vector3@M@@@Z 1003a050 f i r2_R_sun.obj
 0001:00039090       ?compute_planes@?$FixedConvexVolume@$0A@@@QAEXXZ 1003a090 f i r2_R_sun.obj
 0001:000391a0       ?check_cull_plane_valid@?$FixedConvexVolume@$0A@@@QAE_NABV?$_plane@M@@AAMM@Z 1003a1a0 f i r2_R_sun.obj
 0001:000392f0       ?translate_light_model@?$FixedConvexVolume@$0A@@@QAEXU?$_vector3@M@@@Z 1003a2f0 f i r2_R_sun.obj
 0001:00039420       ??D?$_Vector_iterator@V?$_Vector_val@U?$_Simple_types@V?$_plane@M@@@std@@@std@@@std@@QBEAAV?$_plane@M@@XZ 1003a420 f i r2_R_sun.obj
 0001:00039430       ??H?$_Vector_iterator@V?$_Vector_val@U?$_Simple_types@V?$_plane@M@@@std@@@std@@@std@@QBE?AV01@H@Z 1003a430 f i r2_R_sun.obj
 0001:00039450       ??D?$_Vector_iterator@V?$_Vector_val@U?$_Simple_types@V?$_box3@M@@@std@@@std@@@std@@QBEAAV?$_box3@M@@XZ 1003a450 f i r2_R_sun.obj
 0001:00039460       ??H?$_Vector_iterator@V?$_Vector_val@U?$_Simple_types@V?$_box3@M@@@std@@@std@@@std@@QBE?AV01@H@Z 1003a460 f i r2_R_sun.obj
 0001:00039480       ??D?$_Vector_iterator@V?$_Vector_val@U?$_Simple_types@Ucascade@sun@@@std@@@std@@@std@@QBEAAUcascade@sun@@XZ 1003a480 f i r2_R_sun.obj
 0001:00039490       ??H?$_Vector_iterator@V?$_Vector_val@U?$_Simple_types@Ucascade@sun@@@std@@@std@@@std@@QBE?AV01@H@Z 1003a490 f i r2_R_sun.obj
 0001:000394a0       ??G?$_Vector_iterator@V?$_Vector_val@U?$_Simple_types@Ucascade@sun@@@std@@@std@@@std@@QBE?AV01@H@Z 1003a4a0 f i r2_R_sun.obj
 0001:000394b0       ??D?$_Vector_iterator@V?$_Vector_val@U?$_Simple_types@UD3DXPLANE@@@std@@@std@@@std@@QBEAAUD3DXPLANE@@XZ 1003a4b0 f i r2_R_sun.obj
 0001:000394c0       ??H?$_Vector_iterator@V?$_Vector_val@U?$_Simple_types@UD3DXPLANE@@@std@@@std@@@std@@QBE?AV01@H@Z 1003a4c0 f i r2_R_sun.obj
 0001:000394e0       ??0_edge@?$DumbConvexVolume@$0A@@@QAE@HHH@Z 1003a4e0 f i r2_R_sun.obj
 0001:000394f0       ?equal@_edge@?$DumbConvexVolume@$0A@@@QAE_NAAU12@@Z 1003a4f0 f i r2_R_sun.obj
 0001:00039510       ??D?$_Vector_iterator@V?$_Vector_val@U?$_Simple_types@U_poly@?$DumbConvexVolume@$0A@@@@std@@@std@@@std@@QBEAAU_poly@?$DumbConvexVolume@$0A@@@XZ 1003a510 f i r2_R_sun.obj
 0001:00039520       ??H?$_Vector_iterator@V?$_Vector_val@U?$_Simple_types@U_poly@?$DumbConvexVolume@$0A@@@@std@@@std@@@std@@QBE?AV01@H@Z 1003a520 f i r2_R_sun.obj
 0001:00039540       ??G?$_Vector_iterator@V?$_Vector_val@U?$_Simple_types@U_poly@?$DumbConvexVolume@$0A@@@@std@@@std@@@std@@QBE?AV01@H@Z 1003a540 f i r2_R_sun.obj
 0001:00039550       ?normalize@?$_vector3@M@@QAEAAU1@ABU1@@Z 1003a550 f i r2_R_sun.obj
 0001:000395b0       ?_Unused_capacity@?$vector@HV?$xalloc@H@@@std@@QBEIXZ 1003a5b0 f i r2_R_sun.obj
 0001:000395c0       ?size@?$vector@HV?$xalloc@H@@@std@@QBEIXZ 1003a5c0 f i r2_R_sun.obj
 0001:000395d0       ?max_size@?$vector@HV?$xalloc@H@@@std@@QBEIXZ 1003a5d0 f i r2_R_sun.obj
 0001:000395e0       ?_Destroy@?$vector@HV?$xalloc@H@@@std@@IAEXPAH0@Z 1003a5e0 f i r2_R_sun.obj
 0001:000395f0       ?_Grow_to@?$vector@HV?$xalloc@H@@@std@@IBEII@Z 1003a5f0 f i r2_R_sun.obj
 0001:00039630       ?_Reallocate@?$vector@HV?$xalloc@H@@@std@@IAEXI@Z 1003a630 f i r2_R_sun.obj
 0001:000396f0       ?_Xlen@?$vector@HV?$xalloc@H@@@std@@IBEXXZ 1003a6f0 f i r2_R_sun.obj
 0001:00039700       ??0?$xalloc@H@@QAE@XZ      1003a700 f i r2_R_sun.obj
 0001:00039710       ??0?$_Vector_alloc@$0A@U?$_Vec_base_types@HV?$xalloc@H@@@std@@@std@@QAE@ABV?$xalloc@H@@@Z 1003a710 f i r2_R_sun.obj
 0001:00039730       ??0?$_Wrap_alloc@V?$xalloc@H@@@std@@QAE@XZ 1003a730 f i r2_R_sun.obj
 0001:00039740       ?deallocate@?$_Wrap_alloc@V?$xalloc@H@@@std@@QAEXPAHI@Z 1003a740 f i r2_R_sun.obj
 0001:00039760       ?end@?$vector@V?$_plane@M@@V?$xalloc@V?$_plane@M@@@@@std@@QAE?AV?$_Vector_iterator@V?$_Vector_val@U?$_Simple_types@V?$_plane@M@@@std@@@std@@@2@XZ 1003a760 f i r2_R_sun.obj
 0001:00039770       ?_Destroy@?$vector@V?$_plane@M@@V?$xalloc@V?$_plane@M@@@@@std@@IAEXPAV?$_plane@M@@0@Z 1003a770 f i r2_R_sun.obj
 0001:00039780       ?_Inside@?$vector@V?$_plane@M@@V?$xalloc@V?$_plane@M@@@@@std@@IBE_NPBV?$_plane@M@@@Z 1003a780 f i r2_R_sun.obj
 0001:000397a0       ?_Reserve@?$vector@V?$_plane@M@@V?$xalloc@V?$_plane@M@@@@@std@@IAEXI@Z 1003a7a0 f i r2_R_sun.obj
 0001:00039810       ?_Orphan_range@?$vector@V?$_plane@M@@V?$xalloc@V?$_plane@M@@@@@std@@IBEXPAV?$_plane@M@@0@Z 1003a810 f i r2_R_sun.obj
 0001:00039820       ??0?$xalloc@V?$_plane@M@@@@QAE@XZ 1003a820 f i r2_R_sun.obj
 0001:00039830       ??0?$_Vector_alloc@$0A@U?$_Vec_base_types@V?$_plane@M@@V?$xalloc@V?$_plane@M@@@@@std@@@std@@QAE@ABV?$xalloc@V?$_plane@M@@@@@Z 1003a830 f i r2_R_sun.obj
 0001:00039850       ?_Getal@?$_Vector_alloc@$0A@U?$_Vec_base_types@V?$_plane@M@@V?$xalloc@V?$_plane@M@@@@@std@@@std@@QBE?AU?$_Wrap_alloc@V?$xalloc@V?$_plane@M@@@@@2@XZ 1003a850 f i r2_R_sun.obj
 0001:00039860       ?deallocate@?$_Wrap_alloc@V?$xalloc@V?$_plane@M@@@@@std@@QAEXPAV?$_plane@M@@I@Z 1003a860 f i r2_R_sun.obj
 0001:00039880       ?_Unused_capacity@?$vector@U?$_vector3@M@@V?$xalloc@U?$_vector3@M@@@@@std@@QBEIXZ 1003a880 f i r2_R_sun.obj
 0001:000398a0       ?_Grow_to@?$vector@U?$_vector3@M@@V?$xalloc@U?$_vector3@M@@@@@std@@IBEII@Z 1003a8a0 f i r2_R_sun.obj
 0001:000398f0       ??0?$_Vector_alloc@$0A@U?$_Vec_base_types@U?$_vector3@M@@V?$xalloc@U?$_vector3@M@@@@@std@@@std@@QAE@ABV?$xalloc@U?$_vector3@M@@@@@Z 1003a8f0 f i r2_R_sun.obj
 0001:00039910       ?allocate@?$_Wrap_alloc@V?$xalloc@U?$_vector3@M@@@@@std@@QAEPAU?$_vector3@M@@I@Z 1003a910 f i r2_R_sun.obj
 0001:00039930       ?deallocate@?$_Wrap_alloc@V?$xalloc@U?$_vector3@M@@@@@std@@QAEXPAU?$_vector3@M@@I@Z 1003a930 f i r2_R_sun.obj
 0001:00039950       ?max_size@?$_Wrap_alloc@V?$xalloc@U?$_vector3@M@@@@@std@@QBEIXZ 1003a950 f i r2_R_sun.obj
 0001:00039960       ??Y?$_Vector_iterator@V?$_Vector_val@U?$_Simple_types@U?$_vector3@M@@@std@@@std@@@std@@QAEAAV01@H@Z 1003a960 f i r2_R_sun.obj
 0001:00039980       ?build@?$_plane@M@@QAEAAV1@ABU?$_vector3@M@@00@Z 1003a980 f i r2_R_sun.obj
 0001:00039a60       ?allocate@?$_Wrap_alloc@V?$doug_lea_alloc@V?$_box3@M@@@@@std@@QAEPAV?$_box3@M@@I@Z 1003aa60 f i r2_R_sun.obj
 0001:00039a80       ?max_size@?$_Wrap_alloc@V?$doug_lea_alloc@V?$_box3@M@@@@@std@@QBEIXZ 1003aa80 f i r2_R_sun.obj
 0001:00039a90       ?_Unused_capacity@?$vector@Uray@sun@@V?$xalloc@Uray@sun@@@@@std@@QBEIXZ 1003aa90 f i r2_R_sun.obj
 0001:00039ab0       ?begin@?$vector@Uray@sun@@V?$xalloc@Uray@sun@@@@@std@@QAE?AV?$_Vector_iterator@V?$_Vector_val@U?$_Simple_types@Uray@sun@@@std@@@std@@@2@XZ 1003aab0 f i r2_R_sun.obj
 0001:00039ac0       ?max_size@?$vector@Uray@sun@@V?$xalloc@Uray@sun@@@@@std@@QBEIXZ 1003aac0 f i r2_R_sun.obj
 0001:00039ad0       ?_Grow_to@?$vector@Uray@sun@@V?$xalloc@Uray@sun@@@@@std@@IBEII@Z 1003aad0 f i r2_R_sun.obj
 0001:00039b20       ?_Reallocate@?$vector@Uray@sun@@V?$xalloc@Uray@sun@@@@@std@@IAEXI@Z 1003ab20 f i r2_R_sun.obj
 0001:00039bf0       ?_Xlen@?$vector@Uray@sun@@V?$xalloc@Uray@sun@@@@@std@@IBEXXZ 1003abf0 f i r2_R_sun.obj
 0001:00039c00       ?allocate@?$_Wrap_alloc@V?$xalloc@Uray@sun@@@@@std@@QAEPAUray@sun@@I@Z 1003ac00 f i r2_R_sun.obj
 0001:00039c20       ?_Unused_capacity@?$vector@Ucascade@sun@@V?$xalloc@Ucascade@sun@@@@@std@@QBEIXZ 1003ac20 f i r2_R_sun.obj
 0001:00039c40       ?max_size@?$vector@Ucascade@sun@@V?$xalloc@Ucascade@sun@@@@@std@@QBEIXZ 1003ac40 f i r2_R_sun.obj
 0001:00039c50       ?_Grow_to@?$vector@Ucascade@sun@@V?$xalloc@Ucascade@sun@@@@@std@@IBEII@Z 1003ac50 f i r2_R_sun.obj
 0001:00039ca0       ?_Reallocate@?$vector@Ucascade@sun@@V?$xalloc@Ucascade@sun@@@@@std@@IAEXI@Z 1003aca0 f i r2_R_sun.obj
 0001:00039d80       ?_Xlen@?$vector@Ucascade@sun@@V?$xalloc@Ucascade@sun@@@@@std@@IBEXXZ 1003ad80 f i r2_R_sun.obj
 0001:00039d90       ?_Unused_capacity@?$vector@UD3DXPLANE@@V?$xalloc@UD3DXPLANE@@@@@std@@QBEIXZ 1003ad90 f i r2_R_sun.obj
 0001:00039da0       ?max_size@?$vector@UD3DXPLANE@@V?$xalloc@UD3DXPLANE@@@@@std@@QBEIXZ 1003ada0 f i r2_R_sun.obj
 0001:00039db0       ?_Destroy@?$vector@UD3DXPLANE@@V?$xalloc@UD3DXPLANE@@@@@std@@IAEXPAUD3DXPLANE@@0@Z 1003adb0 f i r2_R_sun.obj
 0001:00039dc0       ?_Grow_to@?$vector@UD3DXPLANE@@V?$xalloc@UD3DXPLANE@@@@@std@@IBEII@Z 1003adc0 f i r2_R_sun.obj
 0001:00039e00       ?_Reallocate@?$vector@UD3DXPLANE@@V?$xalloc@UD3DXPLANE@@@@@std@@IAEXI@Z 1003ae00 f i r2_R_sun.obj
 0001:00039ec0       ?_Xlen@?$vector@UD3DXPLANE@@V?$xalloc@UD3DXPLANE@@@@@std@@IBEXXZ 1003aec0 f i r2_R_sun.obj
 0001:00039ed0       ??0?$xalloc@UD3DXPLANE@@@@QAE@XZ 1003aed0 f i r2_R_sun.obj
 0001:00039ee0       ??0?$_Vector_alloc@$0A@U?$_Vec_base_types@UD3DXPLANE@@V?$xalloc@UD3DXPLANE@@@@@std@@@std@@QAE@ABV?$xalloc@UD3DXPLANE@@@@@Z 1003aee0 f i r2_R_sun.obj
 0001:00039f00       ??0?$_Wrap_alloc@V?$xalloc@UD3DXPLANE@@@@@std@@QAE@XZ 1003af00 f i r2_R_sun.obj
 0001:00039f10       ?deallocate@?$_Wrap_alloc@V?$xalloc@UD3DXPLANE@@@@@std@@QAEXPAUD3DXPLANE@@I@Z 1003af10 f i r2_R_sun.obj
 0001:00039f30       ?_Unused_capacity@?$vector@U_poly@?$DumbConvexVolume@$0A@@@V?$xalloc@U_poly@?$DumbConvexVolume@$0A@@@@@@std@@QBEIXZ 1003af30 f i r2_R_sun.obj
 0001:00039f50       ?_Make_iter@?$vector@U_poly@?$DumbConvexVolume@$0A@@@V?$xalloc@U_poly@?$DumbConvexVolume@$0A@@@@@@std@@QBE?AV?$_Vector_iterator@V?$_Vector_val@U?$_Simple_types@U_poly@?$DumbConvexVolume@$0A@@@@std@@@std@@@2@V?$_Vector_const_iterator@V?$_Vector_val@U?$_Simple_types@U_poly@?$DumbConvexVolume@$0A@@@@std@@@std@@@2@@Z 1003af50 f i r2_R_sun.obj
 0001:00039f60       ?size@?$vector@U_poly@?$DumbConvexVolume@$0A@@@V?$xalloc@U_poly@?$DumbConvexVolume@$0A@@@@@@std@@QBEIXZ 1003af60 f i r2_R_sun.obj
 0001:00039f80       ?max_size@?$vector@U_poly@?$DumbConvexVolume@$0A@@@V?$xalloc@U_poly@?$DumbConvexVolume@$0A@@@@@@std@@QBEIXZ 1003af80 f i r2_R_sun.obj
 0001:00039f90       ?_Destroy@?$vector@U_poly@?$DumbConvexVolume@$0A@@@V?$xalloc@U_poly@?$DumbConvexVolume@$0A@@@@@@std@@IAEXPAU_poly@?$DumbConvexVolume@$0A@@@0@Z 1003af90 f i r2_R_sun.obj
 0001:00039fb0       ?_Grow_to@?$vector@U_poly@?$DumbConvexVolume@$0A@@@V?$xalloc@U_poly@?$DumbConvexVolume@$0A@@@@@@std@@IBEII@Z 1003afb0 f i r2_R_sun.obj
 0001:0003a000       ?_Reallocate@?$vector@U_poly@?$DumbConvexVolume@$0A@@@V?$xalloc@U_poly@?$DumbConvexVolume@$0A@@@@@@std@@IAEXI@Z 1003b000 f i r2_R_sun.obj
 0001:0003a0f0       ?_Xlen@?$vector@U_poly@?$DumbConvexVolume@$0A@@@V?$xalloc@U_poly@?$DumbConvexVolume@$0A@@@@@@std@@IBEXXZ 1003b0f0 f i r2_R_sun.obj
 0001:0003a100       ??0?$xalloc@U_poly@?$DumbConvexVolume@$0A@@@@@QAE@XZ 1003b100 f i r2_R_sun.obj
 0001:0003a110       ??0?$_Vector_alloc@$0A@U?$_Vec_base_types@U_poly@?$DumbConvexVolume@$0A@@@V?$xalloc@U_poly@?$DumbConvexVolume@$0A@@@@@@std@@@std@@QAE@ABV?$xalloc@U_poly@?$DumbConvexVolume@$0A@@@@@@Z 1003b110 f i r2_R_sun.obj
 0001:0003a130       ??0?$_Wrap_alloc@V?$xalloc@U_poly@?$DumbConvexVolume@$0A@@@@@@std@@QAE@XZ 1003b130 f i r2_R_sun.obj
 0001:0003a140       ?deallocate@?$_Wrap_alloc@V?$xalloc@U_poly@?$DumbConvexVolume@$0A@@@@@@std@@QAEXPAU_poly@?$DumbConvexVolume@$0A@@@I@Z 1003b140 f i r2_R_sun.obj
 0001:0003a160       ?begin@?$vector@U_edge@?$DumbConvexVolume@$0A@@@V?$xalloc@U_edge@?$DumbConvexVolume@$0A@@@@@@std@@QAE?AV?$_Vector_iterator@V?$_Vector_val@U?$_Simple_types@U_edge@?$DumbConvexVolume@$0A@@@@std@@@std@@@2@XZ 1003b160 f i r2_R_sun.obj
 0001:0003a170       ?size@?$vector@U_edge@?$DumbConvexVolume@$0A@@@V?$xalloc@U_edge@?$DumbConvexVolume@$0A@@@@@@std@@QBEIXZ 1003b170 f i r2_R_sun.obj
 0001:0003a190       ?_Destroy@?$vector@U_edge@?$DumbConvexVolume@$0A@@@V?$xalloc@U_edge@?$DumbConvexVolume@$0A@@@@@@std@@IAEXPAU_edge@?$DumbConvexVolume@$0A@@@0@Z 1003b190 f i r2_R_sun.obj
 0001:0003a1a0       ?_Inside@?$vector@U_edge@?$DumbConvexVolume@$0A@@@V?$xalloc@U_edge@?$DumbConvexVolume@$0A@@@@@@std@@IBE_NPBU_edge@?$DumbConvexVolume@$0A@@@@Z 1003b1a0 f i r2_R_sun.obj
 0001:0003a1c0       ?_Reserve@?$vector@U_edge@?$DumbConvexVolume@$0A@@@V?$xalloc@U_edge@?$DumbConvexVolume@$0A@@@@@@std@@IAEXI@Z 1003b1c0 f i r2_R_sun.obj
 0001:0003a260       ?_Orphan_range@?$vector@U_edge@?$DumbConvexVolume@$0A@@@V?$xalloc@U_edge@?$DumbConvexVolume@$0A@@@@@@std@@IBEXPAU_edge@?$DumbConvexVolume@$0A@@@0@Z 1003b260 f i r2_R_sun.obj
 0001:0003a270       ??0?$xalloc@U_edge@?$DumbConvexVolume@$0A@@@@@QAE@XZ 1003b270 f i r2_R_sun.obj
 0001:0003a280       ??0?$_Vector_alloc@$0A@U?$_Vec_base_types@U_edge@?$DumbConvexVolume@$0A@@@V?$xalloc@U_edge@?$DumbConvexVolume@$0A@@@@@@std@@@std@@QAE@ABV?$xalloc@U_edge@?$DumbConvexVolume@$0A@@@@@@Z 1003b280 f i r2_R_sun.obj
 0001:0003a2a0       ?_Getal@?$_Vector_alloc@$0A@U?$_Vec_base_types@U_edge@?$DumbConvexVolume@$0A@@@V?$xalloc@U_edge@?$DumbConvexVolume@$0A@@@@@@std@@@std@@QBE?AU?$_Wrap_alloc@V?$xalloc@U_edge@?$DumbConvexVolume@$0A@@@@@@2@XZ 1003b2a0 f i r2_R_sun.obj
 0001:0003a2b0       ?deallocate@?$_Wrap_alloc@V?$xalloc@U_edge@?$DumbConvexVolume@$0A@@@@@@std@@QAEXPAU_edge@?$DumbConvexVolume@$0A@@@I@Z 1003b2b0 f i r2_R_sun.obj
 0001:0003a2d0       ??0?$_Vector_iterator@V?$_Vector_val@U?$_Simple_types@V?$_plane@M@@@std@@@std@@@std@@QAE@PAV?$_plane@M@@PBU_Container_base0@1@@Z 1003b2d0 f i r2_R_sun.obj
 0001:0003a2e0       ??Y?$_Vector_iterator@V?$_Vector_val@U?$_Simple_types@V?$_plane@M@@@std@@@std@@@std@@QAEAAV01@H@Z 1003b2e0 f i r2_R_sun.obj
 0001:0003a2f0       ??G?$_Vector_iterator@V?$_Vector_val@U?$_Simple_types@V?$_plane@M@@@std@@@std@@@std@@QBE?AV01@H@Z 1003b2f0 f i r2_R_sun.obj
 0001:0003a300       ??D?$_Vector_const_iterator@V?$_Vector_val@U?$_Simple_types@V?$_plane@M@@@std@@@std@@@std@@QBEABV?$_plane@M@@XZ 1003b300 f i r2_R_sun.obj
 0001:0003a310       ??0?$_Vector_iterator@V?$_Vector_val@U?$_Simple_types@V?$_box3@M@@@std@@@std@@@std@@QAE@PAV?$_box3@M@@PBU_Container_base0@1@@Z 1003b310 f i r2_R_sun.obj
 0001:0003a320       ??Y?$_Vector_iterator@V?$_Vector_val@U?$_Simple_types@V?$_box3@M@@@std@@@std@@@std@@QAEAAV01@H@Z 1003b320 f i r2_R_sun.obj
 0001:0003a340       ??D?$_Vector_const_iterator@V?$_Vector_val@U?$_Simple_types@V?$_box3@M@@@std@@@std@@@std@@QBEABV?$_box3@M@@XZ 1003b340 f i r2_R_sun.obj
 0001:0003a350       ??0?$_Vector_iterator@V?$_Vector_val@U?$_Simple_types@Ucascade@sun@@@std@@@std@@@std@@QAE@PAUcascade@sun@@PBU_Container_base0@1@@Z 1003b350 f i r2_R_sun.obj
 0001:0003a360       ??Y?$_Vector_iterator@V?$_Vector_val@U?$_Simple_types@Ucascade@sun@@@std@@@std@@@std@@QAEAAV01@H@Z 1003b360 f i r2_R_sun.obj
 0001:0003a370       ??Z?$_Vector_iterator@V?$_Vector_val@U?$_Simple_types@Ucascade@sun@@@std@@@std@@@std@@QAEAAV01@H@Z 1003b370 f i r2_R_sun.obj
 0001:0003a380       ??D?$_Vector_const_iterator@V?$_Vector_val@U?$_Simple_types@Ucascade@sun@@@std@@@std@@@std@@QBEABUcascade@sun@@XZ 1003b380 f i r2_R_sun.obj
 0001:0003a390       ??0?$_Vector_iterator@V?$_Vector_val@U?$_Simple_types@UD3DXPLANE@@@std@@@std@@@std@@QAE@PAUD3DXPLANE@@PBU_Container_base0@1@@Z 1003b390 f i r2_R_sun.obj
 0001:0003a3a0       ??Y?$_Vector_iterator@V?$_Vector_val@U?$_Simple_types@UD3DXPLANE@@@std@@@std@@@std@@QAEAAV01@H@Z 1003b3a0 f i r2_R_sun.obj
 0001:0003a3b0       ??D?$_Vector_const_iterator@V?$_Vector_val@U?$_Simple_types@UD3DXPLANE@@@std@@@std@@@std@@QBEABUD3DXPLANE@@XZ 1003b3b0 f i r2_R_sun.obj
 0001:0003a3c0       ??0?$_Vector_iterator@V?$_Vector_val@U?$_Simple_types@H@std@@@std@@@std@@QAE@PAHPBU_Container_base0@1@@Z 1003b3c0 f i r2_R_sun.obj
 0001:0003a3d0       ??D?$_Vector_iterator@V?$_Vector_val@U?$_Simple_types@H@std@@@std@@@std@@QBEAAHXZ 1003b3d0 f i r2_R_sun.obj
 0001:0003a3e0       ??H?$_Vector_iterator@V?$_Vector_val@U?$_Simple_types@H@std@@@std@@@std@@QBE?AV01@H@Z 1003b3e0 f i r2_R_sun.obj
 0001:0003a400       ??0?$_Vector_iterator@V?$_Vector_val@U?$_Simple_types@U_poly@?$DumbConvexVolume@$0A@@@@std@@@std@@@std@@QAE@PAU_poly@?$DumbConvexVolume@$0A@@@PBU_Container_base0@1@@Z 1003b400 f i r2_R_sun.obj
 0001:0003a410       ??Y?$_Vector_iterator@V?$_Vector_val@U?$_Simple_types@U_poly@?$DumbConvexVolume@$0A@@@@std@@@std@@@std@@QAEAAV01@H@Z 1003b410 f i r2_R_sun.obj
 0001:0003a430       ??Z?$_Vector_iterator@V?$_Vector_val@U?$_Simple_types@U_poly@?$DumbConvexVolume@$0A@@@@std@@@std@@@std@@QAEAAV01@H@Z 1003b430 f i r2_R_sun.obj
 0001:0003a440       ??D?$_Vector_const_iterator@V?$_Vector_val@U?$_Simple_types@U_poly@?$DumbConvexVolume@$0A@@@@std@@@std@@@std@@QBEABU_poly@?$DumbConvexVolume@$0A@@@XZ 1003b440 f i r2_R_sun.obj
 0001:0003a450       ??D?$_Vector_iterator@V?$_Vector_val@U?$_Simple_types@Uray@sun@@@std@@@std@@@std@@QBEAAUray@sun@@XZ 1003b450 f i r2_R_sun.obj
 0001:0003a460       ??H?$_Vector_iterator@V?$_Vector_val@U?$_Simple_types@Uray@sun@@@std@@@std@@@std@@QBE?AV01@H@Z 1003b460 f i r2_R_sun.obj
 0001:0003a480       ??D?$_Vector_iterator@V?$_Vector_val@U?$_Simple_types@U_edge@?$DumbConvexVolume@$0A@@@@std@@@std@@@std@@QBEAAU_edge@?$DumbConvexVolume@$0A@@@XZ 1003b480 f i r2_R_sun.obj
 0001:0003a490       ??H?$_Vector_iterator@V?$_Vector_val@U?$_Simple_types@U_edge@?$DumbConvexVolume@$0A@@@@std@@@std@@@std@@QBE?AV01@H@Z 1003b490 f i r2_R_sun.obj
 0001:0003a4b0       ?capacity@?$vector@HV?$xalloc@H@@@std@@QBEIXZ 1003b4b0 f i r2_R_sun.obj
 0001:0003a4c0       ?deallocate@?$xalloc@H@@QBEXPAHI@Z 1003b4c0 f i r2_R_sun.obj
 0001:0003a4e0       ?allocate@?$_Wrap_alloc@V?$xalloc@H@@@std@@QAEPAHI@Z 1003b4e0 f i r2_R_sun.obj
 0001:0003a500       ?max_size@?$_Wrap_alloc@V?$xalloc@H@@@std@@QBEIXZ 1003b500 f i r2_R_sun.obj
 0001:0003a510       ?_Unused_capacity@?$vector@V?$_plane@M@@V?$xalloc@V?$_plane@M@@@@@std@@QBEIXZ 1003b510 f i r2_R_sun.obj
 0001:0003a520       ?max_size@?$vector@V?$_plane@M@@V?$xalloc@V?$_plane@M@@@@@std@@QBEIXZ 1003b520 f i r2_R_sun.obj
 0001:0003a530       ?_Grow_to@?$vector@V?$_plane@M@@V?$xalloc@V?$_plane@M@@@@@std@@IBEII@Z 1003b530 f i r2_R_sun.obj
 0001:0003a570       ?_Reallocate@?$vector@V?$_plane@M@@V?$xalloc@V?$_plane@M@@@@@std@@IAEXI@Z 1003b570 f i r2_R_sun.obj
 0001:0003a630       ?_Xlen@?$vector@V?$_plane@M@@V?$xalloc@V?$_plane@M@@@@@std@@IBEXXZ 1003b630 f i r2_R_sun.obj
 0001:0003a640       ?deallocate@?$xalloc@V?$_plane@M@@@@QBEXPAV?$_plane@M@@I@Z 1003b640 f i r2_R_sun.obj
 0001:0003a660       ??0?$_Wrap_alloc@V?$xalloc@V?$_plane@M@@@@@std@@QAE@XZ 1003b660 f i r2_R_sun.obj
 0001:0003a670       ??0?$_Vector_val@U?$_Simple_types@V?$_plane@M@@@std@@@std@@QAE@XZ 1003b670 f i r2_R_sun.obj
 0001:0003a690       ?allocate@?$xalloc@U?$_vector3@M@@@@QBEPAU?$_vector3@M@@IPBX@Z 1003b690 f i r2_R_sun.obj
 0001:0003a6b0       ?deallocate@?$xalloc@U?$_vector3@M@@@@QBEXPAU?$_vector3@M@@I@Z 1003b6b0 f i r2_R_sun.obj
 0001:0003a6d0       ?max_size@?$allocator_traits@V?$xalloc@U?$_vector3@M@@@@@std@@SAIABV?$xalloc@U?$_vector3@M@@@@@Z 1003b6d0 f i r2_R_sun.obj
 0001:0003a6e0       ??0?$_Vector_val@U?$_Simple_types@U?$_vector3@M@@@std@@@std@@QAE@XZ 1003b6e0 f i r2_R_sun.obj
 0001:0003a700       ??Y?$_Vector_const_iterator@V?$_Vector_val@U?$_Simple_types@U?$_vector3@M@@@std@@@std@@@std@@QAEAAV01@H@Z 1003b700 f i r2_R_sun.obj
 0001:0003a720       ?allocate@?$doug_lea_alloc@V?$_box3@M@@@@QBEPAV?$_box3@M@@IPBX@Z 1003b720 f i r2_R_sun.obj
 0001:0003a740       ?max_size@?$allocator_traits@V?$doug_lea_alloc@V?$_box3@M@@@@@std@@SAIABV?$doug_lea_alloc@V?$_box3@M@@@@@Z 1003b740 f i r2_R_sun.obj
 0001:0003a750       ?allocate@?$xalloc@Uray@sun@@@@QBEPAUray@sun@@IPBX@Z 1003b750 f i r2_R_sun.obj
 0001:0003a770       ?max_size@?$_Wrap_alloc@V?$xalloc@Uray@sun@@@@@std@@QBEIXZ 1003b770 f i r2_R_sun.obj
 0001:0003a780       ?capacity@?$vector@Ucascade@sun@@V?$xalloc@Ucascade@sun@@@@@std@@QBEIXZ 1003b780 f i r2_R_sun.obj
 0001:0003a7a0       ?allocate@?$_Wrap_alloc@V?$xalloc@Ucascade@sun@@@@@std@@QAEPAUcascade@sun@@I@Z 1003b7a0 f i r2_R_sun.obj
 0001:0003a7c0       ?max_size@?$_Wrap_alloc@V?$xalloc@Ucascade@sun@@@@@std@@QBEIXZ 1003b7c0 f i r2_R_sun.obj
 0001:0003a7d0       ?capacity@?$vector@UD3DXPLANE@@V?$xalloc@UD3DXPLANE@@@@@std@@QBEIXZ 1003b7d0 f i r2_R_sun.obj
 0001:0003a7e0       ?deallocate@?$xalloc@UD3DXPLANE@@@@QBEXPAUD3DXPLANE@@I@Z 1003b7e0 f i r2_R_sun.obj
 0001:0003a800       ?allocate@?$_Wrap_alloc@V?$xalloc@UD3DXPLANE@@@@@std@@QAEPAUD3DXPLANE@@I@Z 1003b800 f i r2_R_sun.obj
 0001:0003a820       ?max_size@?$_Wrap_alloc@V?$xalloc@UD3DXPLANE@@@@@std@@QBEIXZ 1003b820 f i r2_R_sun.obj
 0001:0003a830       ??0?$_Vector_val@U?$_Simple_types@UD3DXPLANE@@@std@@@std@@QAE@XZ 1003b830 f i r2_R_sun.obj
 0001:0003a850       ?capacity@?$vector@U_poly@?$DumbConvexVolume@$0A@@@V?$xalloc@U_poly@?$DumbConvexVolume@$0A@@@@@@std@@QBEIXZ 1003b850 f i r2_R_sun.obj
 0001:0003a870       ?deallocate@?$xalloc@U_poly@?$DumbConvexVolume@$0A@@@@@QBEXPAU_poly@?$DumbConvexVolume@$0A@@@I@Z 1003b870 f i r2_R_sun.obj
 0001:0003a890       ?allocate@?$_Wrap_alloc@V?$xalloc@U_poly@?$DumbConvexVolume@$0A@@@@@@std@@QAEPAU_poly@?$DumbConvexVolume@$0A@@@I@Z 1003b890 f i r2_R_sun.obj
 0001:0003a8b0       ?max_size@?$_Wrap_alloc@V?$xalloc@U_poly@?$DumbConvexVolume@$0A@@@@@@std@@QBEIXZ 1003b8b0 f i r2_R_sun.obj
 0001:0003a8c0       ??0?$_Vector_val@U?$_Simple_types@U_poly@?$DumbConvexVolume@$0A@@@@std@@@std@@QAE@XZ 1003b8c0 f i r2_R_sun.obj
 0001:0003a8e0       ?_Unused_capacity@?$vector@U_edge@?$DumbConvexVolume@$0A@@@V?$xalloc@U_edge@?$DumbConvexVolume@$0A@@@@@@std@@QBEIXZ 1003b8e0 f i r2_R_sun.obj
 0001:0003a900       ?max_size@?$vector@U_edge@?$DumbConvexVolume@$0A@@@V?$xalloc@U_edge@?$DumbConvexVolume@$0A@@@@@@std@@QBEIXZ 1003b900 f i r2_R_sun.obj
 0001:0003a910       ?_Grow_to@?$vector@U_edge@?$DumbConvexVolume@$0A@@@V?$xalloc@U_edge@?$DumbConvexVolume@$0A@@@@@@std@@IBEII@Z 1003b910 f i r2_R_sun.obj
 0001:0003a960       ?_Reallocate@?$vector@U_edge@?$DumbConvexVolume@$0A@@@V?$xalloc@U_edge@?$DumbConvexVolume@$0A@@@@@@std@@IAEXI@Z 1003b960 f i r2_R_sun.obj
 0001:0003aa30       ?_Xlen@?$vector@U_edge@?$DumbConvexVolume@$0A@@@V?$xalloc@U_edge@?$DumbConvexVolume@$0A@@@@@@std@@IBEXXZ 1003ba30 f i r2_R_sun.obj
 0001:0003aa40       ?deallocate@?$xalloc@U_edge@?$DumbConvexVolume@$0A@@@@@QBEXPAU_edge@?$DumbConvexVolume@$0A@@@I@Z 1003ba40 f i r2_R_sun.obj
 0001:0003aa60       ??0?$_Wrap_alloc@V?$xalloc@U_edge@?$DumbConvexVolume@$0A@@@@@@std@@QAE@XZ 1003ba60 f i r2_R_sun.obj
 0001:0003aa70       ??0?$_Vector_val@U?$_Simple_types@U_edge@?$DumbConvexVolume@$0A@@@@std@@@std@@QAE@XZ 1003ba70 f i r2_R_sun.obj
 0001:0003aa90       ??Z?$_Vector_iterator@V?$_Vector_val@U?$_Simple_types@V?$_plane@M@@@std@@@std@@@std@@QAEAAV01@H@Z 1003ba90 f i r2_R_sun.obj
 0001:0003aaa0       ??0?$_Vector_const_iterator@V?$_Vector_val@U?$_Simple_types@V?$_plane@M@@@std@@@std@@@std@@QAE@PAV?$_plane@M@@PBU_Container_base0@1@@Z 1003baa0 f i r2_R_sun.obj
 0001:0003aab0       ??Y?$_Vector_const_iterator@V?$_Vector_val@U?$_Simple_types@V?$_plane@M@@@std@@@std@@@std@@QAEAAV01@H@Z 1003bab0 f i r2_R_sun.obj
 0001:0003aac0       ??0?$_Vector_const_iterator@V?$_Vector_val@U?$_Simple_types@V?$_box3@M@@@std@@@std@@@std@@QAE@PAV?$_box3@M@@PBU_Container_base0@1@@Z 1003bac0 f i r2_R_sun.obj
 0001:0003aad0       ??Y?$_Vector_const_iterator@V?$_Vector_val@U?$_Simple_types@V?$_box3@M@@@std@@@std@@@std@@QAEAAV01@H@Z 1003bad0 f i r2_R_sun.obj
 0001:0003aaf0       ??0?$_Vector_const_iterator@V?$_Vector_val@U?$_Simple_types@Ucascade@sun@@@std@@@std@@@std@@QAE@PAUcascade@sun@@PBU_Container_base0@1@@Z 1003baf0 f i r2_R_sun.obj
 0001:0003ab00       ??Y?$_Vector_const_iterator@V?$_Vector_val@U?$_Simple_types@Ucascade@sun@@@std@@@std@@@std@@QAEAAV01@H@Z 1003bb00 f i r2_R_sun.obj
 0001:0003ab10       ??0?$_Vector_const_iterator@V?$_Vector_val@U?$_Simple_types@UD3DXPLANE@@@std@@@std@@@std@@QAE@PAUD3DXPLANE@@PBU_Container_base0@1@@Z 1003bb10 f i r2_R_sun.obj
 0001:0003ab20       ??Y?$_Vector_const_iterator@V?$_Vector_val@U?$_Simple_types@UD3DXPLANE@@@std@@@std@@@std@@QAEAAV01@H@Z 1003bb20 f i r2_R_sun.obj
 0001:0003ab30       ??Y?$_Vector_iterator@V?$_Vector_val@U?$_Simple_types@H@std@@@std@@@std@@QAEAAV01@H@Z 1003bb30 f i r2_R_sun.obj
 0001:0003ab40       ??0?$_Vector_const_iterator@V?$_Vector_val@U?$_Simple_types@H@std@@@std@@@std@@QAE@PAHPBU_Container_base0@1@@Z 1003bb40 f i r2_R_sun.obj
 0001:0003ab50       ??D?$_Vector_const_iterator@V?$_Vector_val@U?$_Simple_types@H@std@@@std@@@std@@QBEABHXZ 1003bb50 f i r2_R_sun.obj
 0001:0003ab60       ??0?$_Vector_const_iterator@V?$_Vector_val@U?$_Simple_types@U_poly@?$DumbConvexVolume@$0A@@@@std@@@std@@@std@@QAE@PAU_poly@?$DumbConvexVolume@$0A@@@PBU_Container_base0@1@@Z 1003bb60 f i r2_R_sun.obj
 0001:0003ab70       ??Y?$_Vector_const_iterator@V?$_Vector_val@U?$_Simple_types@U_poly@?$DumbConvexVolume@$0A@@@@std@@@std@@@std@@QAEAAV01@H@Z 1003bb70 f i r2_R_sun.obj
 0001:0003ab90       ??0?$_Vector_iterator@V?$_Vector_val@U?$_Simple_types@Uray@sun@@@std@@@std@@@std@@QAE@PAUray@sun@@PBU_Container_base0@1@@Z 1003bb90 f i r2_R_sun.obj
 0001:0003aba0       ??Y?$_Vector_iterator@V?$_Vector_val@U?$_Simple_types@Uray@sun@@@std@@@std@@@std@@QAEAAV01@H@Z 1003bba0 f i r2_R_sun.obj
 0001:0003abc0       ??D?$_Vector_const_iterator@V?$_Vector_val@U?$_Simple_types@Uray@sun@@@std@@@std@@@std@@QBEABUray@sun@@XZ 1003bbc0 f i r2_R_sun.obj
 0001:0003abd0       ??0?$_Vector_iterator@V?$_Vector_val@U?$_Simple_types@U_edge@?$DumbConvexVolume@$0A@@@@std@@@std@@@std@@QAE@PAU_edge@?$DumbConvexVolume@$0A@@@PBU_Container_base0@1@@Z 1003bbd0 f i r2_R_sun.obj
 0001:0003abe0       ??Y?$_Vector_iterator@V?$_Vector_val@U?$_Simple_types@U_edge@?$DumbConvexVolume@$0A@@@@std@@@std@@@std@@QAEAAV01@H@Z 1003bbe0 f i r2_R_sun.obj
 0001:0003ac00       ??D?$_Vector_const_iterator@V?$_Vector_val@U?$_Simple_types@U_edge@?$DumbConvexVolume@$0A@@@@std@@@std@@@std@@QBEABU_edge@?$DumbConvexVolume@$0A@@@XZ 1003bc00 f i r2_R_sun.obj
 0001:0003ac10       ?allocate@?$xalloc@H@@QBEPAHIPBX@Z 1003bc10 f i r2_R_sun.obj
 0001:0003ac30       ?max_size@?$allocator_traits@V?$xalloc@H@@@std@@SAIABV?$xalloc@H@@@Z 1003bc30 f i r2_R_sun.obj
 0001:0003ac40       ?capacity@?$vector@V?$_plane@M@@V?$xalloc@V?$_plane@M@@@@@std@@QBEIXZ 1003bc40 f i r2_R_sun.obj
 0001:0003ac50       ?allocate@?$_Wrap_alloc@V?$xalloc@V?$_plane@M@@@@@std@@QAEPAV?$_plane@M@@I@Z 1003bc50 f i r2_R_sun.obj
 0001:0003ac70       ?max_size@?$_Wrap_alloc@V?$xalloc@V?$_plane@M@@@@@std@@QBEIXZ 1003bc70 f i r2_R_sun.obj
 0001:0003ac80       ?max_size@?$allocator_traits@V?$xalloc@Uray@sun@@@@@std@@SAIABV?$xalloc@Uray@sun@@@@@Z 1003bc80 f i r2_R_sun.obj
 0001:0003ac90       ?allocate@?$xalloc@Ucascade@sun@@@@QBEPAUcascade@sun@@IPBX@Z 1003bc90 f i r2_R_sun.obj
 0001:0003acb0       ?max_size@?$allocator_traits@V?$xalloc@Ucascade@sun@@@@@std@@SAIABV?$xalloc@Ucascade@sun@@@@@Z 1003bcb0 f i r2_R_sun.obj
 0001:0003acc0       ?allocate@?$xalloc@UD3DXPLANE@@@@QBEPAUD3DXPLANE@@IPBX@Z 1003bcc0 f i r2_R_sun.obj
 0001:0003ace0       ?max_size@?$allocator_traits@V?$xalloc@UD3DXPLANE@@@@@std@@SAIABV?$xalloc@UD3DXPLANE@@@@@Z 1003bce0 f i r2_R_sun.obj
 0001:0003acf0       ?allocate@?$xalloc@U_poly@?$DumbConvexVolume@$0A@@@@@QBEPAU_poly@?$DumbConvexVolume@$0A@@@IPBX@Z 1003bcf0 f i r2_R_sun.obj
 0001:0003ad10       ?max_size@?$allocator_traits@V?$xalloc@U_poly@?$DumbConvexVolume@$0A@@@@@@std@@SAIABV?$xalloc@U_poly@?$DumbConvexVolume@$0A@@@@@@Z 1003bd10 f i r2_R_sun.obj
 0001:0003ad20       ?capacity@?$vector@U_edge@?$DumbConvexVolume@$0A@@@V?$xalloc@U_edge@?$DumbConvexVolume@$0A@@@@@@std@@QBEIXZ 1003bd20 f i r2_R_sun.obj
 0001:0003ad40       ?allocate@?$_Wrap_alloc@V?$xalloc@U_edge@?$DumbConvexVolume@$0A@@@@@@std@@QAEPAU_edge@?$DumbConvexVolume@$0A@@@I@Z 1003bd40 f i r2_R_sun.obj
 0001:0003ad60       ?max_size@?$_Wrap_alloc@V?$xalloc@U_edge@?$DumbConvexVolume@$0A@@@@@@std@@QBEIXZ 1003bd60 f i r2_R_sun.obj
 0001:0003ad70       ??Y?$_Vector_const_iterator@V?$_Vector_val@U?$_Simple_types@H@std@@@std@@@std@@QAEAAV01@H@Z 1003bd70 f i r2_R_sun.obj
 0001:0003ad80       ??0?$_Vector_const_iterator@V?$_Vector_val@U?$_Simple_types@Uray@sun@@@std@@@std@@@std@@QAE@PAUray@sun@@PBU_Container_base0@1@@Z 1003bd80 f i r2_R_sun.obj
 0001:0003ad90       ??Y?$_Vector_const_iterator@V?$_Vector_val@U?$_Simple_types@Uray@sun@@@std@@@std@@@std@@QAEAAV01@H@Z 1003bd90 f i r2_R_sun.obj
 0001:0003adb0       ??0?$_Vector_const_iterator@V?$_Vector_val@U?$_Simple_types@U_edge@?$DumbConvexVolume@$0A@@@@std@@@std@@@std@@QAE@PAU_edge@?$DumbConvexVolume@$0A@@@PBU_Container_base0@1@@Z 1003bdb0 f i r2_R_sun.obj
 0001:0003adc0       ??Y?$_Vector_const_iterator@V?$_Vector_val@U?$_Simple_types@U_edge@?$DumbConvexVolume@$0A@@@@std@@@std@@@std@@QAEAAV01@H@Z 1003bdc0 f i r2_R_sun.obj
 0001:0003ade0       ?allocate@?$xalloc@V?$_plane@M@@@@QBEPAV?$_plane@M@@IPBX@Z 1003bde0 f i r2_R_sun.obj
 0001:0003ae00       ?max_size@?$allocator_traits@V?$xalloc@V?$_plane@M@@@@@std@@SAIABV?$xalloc@V?$_plane@M@@@@@Z 1003be00 f i r2_R_sun.obj
 0001:0003ae10       ?allocate@?$xalloc@U_edge@?$DumbConvexVolume@$0A@@@@@QBEPAU_edge@?$DumbConvexVolume@$0A@@@IPBX@Z 1003be10 f i r2_R_sun.obj
 0001:0003ae30       ?max_size@?$allocator_traits@V?$xalloc@U_edge@?$DumbConvexVolume@$0A@@@@@@std@@SAIABV?$xalloc@U_edge@?$DumbConvexVolume@$0A@@@@@@Z 1003be30 f i r2_R_sun.obj
 0001:0003ae40       ??$_min@M@@YAMMM@Z         1003be40 f i r2_R_sun.obj
 0001:0003ae50       ??$min@M@@YAABMABM0@Z      1003be50 f i r2_R_sun.obj
 0001:0003ae60       ??$max@M@@YAABMABM0@Z      1003be60 f i r2_R_sun.obj
 0001:0003ae70       ??$addressof@$$CBH@std@@YAPBHABH@Z 1003be70 f i r2_R_sun.obj
 0001:0003ae80       ??$construct@HAAH@?$_Wrap_alloc@V?$xalloc@H@@@std@@QAEXPAHAAH@Z 1003be80 f i r2_R_sun.obj
 0001:0003aea0       ??$construct@HABH@?$_Wrap_alloc@V?$xalloc@H@@@std@@QAEXPAHABH@Z 1003bea0 f i r2_R_sun.obj
 0001:0003aec0       ??$addressof@$$CBU?$_vector3@M@@@std@@YAPBU?$_vector3@M@@ABU1@@Z 1003bec0 f i r2_R_sun.obj
 0001:0003aed0       ??$construct@U?$_vector3@M@@AAU1@@?$_Wrap_alloc@V?$xalloc@U?$_vector3@M@@@@@std@@QAEXPAU?$_vector3@M@@AAU2@@Z 1003bed0 f i r2_R_sun.obj
 0001:0003aef0       ??$construct@U?$_vector3@M@@ABU1@@?$_Wrap_alloc@V?$xalloc@U?$_vector3@M@@@@@std@@QAEXPAU?$_vector3@M@@ABU2@@Z 1003bef0 f i r2_R_sun.obj
 0001:0003af10       ??$addressof@Uray@sun@@@std@@YAPAUray@sun@@AAU12@@Z 1003bf10 f i r2_R_sun.obj
 0001:0003af20       ??$forward@Uray@sun@@@std@@YA$$QAUray@sun@@AAU12@@Z 1003bf20 f i r2_R_sun.obj
 0001:0003af30       ??$construct@Uray@sun@@U12@@?$_Wrap_alloc@V?$xalloc@Uray@sun@@@@@std@@QAEXPAUray@sun@@$$QAU23@@Z 1003bf30 f i r2_R_sun.obj
 0001:0003af60       ??$?9V?$xalloc@Uray@sun@@@@V0@@std@@YA_NABU?$_Wrap_alloc@V?$xalloc@Uray@sun@@@@@0@0@Z 1003bf60 f i r2_R_sun.obj
 0001:0003af70       ??$_Copy_impl@PAUray@sun@@PAU12@@std@@YAPAUray@sun@@PAU12@00@Z 1003bf70 f i r2_R_sun.obj
 0001:0003afa0       ??$_Ucopy@PAUray@sun@@@?$vector@Uray@sun@@V?$xalloc@Uray@sun@@@@@std@@IAEPAUray@sun@@PAU23@00@Z 1003bfa0 f i r2_R_sun.obj
 0001:0003afc0       ??$_Uninitialized_default_fill_n@PAUcascade@sun@@IU?$_Wrap_alloc@V?$xalloc@Ucascade@sun@@@@@std@@@std@@YAXPAUcascade@sun@@IAAU?$_Wrap_alloc@V?$xalloc@Ucascade@sun@@@@@0@@Z 1003bfc0 f i r2_R_sun.obj
 0001:0003afd0       ??$addressof@UD3DXPLANE@@@std@@YAPAUD3DXPLANE@@AAU1@@Z 1003bfd0 f i r2_R_sun.obj
 0001:0003afe0       ??$forward@UD3DXPLANE@@@std@@YA$$QAUD3DXPLANE@@AAU1@@Z 1003bfe0 f i r2_R_sun.obj
 0001:0003aff0       ??$construct@UD3DXPLANE@@U1@@?$_Wrap_alloc@V?$xalloc@UD3DXPLANE@@@@@std@@QAEXPAUD3DXPLANE@@$$QAU2@@Z 1003bff0 f i r2_R_sun.obj
 0001:0003b010       ??$reverse@V?$_Vector_iterator@V?$_Vector_val@U?$_Simple_types@H@std@@@std@@@std@@@std@@YAXV?$_Vector_iterator@V?$_Vector_val@U?$_Simple_types@H@std@@@std@@@0@0@Z 1003c010 f i r2_R_sun.obj
 0001:0003b040       ??$addressof@U_poly@?$DumbConvexVolume@$0A@@@@std@@YAPAU_poly@?$DumbConvexVolume@$0A@@@AAU12@@Z 1003c040 f i r2_R_sun.obj
 0001:0003b050       ??$forward@U_poly@?$DumbConvexVolume@$0A@@@@std@@YA$$QAU_poly@?$DumbConvexVolume@$0A@@@AAU12@@Z 1003c050 f i r2_R_sun.obj
 0001:0003b060       ??$construct@U_poly@?$DumbConvexVolume@$0A@@@U12@@?$_Wrap_alloc@V?$xalloc@U_poly@?$DumbConvexVolume@$0A@@@@@@std@@QAEXPAU_poly@?$DumbConvexVolume@$0A@@@$$QAU23@@Z 1003c060 f i r2_R_sun.obj
 0001:0003b0a0       ??$addressof@H@std@@YAPAHAAH@Z 1003c0a0 f i r2_R_sun.obj
 0001:0003b0b0       ??$forward@H@std@@YA$$QAHAAH@Z 1003c0b0 f i r2_R_sun.obj
 0001:0003b0c0       ??$construct@HH@?$_Wrap_alloc@V?$xalloc@H@@@std@@QAEXPAH$$QAH@Z 1003c0c0 f i r2_R_sun.obj
 0001:0003b0e0       ??$addressof@$$CBV?$_plane@M@@@std@@YAPBV?$_plane@M@@ABV1@@Z 1003c0e0 f i r2_R_sun.obj
 0001:0003b0f0       ??$construct@V?$_plane@M@@AAV1@@?$_Wrap_alloc@V?$xalloc@V?$_plane@M@@@@@std@@QAEXPAV?$_plane@M@@AAV2@@Z 1003c0f0 f i r2_R_sun.obj
 0001:0003b110       ??$construct@V?$_plane@M@@ABV1@@?$_Wrap_alloc@V?$xalloc@V?$_plane@M@@@@@std@@QAEXPAV?$_plane@M@@ABV2@@Z 1003c110 f i r2_R_sun.obj
 0001:0003b130       ??$_Umove@PAU?$_vector3@M@@@?$vector@U?$_vector3@M@@V?$xalloc@U?$_vector3@M@@@@@std@@IAEPAU?$_vector3@M@@PAU2@00@Z 1003c130 f i r2_R_sun.obj
 0001:0003b150       ??$_Umove@PAV?$_box3@M@@@?$vector@V?$_box3@M@@V?$doug_lea_alloc@V?$_box3@M@@@@@std@@IAEPAV?$_box3@M@@PAV2@00@Z 1003c150 f i r2_R_sun.obj
 0001:0003b170       ??$_Move@PAU_poly@?$DumbConvexVolume@$0A@@@PAU12@@std@@YAPAU_poly@?$DumbConvexVolume@$0A@@@PAU12@00@Z 1003c170 f i r2_R_sun.obj
 0001:0003b190       ??$addressof@$$CBU_edge@?$DumbConvexVolume@$0A@@@@std@@YAPBU_edge@?$DumbConvexVolume@$0A@@@ABU12@@Z 1003c190 f i r2_R_sun.obj
 0001:0003b1a0       ??$construct@U_edge@?$DumbConvexVolume@$0A@@@AAU12@@?$_Wrap_alloc@V?$xalloc@U_edge@?$DumbConvexVolume@$0A@@@@@@std@@QAEXPAU_edge@?$DumbConvexVolume@$0A@@@AAU23@@Z 1003c1a0 f i r2_R_sun.obj
 0001:0003b1c0       ??$construct@U_edge@?$DumbConvexVolume@$0A@@@ABU12@@?$_Wrap_alloc@V?$xalloc@U_edge@?$DumbConvexVolume@$0A@@@@@@std@@QAEXPAU_edge@?$DumbConvexVolume@$0A@@@ABU23@@Z 1003c1c0 f i r2_R_sun.obj
 0001:0003b1e0       ??$_Destroy_range@U?$_Wrap_alloc@V?$xalloc@H@@@std@@@std@@YAXPAH0AAU?$_Wrap_alloc@V?$xalloc@H@@@0@@Z 1003c1e0 f i r2_R_sun.obj
 0001:0003b1f0       ??$_Umove@PAH@?$vector@HV?$xalloc@H@@@std@@IAEPAHPAH00@Z 1003c1f0 f i r2_R_sun.obj
 0001:0003b220       ??$_Destroy_range@U?$_Wrap_alloc@V?$xalloc@V?$_plane@M@@@@@std@@@std@@YAXPAV?$_plane@M@@0AAU?$_Wrap_alloc@V?$xalloc@V?$_plane@M@@@@@0@@Z 1003c220 f i r2_R_sun.obj
 0001:0003b230       ??$_Umove@PAUray@sun@@@?$vector@Uray@sun@@V?$xalloc@Uray@sun@@@@@std@@IAEPAUray@sun@@PAU23@00@Z 1003c230 f i r2_R_sun.obj
 0001:0003b250       ??$_Umove@PAUcascade@sun@@@?$vector@Ucascade@sun@@V?$xalloc@Ucascade@sun@@@@@std@@IAEPAUcascade@sun@@PAU23@00@Z 1003c250 f i r2_R_sun.obj
 0001:0003b270       ??$_Destroy_range@U?$_Wrap_alloc@V?$xalloc@UD3DXPLANE@@@@@std@@@std@@YAXPAUD3DXPLANE@@0AAU?$_Wrap_alloc@V?$xalloc@UD3DXPLANE@@@@@0@@Z 1003c270 f i r2_R_sun.obj
 0001:0003b280       ??$_Umove@PAUD3DXPLANE@@@?$vector@UD3DXPLANE@@V?$xalloc@UD3DXPLANE@@@@@std@@IAEPAUD3DXPLANE@@PAU2@00@Z 1003c280 f i r2_R_sun.obj
 0001:0003b2a0       ??$_Destroy_range@U?$_Wrap_alloc@V?$xalloc@U_poly@?$DumbConvexVolume@$0A@@@@@@std@@@std@@YAXPAU_poly@?$DumbConvexVolume@$0A@@@0AAU?$_Wrap_alloc@V?$xalloc@U_poly@?$DumbConvexVolume@$0A@@@@@@0@@Z 1003c2a0 f i r2_R_sun.obj
 0001:0003b2b0       ??$_Umove@PAU_poly@?$DumbConvexVolume@$0A@@@@?$vector@U_poly@?$DumbConvexVolume@$0A@@@V?$xalloc@U_poly@?$DumbConvexVolume@$0A@@@@@@std@@IAEPAU_poly@?$DumbConvexVolume@$0A@@@PAU23@00@Z 1003c2b0 f i r2_R_sun.obj
 0001:0003b2d0       ??$_Destroy_range@U?$_Wrap_alloc@V?$xalloc@U_edge@?$DumbConvexVolume@$0A@@@@@@std@@@std@@YAXPAU_edge@?$DumbConvexVolume@$0A@@@0AAU?$_Wrap_alloc@V?$xalloc@U_edge@?$DumbConvexVolume@$0A@@@@@@0@@Z 1003c2d0 f i r2_R_sun.obj
 0001:0003b2e0       ??$xr_free@H@@YAXAAPAH@Z   1003c2e0 f i r2_R_sun.obj
 0001:0003b300       ??$_Umove@PAV?$_plane@M@@@?$vector@V?$_plane@M@@V?$xalloc@V?$_plane@M@@@@@std@@IAEPAV?$_plane@M@@PAV2@00@Z 1003c300 f i r2_R_sun.obj
 0001:0003b320       ??$xr_free@V?$_plane@M@@@@YAXAAPAV?$_plane@M@@@Z 1003c320 f i r2_R_sun.obj
 0001:0003b340       ??$xr_alloc@U?$_vector3@M@@@@YAPAU?$_vector3@M@@I@Z 1003c340 f i r2_R_sun.obj
 0001:0003b360       ??$xr_free@U?$_vector3@M@@@@YAXAAPAU?$_vector3@M@@@Z 1003c360 f i r2_R_sun.obj
 0001:0003b380       ??$_Fn@V?$xalloc@U?$_vector3@M@@@@@_Alloc_max_size@std@@SAIHABV?$xalloc@U?$_vector3@M@@@@@Z 1003c380 f i r2_R_sun.obj
 0001:0003b390       ??$_Fn@V?$doug_lea_alloc@V?$_box3@M@@@@@_Alloc_max_size@std@@SAIHABV?$doug_lea_alloc@V?$_box3@M@@@@@Z 1003c390 f i r2_R_sun.obj
 0001:0003b3a0       ??$xr_alloc@Uray@sun@@@@YAPAUray@sun@@I@Z 1003c3a0 f i r2_R_sun.obj
 0001:0003b3c0       ??$xr_free@UD3DXPLANE@@@@YAXAAPAUD3DXPLANE@@@Z 1003c3c0 f i r2_R_sun.obj
